
usb_sdhc.elf:     file format elf32-littlenios2
usb_sdhc.elf
architecture: nios2:r1, flags 0x00000112:
EXEC_P, HAS_SYMS, D_PAGED
start address 0x01000188

Program Header:
    LOAD off    0x00001000 vaddr 0x01000000 paddr 0x01000000 align 2**12
         filesz 0x00000020 memsz 0x00000020 flags r-x
    LOAD off    0x00001020 vaddr 0x01000020 paddr 0x01000020 align 2**12
         filesz 0x00012b04 memsz 0x00012b04 flags r-x
    LOAD off    0x00013b24 vaddr 0x01012b24 paddr 0x01013108 align 2**12
         filesz 0x000005e4 memsz 0x000005e4 flags rw-
    LOAD off    0x000146ec vaddr 0x010136ec paddr 0x010136ec align 2**12
         filesz 0x00000000 memsz 0x00000908 flags rw-

Sections:
Idx Name          Size      VMA       LMA       File off  Algn
  0 .entry        00000020  01000000  01000000  00001000  2**5
                  CONTENTS, ALLOC, LOAD, READONLY, CODE
  1 .exceptions   00000168  01000020  01000020  00001020  2**2
                  CONTENTS, ALLOC, LOAD, READONLY, CODE
  2 .text         00011e60  01000188  01000188  00001188  2**2
                  CONTENTS, ALLOC, LOAD, READONLY, CODE
  3 .rodata       00000b3c  01011fe8  01011fe8  00012fe8  2**2
                  CONTENTS, ALLOC, LOAD, READONLY, DATA
  4 .rwdata       000005e4  01012b24  01013108  00013b24  2**2
                  CONTENTS, ALLOC, LOAD, DATA, SMALL_DATA
  5 .bss          00000908  010136ec  010136ec  000146ec  2**2
                  ALLOC, SMALL_DATA
  6 .onchip_memory 00000000  01013ff4  01013ff4  00014108  2**0
                  CONTENTS
  7 .comment      00000023  00000000  00000000  00014108  2**0
                  CONTENTS, READONLY
  8 .debug_aranges 00000758  00000000  00000000  00014130  2**3
                  CONTENTS, READONLY, DEBUGGING
  9 .debug_info   0000f974  00000000  00000000  00014888  2**0
                  CONTENTS, READONLY, DEBUGGING
 10 .debug_abbrev 00004232  00000000  00000000  000241fc  2**0
                  CONTENTS, READONLY, DEBUGGING
 11 .debug_line   00005e6d  00000000  00000000  0002842e  2**0
                  CONTENTS, READONLY, DEBUGGING
 12 .debug_frame  0000158c  00000000  00000000  0002e29c  2**2
                  CONTENTS, READONLY, DEBUGGING
 13 .debug_str    0000378c  00000000  00000000  0002f828  2**0
                  CONTENTS, READONLY, DEBUGGING
 14 .debug_loc    00004f82  00000000  00000000  00032fb4  2**0
                  CONTENTS, READONLY, DEBUGGING
 15 .debug_alt_sim_info 00000060  00000000  00000000  00037f38  2**2
                  CONTENTS, READONLY, DEBUGGING
 16 .debug_ranges 000006d0  00000000  00000000  00037f98  2**3
                  CONTENTS, READONLY, DEBUGGING
 17 .thread_model 00000003  00000000  00000000  0003b259  2**0
                  CONTENTS, READONLY
 18 .cpu          0000000d  00000000  00000000  0003b25c  2**0
                  CONTENTS, READONLY
 19 .qsys         00000001  00000000  00000000  0003b269  2**0
                  CONTENTS, READONLY
 20 .simulation_enabled 00000001  00000000  00000000  0003b26a  2**0
                  CONTENTS, READONLY
 21 .sysid_hash   00000004  00000000  00000000  0003b26b  2**0
                  CONTENTS, READONLY
 22 .sysid_base   00000004  00000000  00000000  0003b26f  2**0
                  CONTENTS, READONLY
 23 .sysid_time   00000004  00000000  00000000  0003b273  2**0
                  CONTENTS, READONLY
 24 .stderr_dev   0000000b  00000000  00000000  0003b277  2**0
                  CONTENTS, READONLY
 25 .stdin_dev    0000000b  00000000  00000000  0003b282  2**0
                  CONTENTS, READONLY
 26 .stdout_dev   0000000b  00000000  00000000  0003b28d  2**0
                  CONTENTS, READONLY
 27 .sopc_system_name 0000000e  00000000  00000000  0003b298  2**0
                  CONTENTS, READONLY
 28 .quartus_project_dir 0000003a  00000000  00000000  0003b2a6  2**0
                  CONTENTS, READONLY
 29 .jdi          000045e9  00000000  00000000  0003b2e0  2**0
                  CONTENTS, READONLY
 30 .sopcinfo     0008225a  00000000  00000000  0003f8c9  2**0
                  CONTENTS, READONLY
SYMBOL TABLE:
01000000 l    d  .entry	00000000 .entry
01000020 l    d  .exceptions	00000000 .exceptions
01000188 l    d  .text	00000000 .text
01011fe8 l    d  .rodata	00000000 .rodata
01012b24 l    d  .rwdata	00000000 .rwdata
010136ec l    d  .bss	00000000 .bss
01013ff4 l    d  .onchip_memory	00000000 .onchip_memory
00000000 l    d  .comment	00000000 .comment
00000000 l    d  .debug_aranges	00000000 .debug_aranges
00000000 l    d  .debug_info	00000000 .debug_info
00000000 l    d  .debug_abbrev	00000000 .debug_abbrev
00000000 l    d  .debug_line	00000000 .debug_line
00000000 l    d  .debug_frame	00000000 .debug_frame
00000000 l    d  .debug_str	00000000 .debug_str
00000000 l    d  .debug_loc	00000000 .debug_loc
00000000 l    d  .debug_alt_sim_info	00000000 .debug_alt_sim_info
00000000 l    d  .debug_ranges	00000000 .debug_ranges
00000000 l    df *ABS*	00000000 ../usb_sdhc_bsp//obj/HAL/src/crt0.o
010001d0 l       .text	00000000 alt_after_alt_main
00000000 l    df *ABS*	00000000 alt_irq_handler.c
00000000 l    df *ABS*	00000000 alt_instruction_exception_entry.c
00000000 l    df *ABS*	00000000 Main.c
00000000 l    df *ABS*	00000000 SD_Interface.c
00000000 l    df *ABS*	00000000 USBMassStore.c
00000000 l    df *ABS*	00000000 sdhc_hal.c
01002ad0 l     F .text	00000204 sls_sdhc_irq
00000000 l    df *ABS*	00000000 sdhc_stack.c
010136fc l     O .bss	00000004 MemPresent
01013700 l     O .bss	00000004 ioready
010123d4 l     O .rodata	00000020 tran_exp
010123f4 l     O .rodata	00000010 tran_mant
01012404 l     O .rodata	00000010 emmc_tran_mant
01012414 l     O .rodata	00000020 tacc_exp
01012434 l     O .rodata	00000040 tacc_mant
00000000 l    df *ABS*	00000000 sls_avalon_usb20.c
01009de8 l     F .text	00002e34 sls_avalon_usb20_irq
010130e0 l     O .rwdata	00000004 speed_changed.3554
00000000 l    df *ABS*	00000000 SCSI_TO_ATA.c
0100f494 l     F .text	000001b4 request_sense
0100f040 l     F .text	00000248 inquairy
0100f348 l     F .text	00000050 mode_sense
0100f288 l     F .text	000000c0 read_capacity
0100f398 l     F .text	000000fc read_format_capacity
00000000 l    df *ABS*	00000000 libgcc2.c
00000000 l    df *ABS*	00000000 lib2-divmod.c
0100f6a8 l     F .text	0000006c udivmodsi4
00000000 l    df *ABS*	00000000 addsf3.c
00000000 l    df *ABS*	00000000 divsf3.c
00000000 l    df *ABS*	00000000 gesf2.c
00000000 l    df *ABS*	00000000 subsf3.c
00000000 l    df *ABS*	00000000 fixsfsi.c
00000000 l    df *ABS*	00000000 floatunsisf.c
00000000 l    df *ABS*	00000000 extendsfdf2.c
00000000 l    df *ABS*	00000000 libgcc2.c
00000000 l    df *ABS*	00000000 libgcc2.c
00000000 l    df *ABS*	00000000 memcpy.c
00000000 l    df *ABS*	00000000 memset.c
00000000 l    df *ABS*	00000000 printf.c
00000000 l    df *ABS*	00000000 putchar.c
00000000 l    df *ABS*	00000000 puts.c
00000000 l    df *ABS*	00000000 strlen.c
00000000 l    df *ABS*	00000000 vfprintf.c
01010b54 l     F .text	0000006c print_repeat
00000000 l    df *ABS*	00000000 fvwrite_small_dev.c
00000000 l    df *ABS*	00000000 impure.c
01012f1c l     O .rwdata	000000e0 impure_data
00000000 l    df *ABS*	00000000 putc.c
00000000 l    df *ABS*	00000000 writer.c
00000000 l    df *ABS*	00000000 int_errno.c
00000000 l    df *ABS*	00000000 alt_dcache_flush.c
00000000 l    df *ABS*	00000000 alt_irq_register.c
00000000 l    df *ABS*	00000000 alt_irq_vars.c
00000000 l    df *ABS*	00000000 alt_load.c
00000000 l    df *ABS*	00000000 alt_main.c
00000000 l    df *ABS*	00000000 alt_usleep.c
00000000 l    df *ABS*	00000000 alt_write.c
00000000 l    df *ABS*	00000000 alt_sys_init.c
01013018 l     O .rwdata	0000001c dma_0_tx
01012ffc l     O .rwdata	0000001c dma_0_rx
01013034 l     O .rwdata	000000a4 dma_0_priv
00000000 l    df *ABS*	00000000 altera_avalon_dma.c
0101158c l     F .text	00000134 alt_avalon_dma_irq
01011738 l     F .text	00000044 alt_avalon_dma_launch_txonly
0101177c l     F .text	00000044 alt_avalon_dma_launch_rxonly
010117c0 l     F .text	000001b8 alt_avalon_dma_ioctl
01012b14 l     O .rodata	00000010 CSWTCH.10
00000000 l    df *ABS*	00000000 altera_avalon_jtag_uart_write.c
00000000 l    df *ABS*	00000000 alt_busy_sleep.c
00000000 l    df *ABS*	00000000 alt_dcache_flush_all.c
00000000 l    df *ABS*	00000000 alt_dev_llist_insert.c
00000000 l    df *ABS*	00000000 alt_dma_rxchan_open.c
00000000 l    df *ABS*	00000000 alt_dma_txchan_open.c
00000000 l    df *ABS*	00000000 alt_errno.c
00000000 l    df *ABS*	00000000 alt_find_dev.c
00000000 l    df *ABS*	00000000 alt_icache_flush_all.c
00000000 l    df *ABS*	00000000 alt_iic.c
00000000 l    df *ABS*	00000000 alt_iic_isr_register.c
00000000 l    df *ABS*	00000000 altera_nios2_gen2_irq.c
00000000 l    df *ABS*	00000000 alt_icache_flush.c
00000000 l    df *ABS*	00000000 memcmp.c
010009d4 g     F .text	0000007c MassStorage_Main
0101371c g     O .bss	00000004 alt_instruction_exception_handler
01013704 g     O .bss	00000004 Eject_Flag
01010a8c g     F .text	00000018 putchar
0100e05c g     F .text	00000778 usb20sr_with_dma_read
010136f8 g     O .bss	00000004 csr
01011494 g     F .text	0000002c alt_main
01010aa4 g     F .text	00000080 _puts_r
01013ef4 g     O .bss	00000100 alt_irq
01013108 g       *ABS*	00000000 __flash_rwdata_start
010137f0 g     O .bss	00000010 m_csw
01012b9c g     O .rwdata	0000003c ep_ip_int_hs
01012b24 g     O .rwdata	0000003c ep_ip_int_ls
01010a38 g     F .text	0000004c printf
01011afc g     F .text	00000098 alt_avalon_dma_init
0100e7d4 g     F .text	00000168 usb20sr_check_bo_ready
01001ee0 g     F .text	000000a0 sdhc_sd_write_protected
01008e38 g     F .text	00000028 get_current_config
0100fcb4 g     F .text	00000450 .hidden __divsf3
01013720 g     O .bss	000000b0 sd_0_info
01000860 g     F .text	00000048 sd_read
010130dc g     O .rwdata	00000004 debug_level
0100d4e8 g     F .text	00000508 usb20sr_without_dma_write
010106b8 g     F .text	00000078 .hidden __fixsfsi
010021bc g     F .text	0000018c sdhc_send_command
01011f04 g     F .text	00000008 altera_nios2_gen2_irq_init
00000000  w      *UND*	00000000 __errno
01000000 g     F .entry	0000001c __reset
01008bc4 g     F .text	00000034 usb20sr_phy_register_disable
01000798 g     F .text	00000080 SD_card_init
01012d40 g     O .rwdata	0000003c ep_ip_csr_ls_
01000020 g       *ABS*	00000000 __flash_exceptions_start
01013708 g     O .bss	00000004 errno
01001e88 g     F .text	00000058 sdhc_sd_present
01013714 g     O .bss	00000004 alt_argv
0101b0d8 g       *ABS*	00000000 _gp
010114c0 g     F .text	00000004 usleep
010008a8 g     F .text	0000012c InitSD
010101bc g     F .text	000004fc .hidden __subsf3
01008e88 g     F .text	00000028 get_current_alt_settings
01011d28 g     F .text	00000058 alt_dma_txchan_open
01010a84 g     F .text	00000008 _putchar_r
0100e93c g     F .text	000000b8 usb20sr_check_bi_ready
01000230 g     F .text	0000016c HandleClassSpecificControlRequests
01011d80 g     F .text	00000074 alt_find_dev
010109b4 g     F .text	00000028 memcpy
01010b24 g     F .text	00000014 puts
01011f44 g     F .text	00000074 alt_exception_cause_generated_bad_addr
01007cfc g     F .text	00000090 emmc_write_bus_test
010109fc g     F .text	0000003c _printf_r
01002f20 g     F .text	00001a80 sdhc_decode_cid
0100f7c4 g     F .text	00000008 .hidden __udivsi3
01011f0c g     F .text	00000038 alt_icache_flush
010001d4 g     F .text	00000004 USB_WakeUpCfg_Event
01009bd0 g     F .text	00000170 USB_DisableEP
010112d8 g     F .text	00000028 alt_dcache_flush
01000510 g     F .text	000001e4 configure_usb20sr
01011300 g     F .text	0000009c alt_irq_register
01009d40 g     F .text	00000068 usb20sr_connect
01010840 g     F .text	00000110 .hidden __extendsfdf2
01008f20 g     F .text	0000007c USB_SetStallEP
01008d98 g     F .text	00000034 get_current_micro_frame_no
010116c0 g     F .text	00000078 alt_avalon_dma_launch_bidir
01011cd0 g     F .text	00000058 alt_dma_rxchan_open
0100cc1c g     F .text	0000013c usb20sr_config
01001b80 g     F .text	00000308 StatusTransport
010130e4 g     O .rwdata	00000004 _global_impure_ptr
01007a6c g     F .text	00000100 sdhc_read
01013ff4 g       *ABS*	00000000 __bss_end
01011e9c g     F .text	00000068 alt_iic_isr_register
010136ec g     O .bss	00000001 DataToBeSent
01012db8 g     O .rwdata	0000003c ep_ip_csr_hs_
0100e9f4 g     F .text	0000064c SCSI_To_ATA_Translation
01011e84 g     F .text	00000018 alt_ic_irq_enabled
01012e34 g     O .rwdata	0000000a device_quali_desc_
0101370c g     O .bss	00000004 alt_irq_active
0100cdcc g     F .text	0000071c usb20sr_with_dma_write
010000fc g     F .exceptions	00000060 alt_irq_handler
01009da8 g     F .text	00000040 usb20sr_disconnect
01011c40 g     F .text	00000018 alt_dcache_flush_all
01001f80 g     F .text	0000023c sdhc_set_freq
01013108 g       *ABS*	00000000 __ram_rwdata_end
010026f4 g     F .text	000001e0 sdhc_sdio_read
01000000 g       *ABS*	00000000 __alt_mem_onchip_memory
01008bf8 g     F .text	0000003c usb20sr_set_dev_speed
01011a30 g     F .text	00000024 alt_avalon_dma_space
010114c4 g     F .text	0000006c write
01011228 g     F .text	00000058 _putc_r
01008b8c g     F .text	00000038 usb20sr_phy_register_enable
0100d9f0 g     F .text	00000124 slsmemcpy
01010104 g     F .text	000000b8 .hidden __gtsf2
01012b24 g       *ABS*	00000000 __ram_rodata_end
010130f0 g     O .rwdata	00000004 jtag_uart_0
01000200 g     F .text	0000000c USB_Detached_Event
0100f7cc g     F .text	00000008 .hidden __umodsi3
01008dcc g     F .text	00000038 get_current_frame_no
01008cd8 g     F .text	00000084 usb20sr_phy_register_read
01013ff4 g       *ABS*	00000000 end
01008d5c g     F .text	0000003c usb20sr_set_low_power_mode
01007d8c g     F .text	00000e00 sdhc_card_init
0100015c g     F .exceptions	0000002c alt_instruction_exception_entry
01020800 g       *ABS*	00000000 __alt_stack_pointer
01010950 g     F .text	00000064 .hidden __clzsi2
01011b94 g     F .text	00000034 altera_avalon_jtag_uart_write
01002ef8 g     F .text	00000028 sdhc_set_debug_level
01012d04 g     O .rwdata	0000003c ep_buf0_sz_hs_
01010bc0 g     F .text	00000544 ___vfprintf_internal_r
0100020c g     F .text	0000000c USB_Reset_Event
01011a54 g     F .text	000000a8 alt_avalon_dma_send
010130fc g     O .rwdata	00000008 alt_dma_txchan_list
010012f0 g     F .text	00000890 Data_In
0100039c g     F .text	00000174 usb20sr_error_event
01000188 g     F .text	0000004c _start
01011550 g     F .text	0000003c alt_sys_init
01008e60 g     F .text	00000028 get_current_interface
01012c14 g     O .rwdata	0000003c ep_buf0_sz_ls_
01012b24 g       *ABS*	00000000 __ram_rwdata_start
01011fe8 g       *ABS*	00000000 __ram_rodata_start
01012f08 g     O .rwdata	00000012 device_desc_
010130d8 g     O .rwdata	00000004 supported_ep_
01011bc8 g     F .text	00000078 alt_busy_sleep
01009118 g     F .text	000000d4 usb_ep_config
01012df4 g     O .rwdata	00000020 other_speed_conf_desc_fs_
01011fb8 g     F .text	00000030 memcmp
01013ff4 g       *ABS*	00000000 __alt_stack_base
0100cd58 g     F .text	00000074 usb20_event_isr
010001f4 g     F .text	0000000c USB_Attached_Event
01012e3e g     O .rwdata	00000050 str_desc_
01012c8c g     O .rwdata	0000003c ep_buf0_sz_fs_
0100db14 g     F .text	00000548 usb20sr_without_dma_read
01011c58 g     F .text	00000078 alt_dev_llist_insert
01007b6c g     F .text	00000090 emmc_read_bus_test
01011128 g     F .text	000000ac __sfvwrite_small_dev
01012bd8 g     O .rwdata	0000003c ep_buf1_sz_ls_
010136ec g       *ABS*	00000000 __bss_start
010109dc g     F .text	00000020 memset
01002cd4 g     F .text	00000224 sdhc_init
010006f8 g     F .text	000000a0 main
01011980 g     F .text	00000008 alt_avalon_dma_rx_ioctl
01013710 g     O .bss	00000004 alt_envp
01012e90 g     O .rwdata	00000018 str_desc_indexes_
01012ea8 g     O .rwdata	00000020 conf_desc_ls_
010136f4 g     O .bss	00000001 g_nxtBuf
01012e14 g     O .rwdata	00000020 other_speed_conf_desc_hs_
01007bfc g     F .text	00000100 sdhc_write
01008c5c g     F .text	0000007c usb20sr_phy_register_write
01013104 g     O .rwdata	00000004 alt_errno
01000818 g     F .text	00000048 sd_write
01012b60 g     O .rwdata	0000003c ep_ip_int_fs
010111d4 g     F .text	00000054 putc
0100f714 g     F .text	00000054 .hidden __divsi3
01011fe8 g       *ABS*	00000000 __flash_rodata_start
010006f4 g     F .text	00000004 USB_SOFRecved_Event
010136f0 g     O .bss	00000004 pUsb20srDev
01011530 g     F .text	00000020 alt_irq_init
01008c34 g     F .text	00000028 usb20sr_get_dev_speed
01012a10 g     O .rodata	00000100 .hidden __clz_tab
010137d0 g     O .bss	00000020 m_cbw
01010104 g     F .text	000000b8 .hidden __gesf2
01011280 g     F .text	00000058 _write_r
01000224 g     F .text	0000000c USB_Suspend_Event
01002348 g     F .text	000003ac sdhc_get_response
010130e8 g     O .rwdata	00000004 _impure_ptr
01013718 g     O .bss	00000004 alt_argc
01000020 g       .exceptions	00000000 alt_irq_entry
01012ee8 g     O .rwdata	00000020 conf_desc_hs_
01000020 g       *ABS*	00000000 __ram_exceptions_start
01000d00 g     F .text	000005f0 Data_Out
01011e00 g     F .text	00000004 alt_ic_isr_register
01000218 g     F .text	0000000c USB_Resume_Event
01013108 g       *ABS*	00000000 _edata
01013ff4 g       *ABS*	00000000 _end
01000188 g       *ABS*	00000000 __ram_exceptions_end
010072a0 g     F .text	00000438 sdhc_set_high_speed_mode
01012d7c g     O .rwdata	0000003c ep_ip_csr_fs_
01012cc8 g     O .rwdata	0000003c ep_buf1_sz_hs_
01009020 g     F .text	000000f8 usb_initialize_descriptor
01011e44 g     F .text	00000040 alt_ic_irq_disable
01000a50 g     F .text	000002b0 CommandTransport
010028d4 g     F .text	000001fc sdhc_sdio_write
01010730 g     F .text	00000110 .hidden __floatunsisf
0100f768 g     F .text	0000005c .hidden __modsi3
01020800 g       *ABS*	00000000 __alt_data_end
01000020 g     F .exceptions	00000000 alt_exception
010076d8 g     F .text	00000394 sdhc_mode_select
01012c50 g     O .rwdata	0000003c ep_buf1_sz_fs_
0100f648 g     F .text	00000060 .hidden __fixunssfsi
0100001c g       .entry	00000000 _exit
010049a0 g     F .text	000027c8 sdhc_decode_csd
010091ec g     F .text	00000080 dma_config
01010b38 g     F .text	0000001c strlen
01008ed8 g     F .text	00000048 SetRemoteWakeUp
01011df4 g     F .text	0000000c alt_icache_flush_all
010130ec g     O .rwdata	00000004 alt_priority_mask
01013800 g     O .bss	000006f4 usb20srdev
01011e04 g     F .text	00000040 alt_ic_irq_enable
01011104 g     F .text	00000024 __vfprintf_internal
01008eb0 g     F .text	00000028 ifConfigured
01008f9c g     F .text	00000084 USB_ClrStallEP
010001d8 g     F .text	0000001c HandleClassSpecificDescriptorRequests
01011988 g     F .text	000000a8 alt_avalon_dma_prepare
010130f4 g     O .rwdata	00000008 alt_dma_rxchan_list
01007168 g     F .text	00000138 emmc_decode_ext_csd
0100f7d4 g     F .text	000004e0 .hidden __addsf3
0101139c g     F .text	000000f8 alt_load
01011978 g     F .text	00000008 alt_avalon_dma_tx_ioctl
01008e04 g     F .text	00000034 get_sof_time
0100926c g     F .text	00000964 USB_EnableEP
01012ec8 g     O .rwdata	00000020 conf_desc_fs_



Disassembly of section .entry:

01000000 <__reset>:
#if NIOS2_ICACHE_SIZE > 0 && defined(ALT_ALLOW_CODE_AT_RESET) && (!defined(ALT_SIM_OPTIMIZE) || defined(NIOS2_ECC_PRESENT))
    /* Assume the instruction cache size is always a power of two. */
#if NIOS2_ICACHE_SIZE > 0x8000
    movhi r2, %hi(NIOS2_ICACHE_SIZE)
#else
    movui r2, NIOS2_ICACHE_SIZE
 1000000:	00820014 	movui	r2,2048
#endif

0:
    initi r2
 1000004:	1001483a 	initi	r2
    addi r2, r2, -NIOS2_ICACHE_LINE_SIZE
 1000008:	10bff804 	addi	r2,r2,-32
    bgt r2, zero, 0b
 100000c:	00bffd16 	blt	zero,r2,1000004 <__alt_data_end+0xfffdf804>
 * Jump to the _start entry point in the .text section if reset code
 * is allowed or if optimizing for RTL simulation.
 */
#if defined(ALT_ALLOW_CODE_AT_RESET) || defined(ALT_SIM_OPTIMIZE)
    /* Jump to the _start entry point in the .text section. */
    movhi r1, %hi(_start)
 1000010:	00404034 	movhi	at,256
    ori r1, r1, %lo(_start)
 1000014:	08406214 	ori	at,at,392
    jmp r1
 1000018:	0800683a 	jmp	at

0100001c <_exit>:
 100001c:	00000000 	call	0 <__reset-0x1000000>

Disassembly of section .exceptions:

01000020 <alt_exception>:

#else /* ALT_EXCEPTION_STACK disabled */
        /* 
         * Reserve space on normal stack for registers about to be pushed.
         */
        addi  sp, sp, -76
 1000020:	deffed04 	addi	sp,sp,-76
         * documentation for details).
         *
         * Leave a gap in the stack frame at 4(sp) for the muldiv handler to
         * store zero into.
         */
        stw   ra,  0(sp)
 1000024:	dfc00015 	stw	ra,0(sp)
        stw   r1,   8(sp)
 1000028:	d8400215 	stw	at,8(sp)
        stw   r2,  12(sp)
 100002c:	d8800315 	stw	r2,12(sp)
        stw   r3,  16(sp)
 1000030:	d8c00415 	stw	r3,16(sp)
        stw   r4,  20(sp)
 1000034:	d9000515 	stw	r4,20(sp)
        stw   r5,  24(sp)
 1000038:	d9400615 	stw	r5,24(sp)
        stw   r6,  28(sp)
 100003c:	d9800715 	stw	r6,28(sp)
        stw   r7,  32(sp)
 1000040:	d9c00815 	stw	r7,32(sp)
        rdctl r5, estatus   /* Read early to avoid usage stall */
 1000044:	000b307a 	rdctl	r5,estatus
        stw   r8,  36(sp)
 1000048:	da000915 	stw	r8,36(sp)
        stw   r9,  40(sp)
 100004c:	da400a15 	stw	r9,40(sp)
        stw   r10, 44(sp)
 1000050:	da800b15 	stw	r10,44(sp)
        stw   r11, 48(sp)
 1000054:	dac00c15 	stw	r11,48(sp)
        stw   r12, 52(sp)
 1000058:	db000d15 	stw	r12,52(sp)
        stw   r13, 56(sp)
 100005c:	db400e15 	stw	r13,56(sp)
        stw   r14, 60(sp)
 1000060:	db800f15 	stw	r14,60(sp)
        stw   r15, 64(sp)
 1000064:	dbc01015 	stw	r15,64(sp)
        /*
         * ea-4 contains the address of the instruction being executed
         * when the exception occured. For interrupt exceptions, we will
         * will be re-issue the isntruction. Store it in 72(sp)
         */
        stw   r5,  68(sp)  /* estatus */
 1000068:	d9401115 	stw	r5,68(sp)
        addi  r15, ea, -4  /* instruction that caused exception */
 100006c:	ebffff04 	addi	r15,ea,-4
        stw   r15,  72(sp)
 1000070:	dbc01215 	stw	r15,72(sp)
#else
        /*
         * Test to see if the exception was a software exception or caused 
         * by an external interrupt, and vector accordingly.
         */
        rdctl r4, ipending
 1000074:	0009313a 	rdctl	r4,ipending
        andi  r2, r5, 1
 1000078:	2880004c 	andi	r2,r5,1
        beq   r2, zero, .Lnot_irq
 100007c:	10000326 	beq	r2,zero,100008c <alt_exception+0x6c>
        beq   r4, zero, .Lnot_irq
 1000080:	20000226 	beq	r4,zero,100008c <alt_exception+0x6c>
        /*
         * Now that all necessary registers have been preserved, call 
         * alt_irq_handler() to process the interrupts.
         */

        call alt_irq_handler
 1000084:	10000fc0 	call	10000fc <alt_irq_handler>

        .section .exceptions.irqreturn, "xa"

        br    .Lexception_exit
 1000088:	00000706 	br	10000a8 <alt_exception+0x88>
         * upon completion, so we write ea (address of instruction *after*
         * the one where the exception occured) into 72(sp). The actual
         * instruction that caused the exception is written in r2, which these
         * handlers will utilize.
         */
        stw   ea,  72(sp)  /* Don't re-issue */
 100008c:	df401215 	stw	ea,72(sp)
        ldhu.n  r2, 0(r4)
        ldhu.n  r3, 2(r4)
        slli.n  r3, r3, 16
        or.n    r2, r2, r3 /* Instruction that caused exception */
#else
        ldw   r2, -4(ea)   /* Instruction that caused exception */
 1000090:	e8bfff17 	ldw	r2,-4(ea)
         * debugger is present) or go into an infinite loop since the
         * handling behavior is undefined; in that case we will not return here.
         */

        /* Load exception-causing address as first argument (r4) */
        addi   r4, ea, -4
 1000094:	e93fff04 	addi	r4,ea,-4

        /* Call the instruction-exception entry */
        call   alt_instruction_exception_entry
 1000098:	100015c0 	call	100015c <alt_instruction_exception_entry>
         * instruction
         *
         * Return code was 0: Skip. The instruction after the exception is
         * already stored in 72(sp).
         */
        bne   r2, r0, .Lexception_exit
 100009c:	1000021e 	bne	r2,zero,10000a8 <alt_exception+0x88>

        /*
         * Otherwise, modify 72(sp) to re-issue the instruction that caused the
         * exception.
         */
        addi  r15, ea, -4  /* instruction that caused exception */
 10000a0:	ebffff04 	addi	r15,ea,-4
        stw   r15,  72(sp)
 10000a4:	dbc01215 	stw	r15,72(sp)
        /* 
         * Restore the saved registers, so that all general purpose registers 
         * have been restored to their state at the time the interrupt occured.
         */

        ldw   r5,  68(sp)
 10000a8:	d9401117 	ldw	r5,68(sp)
        ldw   ea,  72(sp)  /* This becomes the PC once eret is executed */
 10000ac:	df401217 	ldw	ea,72(sp)
        ldw   ra,   0(sp)
 10000b0:	dfc00017 	ldw	ra,0(sp)

        wrctl estatus, r5
 10000b4:	2801707a 	wrctl	estatus,r5

        ldw   r1,   8(sp)
 10000b8:	d8400217 	ldw	at,8(sp)
        ldw   r2,  12(sp)
 10000bc:	d8800317 	ldw	r2,12(sp)
        ldw   r3,  16(sp)
 10000c0:	d8c00417 	ldw	r3,16(sp)
        ldw   r4,  20(sp)
 10000c4:	d9000517 	ldw	r4,20(sp)
        ldw   r5,  24(sp)
 10000c8:	d9400617 	ldw	r5,24(sp)
        ldw   r6,  28(sp)
 10000cc:	d9800717 	ldw	r6,28(sp)
        ldw   r7,  32(sp)
 10000d0:	d9c00817 	ldw	r7,32(sp)

#if defined(ALT_EXCEPTION_STACK) && defined(ALT_STACK_CHECK)
        ldw   et, %gprel(alt_exception_old_stack_limit)(gp)
#endif

        ldw   r8,  36(sp)
 10000d4:	da000917 	ldw	r8,36(sp)
        ldw   r9,  40(sp)
 10000d8:	da400a17 	ldw	r9,40(sp)
        ldw   r10, 44(sp)
 10000dc:	da800b17 	ldw	r10,44(sp)
        ldw   r11, 48(sp)
 10000e0:	dac00c17 	ldw	r11,48(sp)
        ldw   r12, 52(sp)
 10000e4:	db000d17 	ldw	r12,52(sp)
        ldw   r13, 56(sp)
 10000e8:	db400e17 	ldw	r13,56(sp)
        ldw   r14, 60(sp)
 10000ec:	db800f17 	ldw	r14,60(sp)
        ldw   r15, 64(sp)
 10000f0:	dbc01017 	ldw	r15,64(sp)
        stw   et, %gprel(alt_stack_limit_value)(gp)
        stw   zero, %gprel(alt_exception_old_stack_limit)(gp)
#endif /* ALT_STACK_CHECK */
        ldw   sp,  76(sp)
#else /* ALT_EXCEPTION_STACK disabled */
        addi  sp, sp, 76
 10000f4:	dec01304 	addi	sp,sp,76

        /*
         * Return to the interrupted instruction.
         */

        eret
 10000f8:	ef80083a 	eret

010000fc <alt_irq_handler>:
 * instruction is present if the macro ALT_CI_INTERRUPT_VECTOR defined.
 */

void alt_irq_handler (void) __attribute__ ((section (".exceptions")));
void alt_irq_handler (void)
{
 10000fc:	defffe04 	addi	sp,sp,-8
 1000100:	dfc00115 	stw	ra,4(sp)
 1000104:	dc000015 	stw	r16,0(sp)
#ifndef NIOS2_EIC_PRESENT
static ALT_INLINE alt_u32 ALT_ALWAYS_INLINE alt_irq_pending (void)
{
  alt_u32 active;

  NIOS2_READ_IPENDING (active);
 1000108:	0009313a 	rdctl	r4,ipending
    do
    {
      if (active & mask)
      { 
#ifdef ALT_ENHANCED_INTERRUPT_API_PRESENT
        alt_irq[i].handler(alt_irq[i].context); 
 100010c:	04004074 	movhi	r16,257
 1000110:	840fbd04 	addi	r16,r16,16116

  active = alt_irq_pending ();

  do
  {
    i = 0;
 1000114:	0005883a 	mov	r2,zero
    mask = 1;
 1000118:	00c00044 	movi	r3,1
     * called to clear the interrupt condition.
     */

    do
    {
      if (active & mask)
 100011c:	190a703a 	and	r5,r3,r4
 1000120:	28000b26 	beq	r5,zero,1000150 <alt_irq_handler+0x54>
      { 
#ifdef ALT_ENHANCED_INTERRUPT_API_PRESENT
        alt_irq[i].handler(alt_irq[i].context); 
 1000124:	100490fa 	slli	r2,r2,3
 1000128:	8085883a 	add	r2,r16,r2
 100012c:	10c00017 	ldw	r3,0(r2)
 1000130:	11000117 	ldw	r4,4(r2)
 1000134:	183ee83a 	callr	r3
 1000138:	0009313a 	rdctl	r4,ipending

    } while (1);

    active = alt_irq_pending ();
    
  } while (active);
 100013c:	203ff51e 	bne	r4,zero,1000114 <__alt_data_end+0xfffdf914>
  /*
   * Notify the operating system that interrupt processing is complete.
   */ 

  ALT_OS_INT_EXIT();
}
 1000140:	dfc00117 	ldw	ra,4(sp)
 1000144:	dc000017 	ldw	r16,0(sp)
 1000148:	dec00204 	addi	sp,sp,8
 100014c:	f800283a 	ret
#else
        alt_irq[i].handler(alt_irq[i].context, i); 
#endif
        break;
      }
      mask <<= 1;
 1000150:	18c7883a 	add	r3,r3,r3
      i++;
 1000154:	10800044 	addi	r2,r2,1

    } while (1);
 1000158:	003ff006 	br	100011c <__alt_data_end+0xfffdf91c>

0100015c <alt_instruction_exception_entry>:
 * that handler if it has been registered. Absent a handler, it will
 * break break or hang as discussed below.
 */
int 
alt_instruction_exception_entry (alt_u32 exception_pc)
{
 100015c:	200b883a 	mov	r5,r4
 * NIOS2_EXCEPTION_CAUSE_NOT_PRESENT. Your handling routine should
 * check the validity of the cause argument before proceeding.
 */
#ifdef NIOS2_HAS_EXTRA_EXCEPTION_INFO
  /* Get exception cause & "badaddr" */
  NIOS2_READ_EXCEPTION(cause);
 1000160:	000531fa 	rdctl	r2,exception
  cause = ( (cause & NIOS2_EXCEPTION_REG_CAUSE_MASK) >>
              NIOS2_EXCEPTION_REG_CAUSE_OFST );

  NIOS2_READ_BADADDR(badaddr);
 1000164:	000d333a 	rdctl	r6,badaddr
#else
  cause = NIOS2_EXCEPTION_CAUSE_NOT_PRESENT;
  badaddr = 0;
#endif /* NIOS2_HAS_EXTRA_EXCEPTION_INFO */

  if(alt_instruction_exception_handler) {
 1000168:	d0e19117 	ldw	r3,-31164(gp)
 100016c:	18000326 	beq	r3,zero,100017c <alt_instruction_exception_entry+0x20>
 * check the validity of the cause argument before proceeding.
 */
#ifdef NIOS2_HAS_EXTRA_EXCEPTION_INFO
  /* Get exception cause & "badaddr" */
  NIOS2_READ_EXCEPTION(cause);
  cause = ( (cause & NIOS2_EXCEPTION_REG_CAUSE_MASK) >>
 1000170:	11001f0c 	andi	r4,r2,124
     * Call handler. Its return value indicates whether the exception-causing
     * instruction should be re-issued. The code that called us,
     * alt_eceptions_entry.S, will look at this value and adjust the ea
     * register as necessary
     */
    return alt_instruction_exception_handler(cause, exception_pc, badaddr);
 1000174:	2008d0ba 	srli	r4,r4,2
 1000178:	1800683a 	jmp	r3
   *    (a peripheral which negates its interrupt output before its
   *    interrupt handler has been executed will cause spurious interrupts)
   */
  else {
#ifdef NIOS2_HAS_DEBUG_STUB
    NIOS2_BREAK();
 100017c:	003da03a 	break	0
#endif /* NIOS2_HAS_DEBUG_STUB */
  }

  /* We should not get here. Remove compiler warning. */
  return NIOS2_EXCEPTION_RETURN_REISSUE_INST;
}
 1000180:	0005883a 	mov	r2,zero
 1000184:	f800283a 	ret

Disassembly of section .text:

01000188 <_start>:

    /* Assume the data cache size is always a power of two. */
#if NIOS2_DCACHE_SIZE > 0x8000
    movhi r2, %hi(NIOS2_DCACHE_SIZE)
#else
    movui r2, NIOS2_DCACHE_SIZE
 1000188:	00880014 	movui	r2,8192
#endif

0:
    initd 0(r2)
 100018c:	10000033 	initd	0(r2)
#ifdef NIOS2_ECC_PRESENT
    addi r2, r2, -4
#else
    addi r2, r2, -NIOS2_DCACHE_LINE_SIZE
 1000190:	10bff804 	addi	r2,r2,-32
#endif
    bgt r2, zero, 0b
 1000194:	00bffd16 	blt	zero,r2,100018c <__alt_data_end+0xfffdf98c>

    /*
     * Now that the caches are initialized, set up the stack pointer and global pointer.
     * The values provided by the linker are assumed to be correctly aligned.
     */
    movhi sp, %hi(__alt_stack_pointer)
 1000198:	06c040b4 	movhi	sp,258
    ori sp, sp, %lo(__alt_stack_pointer)
 100019c:	dec20014 	ori	sp,sp,2048
    movhi gp, %hi(_gp)
 10001a0:	06804074 	movhi	gp,257
    ori gp, gp, %lo(_gp)
 10001a4:	d6ac3614 	ori	gp,gp,45272
 */
#ifndef ALT_SIM_OPTIMIZE
    /* Log that the BSS is about to be cleared. */
    ALT_LOG_PUTS(alt_log_msg_bss)

    movhi r2, %hi(__bss_start)
 10001a8:	00804074 	movhi	r2,257
    ori r2, r2, %lo(__bss_start)
 10001ac:	108dbb14 	ori	r2,r2,14060

    movhi r3, %hi(__bss_end)
 10001b0:	00c04074 	movhi	r3,257
    ori r3, r3, %lo(__bss_end)
 10001b4:	18cffd14 	ori	r3,r3,16372

    beq r2, r3, 1f
 10001b8:	10c00326 	beq	r2,r3,10001c8 <_start+0x40>

0:
    stw zero, (r2)
 10001bc:	10000015 	stw	zero,0(r2)
    addi r2, r2, 4
 10001c0:	10800104 	addi	r2,r2,4
    bltu r2, r3, 0b
 10001c4:	10fffd36 	bltu	r2,r3,10001bc <__alt_data_end+0xfffdf9bc>
     * section aren't defined until alt_load() has been called).
     */
    mov   et, zero
#endif

    call alt_load
 10001c8:	101139c0 	call	101139c <alt_load>

    /* Log that alt_main is about to be called. */
    ALT_LOG_PUTS(alt_log_msg_alt_main)

    /* Call the C entry point. It should never return. */
    call alt_main
 10001cc:	10114940 	call	1011494 <alt_main>

010001d0 <alt_after_alt_main>:

    /* Wait in infinite loop in case alt_main does return. */
alt_after_alt_main:
    br alt_after_alt_main
 10001d0:	003fff06 	br	10001d0 <__alt_data_end+0xfffdf9d0>

010001d4 <USB_WakeUpCfg_Event>:
{
    printf("\nSuspend\n");
}

void USB_WakeUpCfg_Event(sls_avalon_usb20sr_dev *usb20dev, unsigned char cfg)
{
 10001d4:	f800283a 	ret

010001d8 <HandleClassSpecificDescriptorRequests>:
{

}
void HandleClassSpecificDescriptorRequests(volatile __CONTROL_REQUEST_STATUS *CONTROL_REQUEST_STATUS,
										volatile unsigned int base, char stage)
{
 10001d8:	defff204 	addi	sp,sp,-56
 10001dc:	d9400d15 	stw	r5,52(sp)
				0x09, 0x31, 0x15, 0x81,\
				0x25, 0x7f, 0x75, 0x08,\
				0x95, 0x02, 0x81, 0x06,\
				0xc0, 0xc0			};

	CONTROL_REQUEST_STATUS->sizeOfDataStageData = sizeof(Buffer);
 10001e0:	00800c84 	movi	r2,50
 10001e4:	20800415 	stw	r2,16(r4)
	CONTROL_REQUEST_STATUS->PDataStageData = Buffer;
 10001e8:	26c00115 	stw	sp,4(r4)

}
 10001ec:	dec00e04 	addi	sp,sp,56
 10001f0:	f800283a 	ret

010001f4 <USB_Attached_Event>:
    return 0;
}

void USB_Attached_Event(sls_avalon_usb20sr_dev *usb20dev)
{
    printf("\nAttEvent\n");
 10001f4:	01004074 	movhi	r4,257
 10001f8:	2107fa04 	addi	r4,r4,8168
 10001fc:	1010b241 	jmpi	1010b24 <puts>

01000200 <USB_Detached_Event>:
}

void USB_Detached_Event(sls_avalon_usb20sr_dev *usb20dev)
{
    printf("\nDetaEvent\n");
 1000200:	01004074 	movhi	r4,257
 1000204:	2107fd04 	addi	r4,r4,8180
 1000208:	1010b241 	jmpi	1010b24 <puts>

0100020c <USB_Reset_Event>:
}

void USB_Reset_Event(sls_avalon_usb20sr_dev *usb20dev)
{
    printf("\nResetEvent\n");
 100020c:	01004074 	movhi	r4,257
 1000210:	21080004 	addi	r4,r4,8192
 1000214:	1010b241 	jmpi	1010b24 <puts>

01000218 <USB_Resume_Event>:
}

void USB_Resume_Event(sls_avalon_usb20sr_dev *usb20dev)
{
    printf("\nResume\n");
 1000218:	01004074 	movhi	r4,257
 100021c:	21080304 	addi	r4,r4,8204
 1000220:	1010b241 	jmpi	1010b24 <puts>

01000224 <USB_Suspend_Event>:
}

void USB_Suspend_Event(sls_avalon_usb20sr_dev *usb20dev)
{
    printf("\nSuspend\n");
 1000224:	01004074 	movhi	r4,257
 1000228:	21080504 	addi	r4,r4,8212
 100022c:	1010b241 	jmpi	1010b24 <puts>

01000230 <HandleClassSpecificControlRequests>:
	CONTROL_REQUEST_STATUS->PDataStageData = Buffer;

}
void HandleClassSpecificControlRequests(volatile __CONTROL_REQUEST_STATUS *PCtrlReqStatus,
										volatile unsigned int base, char stage)
{
 1000230:	deffff04 	addi	sp,sp,-4
 1000234:	d9400015 	stw	r5,0(sp)
    if(PCtrlReqStatus->PUsbCtrlReq->bmRequestType.RequestType == 0x01)
 1000238:	20800617 	ldw	r2,24(r4)
 100023c:	00c00804 	movi	r3,32
 1000240:	10800003 	ldbu	r2,0(r2)
 1000244:	1080180c 	andi	r2,r2,96
 1000248:	10c0521e 	bne	r2,r3,1000394 <HandleClassSpecificControlRequests+0x164>
    {
        //if Class specific request is there
    
        //printf("Class Req\n");
        if(     (PCtrlReqStatus->PUsbCtrlReq->bRequest == 0xFE)                &&
 100024c:	20c00617 	ldw	r3,24(r4)
 1000250:	19400043 	ldbu	r5,1(r3)
 1000254:	00c03f84 	movi	r3,254
 1000258:	28c01f1e 	bne	r5,r3,10002d8 <HandleClassSpecificControlRequests+0xa8>
            (PCtrlReqStatus->PUsbCtrlReq->bmRequestType.Direction == 1)    &&
 100025c:	20c00617 	ldw	r3,24(r4)
 1000260:	18c00003 	ldbu	r3,0(r3)
    if(PCtrlReqStatus->PUsbCtrlReq->bmRequestType.RequestType == 0x01)
    {
        //if Class specific request is there
    
        //printf("Class Req\n");
        if(     (PCtrlReqStatus->PUsbCtrlReq->bRequest == 0xFE)                &&
 1000264:	18c0200c 	andi	r3,r3,128
 1000268:	18001b26 	beq	r3,zero,10002d8 <HandleClassSpecificControlRequests+0xa8>
            (PCtrlReqStatus->PUsbCtrlReq->bmRequestType.Direction == 1)    &&
            (PCtrlReqStatus->PUsbCtrlReq->bmRequestType.RequestType == 1)  &&
 100026c:	20c00617 	ldw	r3,24(r4)
 1000270:	18c00003 	ldbu	r3,0(r3)
    {
        //if Class specific request is there
    
        //printf("Class Req\n");
        if(     (PCtrlReqStatus->PUsbCtrlReq->bRequest == 0xFE)                &&
            (PCtrlReqStatus->PUsbCtrlReq->bmRequestType.Direction == 1)    &&
 1000274:	18c0180c 	andi	r3,r3,96
 1000278:	1880171e 	bne	r3,r2,10002d8 <HandleClassSpecificControlRequests+0xa8>
            (PCtrlReqStatus->PUsbCtrlReq->bmRequestType.RequestType == 1)  &&
            (PCtrlReqStatus->PUsbCtrlReq->wIndex.Value == 0)               &&
 100027c:	20800617 	ldw	r2,24(r4)
 1000280:	10c00083 	ldbu	r3,2(r2)
 1000284:	108000c3 	ldbu	r2,3(r2)
 1000288:	1004923a 	slli	r2,r2,8
        //if Class specific request is there
    
        //printf("Class Req\n");
        if(     (PCtrlReqStatus->PUsbCtrlReq->bRequest == 0xFE)                &&
            (PCtrlReqStatus->PUsbCtrlReq->bmRequestType.Direction == 1)    &&
            (PCtrlReqStatus->PUsbCtrlReq->bmRequestType.RequestType == 1)  &&
 100028c:	10c4b03a 	or	r2,r2,r3
 1000290:	1000111e 	bne	r2,zero,10002d8 <HandleClassSpecificControlRequests+0xa8>
            (PCtrlReqStatus->PUsbCtrlReq->wIndex.Value == 0)               &&
            (PCtrlReqStatus->PUsbCtrlReq->wValue.Value == 0)               &&
 1000294:	20800617 	ldw	r2,24(r4)
 1000298:	10c00103 	ldbu	r3,4(r2)
 100029c:	10800143 	ldbu	r2,5(r2)
 10002a0:	1004923a 	slli	r2,r2,8
    
        //printf("Class Req\n");
        if(     (PCtrlReqStatus->PUsbCtrlReq->bRequest == 0xFE)                &&
            (PCtrlReqStatus->PUsbCtrlReq->bmRequestType.Direction == 1)    &&
            (PCtrlReqStatus->PUsbCtrlReq->bmRequestType.RequestType == 1)  &&
            (PCtrlReqStatus->PUsbCtrlReq->wIndex.Value == 0)               &&
 10002a4:	10c4b03a 	or	r2,r2,r3
 10002a8:	10000b1e 	bne	r2,zero,10002d8 <HandleClassSpecificControlRequests+0xa8>
            (PCtrlReqStatus->PUsbCtrlReq->wValue.Value == 0)               &&
            (PCtrlReqStatus->PUsbCtrlReq->wLength == 1)         )
 10002ac:	20800617 	ldw	r2,24(r4)
 10002b0:	10c00183 	ldbu	r3,6(r2)
 10002b4:	108001c3 	ldbu	r2,7(r2)
 10002b8:	1004923a 	slli	r2,r2,8
        //printf("Class Req\n");
        if(     (PCtrlReqStatus->PUsbCtrlReq->bRequest == 0xFE)                &&
            (PCtrlReqStatus->PUsbCtrlReq->bmRequestType.Direction == 1)    &&
            (PCtrlReqStatus->PUsbCtrlReq->bmRequestType.RequestType == 1)  &&
            (PCtrlReqStatus->PUsbCtrlReq->wIndex.Value == 0)               &&
            (PCtrlReqStatus->PUsbCtrlReq->wValue.Value == 0)               &&
 10002bc:	10c4b03a 	or	r2,r2,r3
 10002c0:	00c00044 	movi	r3,1
 10002c4:	10c0041e 	bne	r2,r3,10002d8 <HandleClassSpecificControlRequests+0xa8>
            (PCtrlReqStatus->PUsbCtrlReq->wLength == 1)         )
        {
            //printf("GetMaxLUN\n");
            PCtrlReqStatus->sizeOfDataStageData = 1;
 10002c8:	20800415 	stw	r2,16(r4)
            PCtrlReqStatus->PDataStageData = &DataToBeSent;
 10002cc:	d0a18504 	addi	r2,gp,-31212
 10002d0:	20800115 	stw	r2,4(r4)
 10002d4:	00002f06 	br	1000394 <HandleClassSpecificControlRequests+0x164>
        }
        else if(    (PCtrlReqStatus->PUsbCtrlReq->bRequest == 0xFF)                   &&
 10002d8:	20800617 	ldw	r2,24(r4)
 10002dc:	10c00043 	ldbu	r3,1(r2)
 10002e0:	00803fc4 	movi	r2,255
 10002e4:	1880261e 	bne	r3,r2,1000380 <HandleClassSpecificControlRequests+0x150>
                    (PCtrlReqStatus->PUsbCtrlReq->bmRequestType.Direction == 0)       &&
 10002e8:	20800617 	ldw	r2,24(r4)
 10002ec:	10800003 	ldbu	r2,0(r2)
        {
            //printf("GetMaxLUN\n");
            PCtrlReqStatus->sizeOfDataStageData = 1;
            PCtrlReqStatus->PDataStageData = &DataToBeSent;
        }
        else if(    (PCtrlReqStatus->PUsbCtrlReq->bRequest == 0xFF)                   &&
 10002f0:	1080200c 	andi	r2,r2,128
 10002f4:	1000221e 	bne	r2,zero,1000380 <HandleClassSpecificControlRequests+0x150>
                    (PCtrlReqStatus->PUsbCtrlReq->bmRequestType.Direction == 0)       &&
                    (PCtrlReqStatus->PUsbCtrlReq->bmRequestType.RequestType == 1)     &&
 10002f8:	20800617 	ldw	r2,24(r4)
            //printf("GetMaxLUN\n");
            PCtrlReqStatus->sizeOfDataStageData = 1;
            PCtrlReqStatus->PDataStageData = &DataToBeSent;
        }
        else if(    (PCtrlReqStatus->PUsbCtrlReq->bRequest == 0xFF)                   &&
                    (PCtrlReqStatus->PUsbCtrlReq->bmRequestType.Direction == 0)       &&
 10002fc:	00c00804 	movi	r3,32
                    (PCtrlReqStatus->PUsbCtrlReq->bmRequestType.RequestType == 1)     &&
 1000300:	10800003 	ldbu	r2,0(r2)
            //printf("GetMaxLUN\n");
            PCtrlReqStatus->sizeOfDataStageData = 1;
            PCtrlReqStatus->PDataStageData = &DataToBeSent;
        }
        else if(    (PCtrlReqStatus->PUsbCtrlReq->bRequest == 0xFF)                   &&
                    (PCtrlReqStatus->PUsbCtrlReq->bmRequestType.Direction == 0)       &&
 1000304:	1080180c 	andi	r2,r2,96
 1000308:	10c01d1e 	bne	r2,r3,1000380 <HandleClassSpecificControlRequests+0x150>
                    (PCtrlReqStatus->PUsbCtrlReq->bmRequestType.RequestType == 1)     &&
                    (PCtrlReqStatus->PUsbCtrlReq->wIndex.Value == 0)                  &&
 100030c:	20800617 	ldw	r2,24(r4)
 1000310:	10c00083 	ldbu	r3,2(r2)
 1000314:	108000c3 	ldbu	r2,3(r2)
 1000318:	1004923a 	slli	r2,r2,8
            PCtrlReqStatus->sizeOfDataStageData = 1;
            PCtrlReqStatus->PDataStageData = &DataToBeSent;
        }
        else if(    (PCtrlReqStatus->PUsbCtrlReq->bRequest == 0xFF)                   &&
                    (PCtrlReqStatus->PUsbCtrlReq->bmRequestType.Direction == 0)       &&
                    (PCtrlReqStatus->PUsbCtrlReq->bmRequestType.RequestType == 1)     &&
 100031c:	10c4b03a 	or	r2,r2,r3
 1000320:	1000171e 	bne	r2,zero,1000380 <HandleClassSpecificControlRequests+0x150>
                    (PCtrlReqStatus->PUsbCtrlReq->wIndex.Value == 0)                  &&
                    (PCtrlReqStatus->PUsbCtrlReq->wValue.Value == 0)                  &&
 1000324:	20800617 	ldw	r2,24(r4)
 1000328:	10c00103 	ldbu	r3,4(r2)
 100032c:	10800143 	ldbu	r2,5(r2)
 1000330:	1004923a 	slli	r2,r2,8
            PCtrlReqStatus->PDataStageData = &DataToBeSent;
        }
        else if(    (PCtrlReqStatus->PUsbCtrlReq->bRequest == 0xFF)                   &&
                    (PCtrlReqStatus->PUsbCtrlReq->bmRequestType.Direction == 0)       &&
                    (PCtrlReqStatus->PUsbCtrlReq->bmRequestType.RequestType == 1)     &&
                    (PCtrlReqStatus->PUsbCtrlReq->wIndex.Value == 0)                  &&
 1000334:	10c4b03a 	or	r2,r2,r3
 1000338:	1000111e 	bne	r2,zero,1000380 <HandleClassSpecificControlRequests+0x150>
                    (PCtrlReqStatus->PUsbCtrlReq->wValue.Value == 0)                  &&
                    (PCtrlReqStatus->PUsbCtrlReq->wLength == 0))
 100033c:	20800617 	ldw	r2,24(r4)
 1000340:	10c00183 	ldbu	r3,6(r2)
 1000344:	108001c3 	ldbu	r2,7(r2)
 1000348:	1004923a 	slli	r2,r2,8
        }
        else if(    (PCtrlReqStatus->PUsbCtrlReq->bRequest == 0xFF)                   &&
                    (PCtrlReqStatus->PUsbCtrlReq->bmRequestType.Direction == 0)       &&
                    (PCtrlReqStatus->PUsbCtrlReq->bmRequestType.RequestType == 1)     &&
                    (PCtrlReqStatus->PUsbCtrlReq->wIndex.Value == 0)                  &&
                    (PCtrlReqStatus->PUsbCtrlReq->wValue.Value == 0)                  &&
 100034c:	10c4b03a 	or	r2,r2,r3
 1000350:	10000b1e 	bne	r2,zero,1000380 <HandleClassSpecificControlRequests+0x150>
                    (PCtrlReqStatus->PUsbCtrlReq->wLength == 0))
        {
            int csr = IORD_32DIRECT(base, 0x50);
 1000354:	d8800017 	ldw	r2,0(sp)
 1000358:	10801437 	ldwio	r2,80(r2)
            IOWR_32DIRECT(base, 0x50, csr | 0x00800000);
 100035c:	d8c00017 	ldw	r3,0(sp)
 1000360:	10802034 	orhi	r2,r2,128
 1000364:	18801435 	stwio	r2,80(r3)
			csr = IORD_32DIRECT(base, 0x60);
 1000368:	d8800017 	ldw	r2,0(sp)
 100036c:	10801837 	ldwio	r2,96(r2)
            IOWR_32DIRECT(base, 0x60, csr | 0x00800000);
 1000370:	d8c00017 	ldw	r3,0(sp)
 1000374:	10802034 	orhi	r2,r2,128
 1000378:	18801835 	stwio	r2,96(r3)
                    (PCtrlReqStatus->PUsbCtrlReq->bmRequestType.Direction == 0)       &&
                    (PCtrlReqStatus->PUsbCtrlReq->bmRequestType.RequestType == 1)     &&
                    (PCtrlReqStatus->PUsbCtrlReq->wIndex.Value == 0)                  &&
                    (PCtrlReqStatus->PUsbCtrlReq->wValue.Value == 0)                  &&
                    (PCtrlReqStatus->PUsbCtrlReq->wLength == 0))
        {
 100037c:	00000506 	br	1000394 <HandleClassSpecificControlRequests+0x164>
            IOWR_32DIRECT(base, 0x60, csr | 0x00800000);
        }
        else
        {
//            printf("Bad control request\n");
            int csr = IORD_32DIRECT(base, 0x40);
 1000380:	d8800017 	ldw	r2,0(sp)
 1000384:	10801037 	ldwio	r2,64(r2)
            IOWR_32DIRECT(base, 0x40, csr | 0x00800000);
 1000388:	d8c00017 	ldw	r3,0(sp)
 100038c:	10802034 	orhi	r2,r2,128
 1000390:	18801035 	stwio	r2,64(r3)
        }
    }
}
 1000394:	dec00104 	addi	sp,sp,4
 1000398:	f800283a 	ret

0100039c <usb20sr_error_event>:

#define PRINTF_USB_EVENT(str,...) printf(str,##__VA_ARGS__)

void usb20sr_error_event(int event)
{
	volatile int data = event & ERROR_CODE_MASK;
 100039c:	00800834 	movhi	r2,32
 10003a0:	10a3ffc4 	addi	r2,r2,-28673
}

#define PRINTF_USB_EVENT(str,...) printf(str,##__VA_ARGS__)

void usb20sr_error_event(int event)
{
 10003a4:	defffd04 	addi	sp,sp,-12
	volatile int data = event & ERROR_CODE_MASK;
 10003a8:	2084703a 	and	r2,r4,r2
}

#define PRINTF_USB_EVENT(str,...) printf(str,##__VA_ARGS__)

void usb20sr_error_event(int event)
{
 10003ac:	dc000115 	stw	r16,4(sp)
	volatile int data = event & ERROR_CODE_MASK;
 10003b0:	d8800015 	stw	r2,0(sp)
}

#define PRINTF_USB_EVENT(str,...) printf(str,##__VA_ARGS__)

void usb20sr_error_event(int event)
{
 10003b4:	dfc00215 	stw	ra,8(sp)
	volatile int data = event & ERROR_CODE_MASK;

	if(event & EP_NO_FROM_GENERATED_ERROR_MASK)
 10003b8:	20b3c02c 	andhi	r2,r4,52992
}

#define PRINTF_USB_EVENT(str,...) printf(str,##__VA_ARGS__)

void usb20sr_error_event(int event)
{
 10003bc:	2021883a 	mov	r16,r4
	volatile int data = event & ERROR_CODE_MASK;

	if(event & EP_NO_FROM_GENERATED_ERROR_MASK)
 10003c0:	10001626 	beq	r2,zero,100041c <usb20sr_error_event+0x80>
	{
		if(((event & EP_TYPE_MASK) >> 30) == IN_EP_TYPE)
 10003c4:	2004d7ba 	srli	r2,r4,30
 10003c8:	00c00044 	movi	r3,1
 10003cc:	10c0031e 	bne	r2,r3,10003dc <usb20sr_error_event+0x40>
			PRINTF_USB_EVENT("IN ");
 10003d0:	01004074 	movhi	r4,257
 10003d4:	21080804 	addi	r4,r4,8224
 10003d8:	00000906 	br	1000400 <usb20sr_error_event+0x64>
		else if(((event & EP_TYPE_MASK) >> 30) == OUT_EP_TYPE)
 10003dc:	00c00084 	movi	r3,2
 10003e0:	10c0031e 	bne	r2,r3,10003f0 <usb20sr_error_event+0x54>
			PRINTF_USB_EVENT("OUT ");
 10003e4:	01004074 	movhi	r4,257
 10003e8:	21080904 	addi	r4,r4,8228
 10003ec:	00000406 	br	1000400 <usb20sr_error_event+0x64>
		else if(((event & EP_TYPE_MASK) >> 30) == CONTROL_EP_TYPE)
 10003f0:	00c000c4 	movi	r3,3
 10003f4:	10c0031e 	bne	r2,r3,1000404 <usb20sr_error_event+0x68>
			PRINTF_USB_EVENT("CONTROL ");
 10003f8:	01004074 	movhi	r4,257
 10003fc:	21080b04 	addi	r4,r4,8236
 1000400:	1010a380 	call	1010a38 <printf>

		PRINTF_USB_EVENT("Endpoint %d cause ", (event & EP_NO_MASK) >> 24);
 1000404:	8143c02c 	andhi	r5,r16,3840
 1000408:	280ad63a 	srli	r5,r5,24
 100040c:	01004074 	movhi	r4,257
 1000410:	21080e04 	addi	r4,r4,8248
 1000414:	1010a380 	call	1010a38 <printf>
 1000418:	00000306 	br	1000428 <usb20sr_error_event+0x8c>
	}
	else
		PRINTF_USB_EVENT("\nUSB cause ");
 100041c:	01004074 	movhi	r4,257
 1000420:	21081304 	addi	r4,r4,8268
 1000424:	1010a380 	call	1010a38 <printf>

	if(data & TIME_OUT_ERROR)
 1000428:	d8800017 	ldw	r2,0(sp)
 100042c:	1080004c 	andi	r2,r2,1
 1000430:	10000326 	beq	r2,zero,1000440 <usb20sr_error_event+0xa4>
		PRINTF_USB_EVENT("TIME_OUT_ERROR\n");
 1000434:	01004074 	movhi	r4,257
 1000438:	21081604 	addi	r4,r4,8280
 100043c:	1010b240 	call	1010b24 <puts>

	if(data & BAD_PCK_ERROR)
 1000440:	d8800017 	ldw	r2,0(sp)
 1000444:	1080008c 	andi	r2,r2,2
 1000448:	10000326 	beq	r2,zero,1000458 <usb20sr_error_event+0xbc>
		PRINTF_USB_EVENT("BAD_PCK_ERROR\n");
 100044c:	01004074 	movhi	r4,257
 1000450:	21081a04 	addi	r4,r4,8296
 1000454:	1010b240 	call	1010b24 <puts>

	if(data & UNEXPTED_PID_ERROR)
 1000458:	d8800017 	ldw	r2,0(sp)
 100045c:	1080010c 	andi	r2,r2,4
 1000460:	10000326 	beq	r2,zero,1000470 <usb20sr_error_event+0xd4>
		PRINTF_USB_EVENT("UNEXPECTED_PID_ERROR\n");
 1000464:	01004074 	movhi	r4,257
 1000468:	21081e04 	addi	r4,r4,8312
 100046c:	1010b240 	call	1010b24 <puts>

	if(data & PID_SEQ_ERROR)
 1000470:	d8800017 	ldw	r2,0(sp)
 1000474:	1080080c 	andi	r2,r2,32
 1000478:	10000326 	beq	r2,zero,1000488 <usb20sr_error_event+0xec>
		PRINTF_USB_EVENT("PID_SEQ_ERROR\n");
 100047c:	01004074 	movhi	r4,257
 1000480:	21082404 	addi	r4,r4,8336
 1000484:	1010b240 	call	1010b24 <puts>

	if(data & BAD_TCKN_ERROR)
 1000488:	d8800017 	ldw	r2,0(sp)
 100048c:	1080400c 	andi	r2,r2,256
 1000490:	10000326 	beq	r2,zero,10004a0 <usb20sr_error_event+0x104>
		PRINTF_USB_EVENT("BAD_TCKN_ERROR\n");
 1000494:	01004074 	movhi	r4,257
 1000498:	21082804 	addi	r4,r4,8352
 100049c:	1010b240 	call	1010b24 <puts>

	if(data & PID_ERROR)
 10004a0:	d8800017 	ldw	r2,0(sp)
 10004a4:	1080800c 	andi	r2,r2,512
 10004a8:	10000326 	beq	r2,zero,10004b8 <usb20sr_error_event+0x11c>
		PRINTF_USB_EVENT("PID_ERROR\n");
 10004ac:	01004074 	movhi	r4,257
 10004b0:	21082c04 	addi	r4,r4,8368
 10004b4:	1010b240 	call	1010b24 <puts>

	if(data & NO_EP_ERROR)
 10004b8:	d8800017 	ldw	r2,0(sp)
 10004bc:	1081000c 	andi	r2,r2,1024
 10004c0:	10000326 	beq	r2,zero,10004d0 <usb20sr_error_event+0x134>
		PRINTF_USB_EVENT("NO_EP_ERROR\n");
 10004c4:	01004074 	movhi	r4,257
 10004c8:	21082f04 	addi	r4,r4,8380
 10004cc:	1010b240 	call	1010b24 <puts>

	if(data & UTMI_RX_ERROR)
 10004d0:	d8800017 	ldw	r2,0(sp)
 10004d4:	10a0000c 	andi	r2,r2,32768
 10004d8:	10000326 	beq	r2,zero,10004e8 <usb20sr_error_event+0x14c>
		PRINTF_USB_EVENT("UTMI_RX_ERROR\n");
 10004dc:	01004074 	movhi	r4,257
 10004e0:	21083204 	addi	r4,r4,8392
 10004e4:	1010b240 	call	1010b24 <puts>

	if(data & ISO_PKT_LOSS)
 10004e8:	d8800017 	ldw	r2,0(sp)
 10004ec:	1080200c 	andi	r2,r2,128
 10004f0:	10000326 	beq	r2,zero,1000500 <usb20sr_error_event+0x164>
		PRINTF_USB_EVENT("ISO_PKT_LOSS\n");
 10004f4:	01004074 	movhi	r4,257
 10004f8:	21083604 	addi	r4,r4,8408
 10004fc:	1010b240 	call	1010b24 <puts>
}
 1000500:	dfc00217 	ldw	ra,8(sp)
 1000504:	dc000117 	ldw	r16,4(sp)
 1000508:	dec00304 	addi	sp,sp,12
 100050c:	f800283a 	ret

01000510 <configure_usb20sr>:
sls_avalon_usb20sr_dev *pUsb20srDev;
sls_avalon_usb20sr_dev usb20srdev;

void configure_usb20sr(sls_avalon_usb20sr_dev *pUsb20srDev)
{
	usb_initialize_descriptor(pUsb20srDev,(unsigned char*)device_desc_,
 1000510:	00804074 	movhi	r2,257

sls_avalon_usb20sr_dev *pUsb20srDev;
sls_avalon_usb20sr_dev usb20srdev;

void configure_usb20sr(sls_avalon_usb20sr_dev *pUsb20srDev)
{
 1000514:	defff204 	addi	sp,sp,-56
	usb_initialize_descriptor(pUsb20srDev,(unsigned char*)device_desc_,
 1000518:	108baa04 	addi	r2,r2,11944
 100051c:	d8800015 	stw	r2,0(sp)
 1000520:	00800804 	movi	r2,32
 1000524:	d8800115 	stw	r2,4(sp)
 1000528:	d8800215 	stw	r2,8(sp)
 100052c:	d8800315 	stw	r2,12(sp)
 1000530:	00804074 	movhi	r2,257
 1000534:	108ba404 	addi	r2,r2,11920
 1000538:	d8800415 	stw	r2,16(sp)
 100053c:	00804074 	movhi	r2,257
 1000540:	108b8f84 	addi	r2,r2,11838
 1000544:	d8800515 	stw	r2,20(sp)
 1000548:	00800604 	movi	r2,24
 100054c:	d8800615 	stw	r2,24(sp)
 1000550:	00804074 	movhi	r2,257
 1000554:	108b8d04 	addi	r2,r2,11828
 1000558:	d8800715 	stw	r2,28(sp)
 100055c:	00804074 	movhi	r2,257
 1000560:	108b8504 	addi	r2,r2,11796
 1000564:	d8800815 	stw	r2,32(sp)
 1000568:	00804074 	movhi	r2,257
 100056c:	108b7d04 	addi	r2,r2,11764
 1000570:	01404074 	movhi	r5,257
 1000574:	01804074 	movhi	r6,257
 1000578:	01c04074 	movhi	r7,257
 100057c:	d8800915 	stw	r2,36(sp)
 1000580:	294bc204 	addi	r5,r5,12040
 1000584:	318bba04 	addi	r6,r6,12008
 1000588:	39cbb204 	addi	r7,r7,11976

sls_avalon_usb20sr_dev *pUsb20srDev;
sls_avalon_usb20sr_dev usb20srdev;

void configure_usb20sr(sls_avalon_usb20sr_dev *pUsb20srDev)
{
 100058c:	dfc00d15 	stw	ra,52(sp)
 1000590:	dc400c15 	stw	r17,48(sp)
 1000594:	dc000b15 	stw	r16,44(sp)
 1000598:	2021883a 	mov	r16,r4
	usb_initialize_descriptor(pUsb20srDev,(unsigned char*)device_desc_,
 100059c:	10090200 	call	1009020 <usb_initialize_descriptor>
										  sizeof(str_desc_indexes_),
										  (unsigned char*)device_quali_desc_,
										  (unsigned char*)other_speed_conf_desc_hs_,
										  (unsigned char*)other_speed_conf_desc_fs_);

	usb_ep_config(      pUsb20srDev,    SUPPORTED_CONF,     supported_ep_,      ep_ip_csr_hs_,      ep_ip_csr_fs_,		ep_ip_csr_ls_,
 10005a0:	00804074 	movhi	r2,257
 10005a4:	108b5f04 	addi	r2,r2,11644
 10005a8:	d8800015 	stw	r2,0(sp)
 10005ac:	00804074 	movhi	r2,257
 10005b0:	108b5004 	addi	r2,r2,11584
 10005b4:	d8800115 	stw	r2,4(sp)
 10005b8:	00804074 	movhi	r2,257
 10005bc:	108b4104 	addi	r2,r2,11524
 10005c0:	d8800215 	stw	r2,8(sp)
 10005c4:	00804074 	movhi	r2,257
 10005c8:	108b3204 	addi	r2,r2,11464
 10005cc:	d8800315 	stw	r2,12(sp)
 10005d0:	00804074 	movhi	r2,257
 10005d4:	108b2304 	addi	r2,r2,11404
 10005d8:	d8800415 	stw	r2,16(sp)
 10005dc:	00804074 	movhi	r2,257
 10005e0:	108b1404 	addi	r2,r2,11344
 10005e4:	d8800515 	stw	r2,20(sp)
 10005e8:	00804074 	movhi	r2,257
 10005ec:	108b0504 	addi	r2,r2,11284
 10005f0:	d8800615 	stw	r2,24(sp)
 10005f4:	00804074 	movhi	r2,257
 10005f8:	108af604 	addi	r2,r2,11224
 10005fc:	d8800715 	stw	r2,28(sp)
 1000600:	00804074 	movhi	r2,257
 1000604:	108ae704 	addi	r2,r2,11164
 1000608:	d8800815 	stw	r2,32(sp)
 100060c:	00804074 	movhi	r2,257
 1000610:	108ad804 	addi	r2,r2,11104
 1000614:	d8800915 	stw	r2,36(sp)
 1000618:	00804074 	movhi	r2,257
 100061c:	108ac904 	addi	r2,r2,11044
 1000620:	04400044 	movi	r17,1
 1000624:	01c04074 	movhi	r7,257
 1000628:	d8800a15 	stw	r2,40(sp)
 100062c:	8009883a 	mov	r4,r16
 1000630:	880b883a 	mov	r5,r17
 1000634:	d1a00004 	addi	r6,gp,-32768
 1000638:	39cb6e04 	addi	r7,r7,11704
 100063c:	10091180 	call	1009118 <usb_ep_config>
						ep_buf0_sz_hs_, ep_buf1_sz_hs_,     ep_buf0_sz_fs_,     ep_buf1_sz_fs_, 	ep_buf0_sz_ls_, 	ep_buf1_sz_ls_,
						ep_ip_int_hs,	ep_ip_int_fs,		ep_ip_int_ls     );
	
    //Use DMA/UDSC's BASE, IRQ & NAME from system.h file
	dma_config(pUsb20srDev, DMA_0_BASE, DMA_0_IRQ, DMA_0_NAME, DMA_FLAG);		     //set DMA_FLAG as 1 while using DMA
 1000640:	01400134 	movhi	r5,4
 1000644:	01c04074 	movhi	r7,257
 1000648:	8009883a 	mov	r4,r16
 100064c:	dc400015 	stw	r17,0(sp)
 1000650:	29442004 	addi	r5,r5,4224
 1000654:	018000c4 	movi	r6,3
 1000658:	39c83a04 	addi	r7,r7,8424
 100065c:	10091ec0 	call	10091ec <dma_config>
	//dma_config(pUsb20srDev, UDSC_0_BASE, UDSC_0_IRQ, UDSC_0_NAME, DMA_FLAG);	 //set DMA_FLAG as 0 while using UDSC

	usb20_event_isr(pUsb20srDev, USB_Attached_Event, USB_Detached_Event, USB_Reset_Event, USB_Resume_Event, USB_Suspend_Event, USB_WakeUpCfg_Event);
 1000660:	00804034 	movhi	r2,256
 1000664:	10808604 	addi	r2,r2,536
 1000668:	d8800015 	stw	r2,0(sp)
 100066c:	00804034 	movhi	r2,256
 1000670:	10808904 	addi	r2,r2,548
 1000674:	d8800115 	stw	r2,4(sp)
 1000678:	00804034 	movhi	r2,256
 100067c:	10807504 	addi	r2,r2,468
 1000680:	01404034 	movhi	r5,256
 1000684:	01804034 	movhi	r6,256
 1000688:	01c04034 	movhi	r7,256
 100068c:	d8800215 	stw	r2,8(sp)
 1000690:	8009883a 	mov	r4,r16
 1000694:	29407d04 	addi	r5,r5,500
 1000698:	31808004 	addi	r6,r6,512
 100069c:	39c08304 	addi	r7,r7,524
 10006a0:	100cd580 	call	100cd58 <usb20_event_isr>

	if(usb20sr_config(pUsb20srDev, USB20SR_BASE, USB20SR_IRQ, USB20SR_NAME, usb20sr_error_event, HandleClassSpecificControlRequests, HandleClassSpecificDescriptorRequests))
 10006a4:	00804034 	movhi	r2,256
 10006a8:	1080e704 	addi	r2,r2,924
 10006ac:	d8800015 	stw	r2,0(sp)
 10006b0:	00804034 	movhi	r2,256
 10006b4:	10808c04 	addi	r2,r2,560
 10006b8:	d8800115 	stw	r2,4(sp)
 10006bc:	00804034 	movhi	r2,256
 10006c0:	10807604 	addi	r2,r2,472
 10006c4:	01c04074 	movhi	r7,257
 10006c8:	d8800215 	stw	r2,8(sp)
 10006cc:	8009883a 	mov	r4,r16
 10006d0:	01400834 	movhi	r5,32
 10006d4:	01800084 	movi	r6,2
 10006d8:	39c83d04 	addi	r7,r7,8436
 10006dc:	100cc1c0 	call	100cc1c <usb20sr_config>
	{}
}
 10006e0:	dfc00d17 	ldw	ra,52(sp)
 10006e4:	dc400c17 	ldw	r17,48(sp)
 10006e8:	dc000b17 	ldw	r16,44(sp)
 10006ec:	dec00e04 	addi	sp,sp,56
 10006f0:	f800283a 	ret

010006f4 <USB_SOFRecved_Event>:
void USB_WakeUpCfg_Event(sls_avalon_usb20sr_dev *usb20dev, unsigned char cfg)
{
    //printf("\nWakeUpCfgEvent\n");
}
void USB_SOFRecved_Event(sls_avalon_usb20sr_dev *usb20dev)
{
 10006f4:	f800283a 	ret

010006f8 <main>:
	if(usb20sr_config(pUsb20srDev, USB20SR_BASE, USB20SR_IRQ, USB20SR_NAME, usb20sr_error_event, HandleClassSpecificControlRequests, HandleClassSpecificDescriptorRequests))
	{}
}

int main()
{
 10006f8:	023ffff4 	movhi	r8,65535
 10006fc:	421ffa04 	addi	r8,r8,32744
 1000700:	deffff04 	addi	sp,sp,-4
   	pUsb20srDev = &usb20srdev;
 1000704:	01004074 	movhi	r4,257
	if(usb20sr_config(pUsb20srDev, USB20SR_BASE, USB20SR_IRQ, USB20SR_NAME, usb20sr_error_event, HandleClassSpecificControlRequests, HandleClassSpecificDescriptorRequests))
	{}
}

int main()
{
 1000708:	dfc00015 	stw	ra,0(sp)
   	pUsb20srDev = &usb20srdev;
 100070c:	210e0004 	addi	r4,r4,14336
	if(usb20sr_config(pUsb20srDev, USB20SR_BASE, USB20SR_IRQ, USB20SR_NAME, usb20sr_error_event, HandleClassSpecificControlRequests, HandleClassSpecificDescriptorRequests))
	{}
}

int main()
{
 1000710:	da37883a 	add	sp,sp,r8
   	pUsb20srDev = &usb20srdev;
 1000714:	d1218615 	stw	r4,-31208(gp)

	configure_usb20sr(pUsb20srDev);
 1000718:	10005100 	call	1000510 <configure_usb20sr>

	usb20sr_disconnect(pUsb20srDev);
 100071c:	d1218617 	ldw	r4,-31208(gp)
 1000720:	1009da80 	call	1009da8 <usb20sr_disconnect>

	//usb20sr_set_dev_speed(pUsb20srDev, 0);     //Connect device in the full speed(0)/high speed(1) mode

	usb20sr_connect(pUsb20srDev);
 1000724:	d1218617 	ldw	r4,-31208(gp)
 1000728:	1009d400 	call	1009d40 <usb20sr_connect>

    printf("Connect USB Device..! \n");
 100072c:	01004074 	movhi	r4,257
 1000730:	21084104 	addi	r4,r4,8452
 1000734:	1010b240 	call	1010b24 <puts>
	while(!(ifConfigured(pUsb20srDev)));//Check whether device is Configured or not
 1000738:	d1218617 	ldw	r4,-31208(gp)
 100073c:	1008eb00 	call	1008eb0 <ifConfigured>
 1000740:	10803fcc 	andi	r2,r2,255
 1000744:	1080201c 	xori	r2,r2,128
 1000748:	10bfe004 	addi	r2,r2,-128
 100074c:	103ffa26 	beq	r2,zero,1000738 <__alt_data_end+0xfffdff38>
	printf("Device Configured \n");
 1000750:	01004074 	movhi	r4,257
 1000754:	21084704 	addi	r4,r4,8476
 1000758:	1010b240 	call	1010b24 <puts>

	SD_INFO MemInterfaceInfo = {0};
 100075c:	01a00614 	movui	r6,32792
 1000760:	d809883a 	mov	r4,sp
 1000764:	000b883a 	mov	r5,zero
 1000768:	10109dc0 	call	10109dc <memset>
    InitSD((SD_INFO *)&MemInterfaceInfo);
 100076c:	d809883a 	mov	r4,sp
 1000770:	10008a80 	call	10008a8 <InitSD>
    
    MassStorage_Main((SD_INFO *)&MemInterfaceInfo, pUsb20srDev);
 1000774:	d1618617 	ldw	r5,-31208(gp)
 1000778:	d809883a 	mov	r4,sp
 100077c:	10009d40 	call	10009d4 <MassStorage_Main>

    return 0;
}
 1000780:	0005883a 	mov	r2,zero
 1000784:	02200614 	movui	r8,32792
 1000788:	da37883a 	add	sp,sp,r8
 100078c:	dfc00017 	ldw	ra,0(sp)
 1000790:	dec00104 	addi	sp,sp,4
 1000794:	f800283a 	ret

01000798 <SD_card_init>:
 1000798:	defffe04 	addi	sp,sp,-8
 100079c:	df000115 	stw	fp,4(sp)
 10007a0:	df000104 	addi	fp,sp,4
 10007a4:	e13fff15 	stw	r4,-4(fp)
 10007a8:	00804074 	movhi	r2,257
 10007ac:	108dc804 	addi	r2,r2,14112
 10007b0:	10800017 	ldw	r2,0(r2)
 10007b4:	10800704 	addi	r2,r2,28
 10007b8:	10800037 	ldwio	r2,0(r2)
 10007bc:	1090000c 	andi	r2,r2,16384
 10007c0:	10001026 	beq	r2,zero,1000804 <SD_card_init+0x6c>
 10007c4:	00804074 	movhi	r2,257
 10007c8:	108dc804 	addi	r2,r2,14112
 10007cc:	10801c17 	ldw	r2,112(r2)
 10007d0:	1007883a 	mov	r3,r2
 10007d4:	00800044 	movi	r2,1
 10007d8:	10c4983a 	sll	r2,r2,r3
 10007dc:	1007883a 	mov	r3,r2
 10007e0:	e0bfff17 	ldw	r2,-4(fp)
 10007e4:	10c00215 	stw	r3,8(r2)
 10007e8:	00804074 	movhi	r2,257
 10007ec:	108dc804 	addi	r2,r2,14112
 10007f0:	10c01e17 	ldw	r3,120(r2)
 10007f4:	e0bfff17 	ldw	r2,-4(fp)
 10007f8:	10c00015 	stw	r3,0(r2)
 10007fc:	0005883a 	mov	r2,zero
 1000800:	00000106 	br	1000808 <SD_card_init+0x70>
 1000804:	00800044 	movi	r2,1
 1000808:	e037883a 	mov	sp,fp
 100080c:	df000017 	ldw	fp,0(sp)
 1000810:	dec00104 	addi	sp,sp,4
 1000814:	f800283a 	ret

01000818 <sd_write>:
 1000818:	defffb04 	addi	sp,sp,-20
 100081c:	dfc00415 	stw	ra,16(sp)
 1000820:	df000315 	stw	fp,12(sp)
 1000824:	df000304 	addi	fp,sp,12
 1000828:	e13ffd15 	stw	r4,-12(fp)
 100082c:	e17ffe15 	stw	r5,-8(fp)
 1000830:	e1bfff15 	stw	r6,-4(fp)
 1000834:	01004074 	movhi	r4,257
 1000838:	210dc804 	addi	r4,r4,14112
 100083c:	e17ffd17 	ldw	r5,-12(fp)
 1000840:	e1bffe17 	ldw	r6,-8(fp)
 1000844:	e1ffff17 	ldw	r7,-4(fp)
 1000848:	1007bfc0 	call	1007bfc <sdhc_write>
 100084c:	e037883a 	mov	sp,fp
 1000850:	dfc00117 	ldw	ra,4(sp)
 1000854:	df000017 	ldw	fp,0(sp)
 1000858:	dec00204 	addi	sp,sp,8
 100085c:	f800283a 	ret

01000860 <sd_read>:
 1000860:	defffb04 	addi	sp,sp,-20
 1000864:	dfc00415 	stw	ra,16(sp)
 1000868:	df000315 	stw	fp,12(sp)
 100086c:	df000304 	addi	fp,sp,12
 1000870:	e13ffd15 	stw	r4,-12(fp)
 1000874:	e17ffe15 	stw	r5,-8(fp)
 1000878:	e1bfff15 	stw	r6,-4(fp)
 100087c:	01004074 	movhi	r4,257
 1000880:	210dc804 	addi	r4,r4,14112
 1000884:	e17ffd17 	ldw	r5,-12(fp)
 1000888:	e1bffe17 	ldw	r6,-8(fp)
 100088c:	e1ffff17 	ldw	r7,-4(fp)
 1000890:	1007a6c0 	call	1007a6c <sdhc_read>
 1000894:	e037883a 	mov	sp,fp
 1000898:	dfc00117 	ldw	ra,4(sp)
 100089c:	df000017 	ldw	fp,0(sp)
 10008a0:	dec00204 	addi	sp,sp,8
 10008a4:	f800283a 	ret

010008a8 <InitSD>:
 10008a8:	defffd04 	addi	sp,sp,-12
 10008ac:	dfc00215 	stw	ra,8(sp)
 10008b0:	df000115 	stw	fp,4(sp)
 10008b4:	df000104 	addi	fp,sp,4
 10008b8:	e13fff15 	stw	r4,-4(fp)
 10008bc:	00804074 	movhi	r2,257
 10008c0:	108dc804 	addi	r2,r2,14112
 10008c4:	00c04034 	movhi	r3,256
 10008c8:	18fffc04 	addi	r3,r3,-16
 10008cc:	10c02115 	stw	r3,132(r2)
 10008d0:	00804074 	movhi	r2,257
 10008d4:	108dc804 	addi	r2,r2,14112
 10008d8:	00c40034 	movhi	r3,4096
 10008dc:	18fffc04 	addi	r3,r3,-16
 10008e0:	10c02215 	stw	r3,136(r2)
 10008e4:	00804074 	movhi	r2,257
 10008e8:	108dc804 	addi	r2,r2,14112
 10008ec:	00c04034 	movhi	r3,256
 10008f0:	18fffc04 	addi	r3,r3,-16
 10008f4:	10c02315 	stw	r3,140(r2)
 10008f8:	00804074 	movhi	r2,257
 10008fc:	108dc804 	addi	r2,r2,14112
 1000900:	00c04034 	movhi	r3,256
 1000904:	18e00004 	addi	r3,r3,-32768
 1000908:	10c02015 	stw	r3,128(r2)
 100090c:	00804074 	movhi	r2,257
 1000910:	108dc804 	addi	r2,r2,14112
 1000914:	00c17db4 	movhi	r3,1526
 1000918:	18f84004 	addi	r3,r3,-7936
 100091c:	10c02415 	stw	r3,144(r2)
 1000920:	01004074 	movhi	r4,257
 1000924:	210dc804 	addi	r4,r4,14112
 1000928:	01400134 	movhi	r5,4
 100092c:	29440004 	addi	r5,r5,4096
 1000930:	01800104 	movi	r6,4
 1000934:	1002cd40 	call	1002cd4 <sdhc_init>
 1000938:	1000050e 	bge	r2,zero,1000950 <InitSD+0xa8>
 100093c:	01004074 	movhi	r4,257
 1000940:	21084c04 	addi	r4,r4,8496
 1000944:	1010b240 	call	1010b24 <puts>
 1000948:	00bffd84 	movi	r2,-10
 100094c:	00001c06 	br	10009c0 <InitSD+0x118>
 1000950:	01004074 	movhi	r4,257
 1000954:	210dc804 	addi	r4,r4,14112
 1000958:	01400044 	movi	r5,1
 100095c:	10076d80 	call	10076d8 <sdhc_mode_select>
 1000960:	1000050e 	bge	r2,zero,1000978 <InitSD+0xd0>
 1000964:	01004074 	movhi	r4,257
 1000968:	21085104 	addi	r4,r4,8516
 100096c:	1010b240 	call	1010b24 <puts>
 1000970:	00bffd84 	movi	r2,-10
 1000974:	00001206 	br	10009c0 <InitSD+0x118>
 1000978:	01004074 	movhi	r4,257
 100097c:	210dc804 	addi	r4,r4,14112
 1000980:	10072a00 	call	10072a0 <sdhc_set_high_speed_mode>
 1000984:	00804074 	movhi	r2,257
 1000988:	108dc804 	addi	r2,r2,14112
 100098c:	10801c17 	ldw	r2,112(r2)
 1000990:	1007883a 	mov	r3,r2
 1000994:	00800044 	movi	r2,1
 1000998:	10c4983a 	sll	r2,r2,r3
 100099c:	1007883a 	mov	r3,r2
 10009a0:	e0bfff17 	ldw	r2,-4(fp)
 10009a4:	10c00215 	stw	r3,8(r2)
 10009a8:	00804074 	movhi	r2,257
 10009ac:	108dc804 	addi	r2,r2,14112
 10009b0:	10c01e17 	ldw	r3,120(r2)
 10009b4:	e0bfff17 	ldw	r2,-4(fp)
 10009b8:	10c00015 	stw	r3,0(r2)
 10009bc:	0005883a 	mov	r2,zero
 10009c0:	e037883a 	mov	sp,fp
 10009c4:	dfc00117 	ldw	ra,4(sp)
 10009c8:	df000017 	ldw	fp,0(sp)
 10009cc:	dec00204 	addi	sp,sp,8
 10009d0:	f800283a 	ret

010009d4 <MassStorage_Main>:
 10009d4:	defffc04 	addi	sp,sp,-16
 10009d8:	dfc00315 	stw	ra,12(sp)
 10009dc:	df000215 	stw	fp,8(sp)
 10009e0:	df000204 	addi	fp,sp,8
 10009e4:	e13ffe15 	stw	r4,-8(fp)
 10009e8:	e17fff15 	stw	r5,-4(fp)
 10009ec:	e13fff17 	ldw	r4,-4(fp)
 10009f0:	1000a500 	call	1000a50 <CommandTransport>
 10009f4:	1000011e 	bne	r2,zero,10009fc <MassStorage_Main+0x28>
 10009f8:	003ffc06 	br	10009ec <__alt_data_end+0xfffe01ec>
 10009fc:	00804074 	movhi	r2,257
 1000a00:	108df404 	addi	r2,r2,14288
 1000a04:	10800283 	ldbu	r2,10(r2)
 1000a08:	10803fcc 	andi	r2,r2,255
 1000a0c:	10000c26 	beq	r2,zero,1000a40 <MassStorage_Main+0x6c>
 1000a10:	00804074 	movhi	r2,257
 1000a14:	108df404 	addi	r2,r2,14288
 1000a18:	10800203 	ldbu	r2,8(r2)
 1000a1c:	10803fcc 	andi	r2,r2,255
 1000a20:	1000041e 	bne	r2,zero,1000a34 <MassStorage_Main+0x60>
 1000a24:	e13ffe17 	ldw	r4,-8(fp)
 1000a28:	e17fff17 	ldw	r5,-4(fp)
 1000a2c:	1000d000 	call	1000d00 <Data_Out>
 1000a30:	00000306 	br	1000a40 <MassStorage_Main+0x6c>
 1000a34:	e13ffe17 	ldw	r4,-8(fp)
 1000a38:	e17fff17 	ldw	r5,-4(fp)
 1000a3c:	10012f00 	call	10012f0 <Data_In>
 1000a40:	e13ffe17 	ldw	r4,-8(fp)
 1000a44:	e17fff17 	ldw	r5,-4(fp)
 1000a48:	1001b800 	call	1001b80 <StatusTransport>
 1000a4c:	003fe706 	br	10009ec <__alt_data_end+0xfffe01ec>

01000a50 <CommandTransport>:
 1000a50:	defff204 	addi	sp,sp,-56
 1000a54:	dfc00d15 	stw	ra,52(sp)
 1000a58:	df000c15 	stw	fp,48(sp)
 1000a5c:	df000c04 	addi	fp,sp,48
 1000a60:	e13fff15 	stw	r4,-4(fp)
 1000a64:	e0bfff17 	ldw	r2,-4(fp)
 1000a68:	10801517 	ldw	r2,84(r2)
 1000a6c:	e0bff515 	stw	r2,-44(fp)
 1000a70:	e03ff615 	stw	zero,-40(fp)
 1000a74:	0001883a 	nop
 1000a78:	e0bfff17 	ldw	r2,-4(fp)
 1000a7c:	10800e17 	ldw	r2,56(r2)
 1000a80:	103ffd1e 	bne	r2,zero,1000a78 <__alt_data_end+0xfffe0278>
 1000a84:	0001883a 	nop
 1000a88:	e13fff17 	ldw	r4,-4(fp)
 1000a8c:	01400084 	movi	r5,2
 1000a90:	100e7d40 	call	100e7d4 <usb20sr_check_bo_ready>
 1000a94:	e0bff615 	stw	r2,-40(fp)
 1000a98:	103ffb16 	blt	r2,zero,1000a88 <__alt_data_end+0xfffe0288>
 1000a9c:	e0fff617 	ldw	r3,-40(fp)
 1000aa0:	e1bff704 	addi	r6,fp,-36
 1000aa4:	00800044 	movi	r2,1
 1000aa8:	d8800015 	stw	r2,0(sp)
 1000aac:	e13fff17 	ldw	r4,-4(fp)
 1000ab0:	01400084 	movi	r5,2
 1000ab4:	180f883a 	mov	r7,r3
 1000ab8:	100e05c0 	call	100e05c <usb20sr_with_dma_read>
 1000abc:	e0bff615 	stw	r2,-40(fp)
 1000ac0:	e0bff704 	addi	r2,fp,-36
 1000ac4:	01004074 	movhi	r4,257
 1000ac8:	210df404 	addi	r4,r4,14288
 1000acc:	100b883a 	mov	r5,r2
 1000ad0:	01800104 	movi	r6,4
 1000ad4:	10109b40 	call	10109b4 <memcpy>
 1000ad8:	e0fff704 	addi	r3,fp,-36
 1000adc:	18c00104 	addi	r3,r3,4
 1000ae0:	00804074 	movhi	r2,257
 1000ae4:	108df404 	addi	r2,r2,14288
 1000ae8:	19000003 	ldbu	r4,0(r3)
 1000aec:	110006c5 	stb	r4,27(r2)
 1000af0:	19000043 	ldbu	r4,1(r3)
 1000af4:	11000705 	stb	r4,28(r2)
 1000af8:	19000083 	ldbu	r4,2(r3)
 1000afc:	11000745 	stb	r4,29(r2)
 1000b00:	18c000c3 	ldbu	r3,3(r3)
 1000b04:	10c00785 	stb	r3,30(r2)
 1000b08:	01004074 	movhi	r4,257
 1000b0c:	210dfd04 	addi	r4,r4,14324
 1000b10:	01404074 	movhi	r5,257
 1000b14:	294dfac4 	addi	r5,r5,14315
 1000b18:	01800104 	movi	r6,4
 1000b1c:	10109b40 	call	10109b4 <memcpy>
 1000b20:	e0bff903 	ldbu	r2,-28(fp)
 1000b24:	10c03fcc 	andi	r3,r2,255
 1000b28:	e0bff943 	ldbu	r2,-27(fp)
 1000b2c:	10803fcc 	andi	r2,r2,255
 1000b30:	1004923a 	slli	r2,r2,8
 1000b34:	1886b03a 	or	r3,r3,r2
 1000b38:	e0bff983 	ldbu	r2,-26(fp)
 1000b3c:	10803fcc 	andi	r2,r2,255
 1000b40:	1004943a 	slli	r2,r2,16
 1000b44:	1886b03a 	or	r3,r3,r2
 1000b48:	e0bff9c3 	ldbu	r2,-25(fp)
 1000b4c:	10803fcc 	andi	r2,r2,255
 1000b50:	1004963a 	slli	r2,r2,24
 1000b54:	1884b03a 	or	r2,r3,r2
 1000b58:	1007883a 	mov	r3,r2
 1000b5c:	00804074 	movhi	r2,257
 1000b60:	108df404 	addi	r2,r2,14288
 1000b64:	10c00115 	stw	r3,4(r2)
 1000b68:	e0fffa03 	ldbu	r3,-24(fp)
 1000b6c:	00804074 	movhi	r2,257
 1000b70:	108df404 	addi	r2,r2,14288
 1000b74:	10c00205 	stb	r3,8(r2)
 1000b78:	e0bffa43 	ldbu	r2,-23(fp)
 1000b7c:	108003cc 	andi	r2,r2,15
 1000b80:	1007883a 	mov	r3,r2
 1000b84:	00804074 	movhi	r2,257
 1000b88:	108df404 	addi	r2,r2,14288
 1000b8c:	10c00245 	stb	r3,9(r2)
 1000b90:	e0bffa83 	ldbu	r2,-22(fp)
 1000b94:	108007cc 	andi	r2,r2,31
 1000b98:	1007883a 	mov	r3,r2
 1000b9c:	00804074 	movhi	r2,257
 1000ba0:	108df404 	addi	r2,r2,14288
 1000ba4:	10c00285 	stb	r3,10(r2)
 1000ba8:	00804074 	movhi	r2,257
 1000bac:	108df404 	addi	r2,r2,14288
 1000bb0:	10800283 	ldbu	r2,10(r2)
 1000bb4:	10c03fcc 	andi	r3,r2,255
 1000bb8:	e0bff704 	addi	r2,fp,-36
 1000bbc:	108003c4 	addi	r2,r2,15
 1000bc0:	01004074 	movhi	r4,257
 1000bc4:	210df6c4 	addi	r4,r4,14299
 1000bc8:	100b883a 	mov	r5,r2
 1000bcc:	180d883a 	mov	r6,r3
 1000bd0:	10109b40 	call	10109b4 <memcpy>
 1000bd4:	00804074 	movhi	r2,257
 1000bd8:	108df404 	addi	r2,r2,14288
 1000bdc:	10c00017 	ldw	r3,0(r2)
 1000be0:	0090d0b4 	movhi	r2,17218
 1000be4:	1094d544 	addi	r2,r2,21333
 1000be8:	1880031e 	bne	r3,r2,1000bf8 <CommandTransport+0x1a8>
 1000bec:	e0bff617 	ldw	r2,-40(fp)
 1000bf0:	108007e0 	cmpeqi	r2,r2,31
 1000bf4:	10003c1e 	bne	r2,zero,1000ce8 <CommandTransport+0x298>
 1000bf8:	e0bff517 	ldw	r2,-44(fp)
 1000bfc:	10801404 	addi	r2,r2,80
 1000c00:	10800037 	ldwio	r2,0(r2)
 1000c04:	d0a18815 	stw	r2,-31200(gp)
 1000c08:	e0bff517 	ldw	r2,-44(fp)
 1000c0c:	10801404 	addi	r2,r2,80
 1000c10:	1007883a 	mov	r3,r2
 1000c14:	d0a18817 	ldw	r2,-31200(gp)
 1000c18:	10802034 	orhi	r2,r2,128
 1000c1c:	18800035 	stwio	r2,0(r3)
 1000c20:	e0bff517 	ldw	r2,-44(fp)
 1000c24:	10801404 	addi	r2,r2,80
 1000c28:	10800037 	ldwio	r2,0(r2)
 1000c2c:	d0a18815 	stw	r2,-31200(gp)
 1000c30:	0001883a 	nop
 1000c34:	e0bff517 	ldw	r2,-44(fp)
 1000c38:	10801404 	addi	r2,r2,80
 1000c3c:	10800037 	ldwio	r2,0(r2)
 1000c40:	1080202c 	andhi	r2,r2,128
 1000c44:	103ffb1e 	bne	r2,zero,1000c34 <__alt_data_end+0xfffe0434>
 1000c48:	e0bff517 	ldw	r2,-44(fp)
 1000c4c:	10801404 	addi	r2,r2,80
 1000c50:	1007883a 	mov	r3,r2
 1000c54:	d0a18817 	ldw	r2,-31200(gp)
 1000c58:	10802034 	orhi	r2,r2,128
 1000c5c:	18800035 	stwio	r2,0(r3)
 1000c60:	e0fff617 	ldw	r3,-40(fp)
 1000c64:	e1bff704 	addi	r6,fp,-36
 1000c68:	00800044 	movi	r2,1
 1000c6c:	d8800015 	stw	r2,0(sp)
 1000c70:	e13fff17 	ldw	r4,-4(fp)
 1000c74:	01400084 	movi	r5,2
 1000c78:	180f883a 	mov	r7,r3
 1000c7c:	100e05c0 	call	100e05c <usb20sr_with_dma_read>
 1000c80:	e0bff615 	stw	r2,-40(fp)
 1000c84:	e0bff517 	ldw	r2,-44(fp)
 1000c88:	10801404 	addi	r2,r2,80
 1000c8c:	10800037 	ldwio	r2,0(r2)
 1000c90:	d0a18815 	stw	r2,-31200(gp)
 1000c94:	0001883a 	nop
 1000c98:	e0bff517 	ldw	r2,-44(fp)
 1000c9c:	10801404 	addi	r2,r2,80
 1000ca0:	10800037 	ldwio	r2,0(r2)
 1000ca4:	1080202c 	andhi	r2,r2,128
 1000ca8:	103ffb1e 	bne	r2,zero,1000c98 <__alt_data_end+0xfffe0498>
 1000cac:	e0bff517 	ldw	r2,-44(fp)
 1000cb0:	10801404 	addi	r2,r2,80
 1000cb4:	10800037 	ldwio	r2,0(r2)
 1000cb8:	d0a18815 	stw	r2,-31200(gp)
 1000cbc:	e0bff517 	ldw	r2,-44(fp)
 1000cc0:	10801404 	addi	r2,r2,80
 1000cc4:	1007883a 	mov	r3,r2
 1000cc8:	d0a18817 	ldw	r2,-31200(gp)
 1000ccc:	1009883a 	mov	r4,r2
 1000cd0:	00bfe034 	movhi	r2,65408
 1000cd4:	10bfffc4 	addi	r2,r2,-1
 1000cd8:	2084703a 	and	r2,r4,r2
 1000cdc:	18800035 	stwio	r2,0(r3)
 1000ce0:	0005883a 	mov	r2,zero
 1000ce4:	00000106 	br	1000cec <CommandTransport+0x29c>
 1000ce8:	00800044 	movi	r2,1
 1000cec:	e037883a 	mov	sp,fp
 1000cf0:	dfc00117 	ldw	ra,4(sp)
 1000cf4:	df000017 	ldw	fp,0(sp)
 1000cf8:	dec00204 	addi	sp,sp,8
 1000cfc:	f800283a 	ret

01000d00 <Data_Out>:
 1000d00:	deff7104 	addi	sp,sp,-572
 1000d04:	dfc08e15 	stw	ra,568(sp)
 1000d08:	df008d15 	stw	fp,564(sp)
 1000d0c:	df008d04 	addi	fp,sp,564
 1000d10:	e13ffe15 	stw	r4,-8(fp)
 1000d14:	e17fff15 	stw	r5,-4(fp)
 1000d18:	e0bfff17 	ldw	r2,-4(fp)
 1000d1c:	10801517 	ldw	r2,84(r2)
 1000d20:	e0bf7715 	stw	r2,-548(fp)
 1000d24:	e03f7815 	stw	zero,-544(fp)
 1000d28:	e03f7415 	stw	zero,-560(fp)
 1000d2c:	e03f790d 	sth	zero,-540(fp)
 1000d30:	e03f7515 	stw	zero,-556(fp)
 1000d34:	e0bffe17 	ldw	r2,-8(fp)
 1000d38:	e0bf7a15 	stw	r2,-536(fp)
 1000d3c:	00804074 	movhi	r2,257
 1000d40:	108df404 	addi	r2,r2,14288
 1000d44:	10800117 	ldw	r2,4(r2)
 1000d48:	10a00028 	cmpgeui	r2,r2,32768
 1000d4c:	1000031e 	bne	r2,zero,1000d5c <Data_Out+0x5c>
 1000d50:	00808004 	movi	r2,512
 1000d54:	e0bf7515 	stw	r2,-556(fp)
 1000d58:	00000206 	br	1000d64 <Data_Out+0x64>
 1000d5c:	00a00014 	movui	r2,32768
 1000d60:	e0bf7515 	stw	r2,-556(fp)
 1000d64:	00804074 	movhi	r2,257
 1000d68:	108df404 	addi	r2,r2,14288
 1000d6c:	10800117 	ldw	r2,4(r2)
 1000d70:	1009883a 	mov	r4,r2
 1000d74:	e17f7517 	ldw	r5,-556(fp)
 1000d78:	100f7c40 	call	100f7c4 <__udivsi3>
 1000d7c:	e0bf7b15 	stw	r2,-532(fp)
 1000d80:	00804074 	movhi	r2,257
 1000d84:	108df404 	addi	r2,r2,14288
 1000d88:	10800117 	ldw	r2,4(r2)
 1000d8c:	1009883a 	mov	r4,r2
 1000d90:	e17f7517 	ldw	r5,-556(fp)
 1000d94:	100f7cc0 	call	100f7cc <__umodsi3>
 1000d98:	e0bf7c15 	stw	r2,-528(fp)
 1000d9c:	00804074 	movhi	r2,257
 1000da0:	108df404 	addi	r2,r2,14288
 1000da4:	10800483 	ldbu	r2,18(r2)
 1000da8:	10803fcc 	andi	r2,r2,255
 1000dac:	1004923a 	slli	r2,r2,8
 1000db0:	1007883a 	mov	r3,r2
 1000db4:	e0bf790b 	ldhu	r2,-540(fp)
 1000db8:	1884b03a 	or	r2,r3,r2
 1000dbc:	e0bf790d 	sth	r2,-540(fp)
 1000dc0:	00804074 	movhi	r2,257
 1000dc4:	108df404 	addi	r2,r2,14288
 1000dc8:	108004c3 	ldbu	r2,19(r2)
 1000dcc:	10c03fcc 	andi	r3,r2,255
 1000dd0:	e0bf790b 	ldhu	r2,-540(fp)
 1000dd4:	1884b03a 	or	r2,r3,r2
 1000dd8:	e0bf790d 	sth	r2,-540(fp)
 1000ddc:	e0ff7d04 	addi	r3,fp,-524
 1000de0:	e0bffd04 	addi	r2,fp,-12
 1000de4:	1809883a 	mov	r4,r3
 1000de8:	100b883a 	mov	r5,r2
 1000dec:	e1bf7a17 	ldw	r6,-536(fp)
 1000df0:	100e9f40 	call	100e9f4 <SCSI_To_ATA_Translation>
 1000df4:	10800058 	cmpnei	r2,r2,1
 1000df8:	1000011e 	bne	r2,zero,1000e00 <Data_Out+0x100>
 1000dfc:	00013706 	br	10012dc <Data_Out+0x5dc>
 1000e00:	e0bffe17 	ldw	r2,-8(fp)
 1000e04:	10800317 	ldw	r2,12(r2)
 1000e08:	e0bf7615 	stw	r2,-552(fp)
 1000e0c:	00804074 	movhi	r2,257
 1000e10:	108df404 	addi	r2,r2,14288
 1000e14:	10800117 	ldw	r2,4(r2)
 1000e18:	1000f826 	beq	r2,zero,10011fc <Data_Out+0x4fc>
 1000e1c:	00804074 	movhi	r2,257
 1000e20:	108df404 	addi	r2,r2,14288
 1000e24:	108002c3 	ldbu	r2,11(r2)
 1000e28:	10803fcc 	andi	r2,r2,255
 1000e2c:	10800a98 	cmpnei	r2,r2,42
 1000e30:	1000f21e 	bne	r2,zero,10011fc <Data_Out+0x4fc>
 1000e34:	e0bf790b 	ldhu	r2,-540(fp)
 1000e38:	1004927a 	slli	r2,r2,9
 1000e3c:	1007883a 	mov	r3,r2
 1000e40:	00804074 	movhi	r2,257
 1000e44:	108df404 	addi	r2,r2,14288
 1000e48:	10800117 	ldw	r2,4(r2)
 1000e4c:	1880751e 	bne	r3,r2,1001024 <Data_Out+0x324>
 1000e50:	e0bf7b17 	ldw	r2,-532(fp)
 1000e54:	10004026 	beq	r2,zero,1000f58 <Data_Out+0x258>
 1000e58:	e03f7415 	stw	zero,-560(fp)
 1000e5c:	00003206 	br	1000f28 <Data_Out+0x228>
 1000e60:	e0bf7a17 	ldw	r2,-536(fp)
 1000e64:	10c00404 	addi	r3,r2,16
 1000e68:	e13f7a17 	ldw	r4,-536(fp)
 1000e6c:	00a00414 	movui	r2,32784
 1000e70:	2085883a 	add	r2,r4,r2
 1000e74:	10c00015 	stw	r3,0(r2)
 1000e78:	e0ff7a17 	ldw	r3,-536(fp)
 1000e7c:	00a00414 	movui	r2,32784
 1000e80:	1885883a 	add	r2,r3,r2
 1000e84:	11800017 	ldw	r6,0(r2)
 1000e88:	e0ff7517 	ldw	r3,-556(fp)
 1000e8c:	00800044 	movi	r2,1
 1000e90:	d8800015 	stw	r2,0(sp)
 1000e94:	e13fff17 	ldw	r4,-4(fp)
 1000e98:	01400084 	movi	r5,2
 1000e9c:	180f883a 	mov	r7,r3
 1000ea0:	100e05c0 	call	100e05c <usb20sr_with_dma_read>
 1000ea4:	e0bf7517 	ldw	r2,-556(fp)
 1000ea8:	e0bf7815 	stw	r2,-544(fp)
 1000eac:	e0ff7a17 	ldw	r3,-536(fp)
 1000eb0:	00a00414 	movui	r2,32784
 1000eb4:	1885883a 	add	r2,r3,r2
 1000eb8:	10c00017 	ldw	r3,0(r2)
 1000ebc:	e0bf7817 	ldw	r2,-544(fp)
 1000ec0:	1809883a 	mov	r4,r3
 1000ec4:	100b883a 	mov	r5,r2
 1000ec8:	10112d80 	call	10112d8 <alt_dcache_flush>
 1000ecc:	e13f7617 	ldw	r4,-552(fp)
 1000ed0:	e0bf7817 	ldw	r2,-544(fp)
 1000ed4:	1000010e 	bge	r2,zero,1000edc <Data_Out+0x1dc>
 1000ed8:	10807fc4 	addi	r2,r2,511
 1000edc:	1005d27a 	srai	r2,r2,9
 1000ee0:	100b883a 	mov	r5,r2
 1000ee4:	e0ff7a17 	ldw	r3,-536(fp)
 1000ee8:	00a00414 	movui	r2,32784
 1000eec:	1885883a 	add	r2,r3,r2
 1000ef0:	10800017 	ldw	r2,0(r2)
 1000ef4:	100d883a 	mov	r6,r2
 1000ef8:	10008180 	call	1000818 <sd_write>
 1000efc:	e0bf7817 	ldw	r2,-544(fp)
 1000f00:	1000010e 	bge	r2,zero,1000f08 <Data_Out+0x208>
 1000f04:	10807fc4 	addi	r2,r2,511
 1000f08:	1005d27a 	srai	r2,r2,9
 1000f0c:	1007883a 	mov	r3,r2
 1000f10:	e0bf7617 	ldw	r2,-552(fp)
 1000f14:	10c5883a 	add	r2,r2,r3
 1000f18:	e0bf7615 	stw	r2,-552(fp)
 1000f1c:	e0bf7417 	ldw	r2,-560(fp)
 1000f20:	10800044 	addi	r2,r2,1
 1000f24:	e0bf7415 	stw	r2,-560(fp)
 1000f28:	e0ff7417 	ldw	r3,-560(fp)
 1000f2c:	e0bf7b17 	ldw	r2,-532(fp)
 1000f30:	18bfcb16 	blt	r3,r2,1000e60 <__alt_data_end+0xfffe0660>
 1000f34:	e0bf7a17 	ldw	r2,-536(fp)
 1000f38:	10c00317 	ldw	r3,12(r2)
 1000f3c:	e0bf7517 	ldw	r2,-556(fp)
 1000f40:	1008d27a 	srli	r4,r2,9
 1000f44:	e0bf7417 	ldw	r2,-560(fp)
 1000f48:	2085383a 	mul	r2,r4,r2
 1000f4c:	1887883a 	add	r3,r3,r2
 1000f50:	e0bf7a17 	ldw	r2,-536(fp)
 1000f54:	10c00315 	stw	r3,12(r2)
 1000f58:	e0bf7c17 	ldw	r2,-528(fp)
 1000f5c:	1000a626 	beq	r2,zero,10011f8 <Data_Out+0x4f8>
 1000f60:	e0bf7a17 	ldw	r2,-536(fp)
 1000f64:	10c00404 	addi	r3,r2,16
 1000f68:	e13f7a17 	ldw	r4,-536(fp)
 1000f6c:	00a00414 	movui	r2,32784
 1000f70:	2085883a 	add	r2,r4,r2
 1000f74:	10c00015 	stw	r3,0(r2)
 1000f78:	e0ff7a17 	ldw	r3,-536(fp)
 1000f7c:	00a00414 	movui	r2,32784
 1000f80:	1885883a 	add	r2,r3,r2
 1000f84:	10c00017 	ldw	r3,0(r2)
 1000f88:	00800044 	movi	r2,1
 1000f8c:	d8800015 	stw	r2,0(sp)
 1000f90:	e13fff17 	ldw	r4,-4(fp)
 1000f94:	01400084 	movi	r5,2
 1000f98:	180d883a 	mov	r6,r3
 1000f9c:	e1ff7c17 	ldw	r7,-528(fp)
 1000fa0:	100e05c0 	call	100e05c <usb20sr_with_dma_read>
 1000fa4:	e0bf7c17 	ldw	r2,-528(fp)
 1000fa8:	e0bf7815 	stw	r2,-544(fp)
 1000fac:	e0ff7a17 	ldw	r3,-536(fp)
 1000fb0:	00a00414 	movui	r2,32784
 1000fb4:	1885883a 	add	r2,r3,r2
 1000fb8:	10c00017 	ldw	r3,0(r2)
 1000fbc:	e0bf7817 	ldw	r2,-544(fp)
 1000fc0:	1809883a 	mov	r4,r3
 1000fc4:	100b883a 	mov	r5,r2
 1000fc8:	10112d80 	call	10112d8 <alt_dcache_flush>
 1000fcc:	e13f7617 	ldw	r4,-552(fp)
 1000fd0:	e0bf7817 	ldw	r2,-544(fp)
 1000fd4:	1000010e 	bge	r2,zero,1000fdc <Data_Out+0x2dc>
 1000fd8:	10807fc4 	addi	r2,r2,511
 1000fdc:	1005d27a 	srai	r2,r2,9
 1000fe0:	100b883a 	mov	r5,r2
 1000fe4:	e0ff7a17 	ldw	r3,-536(fp)
 1000fe8:	00a00414 	movui	r2,32784
 1000fec:	1885883a 	add	r2,r3,r2
 1000ff0:	10800017 	ldw	r2,0(r2)
 1000ff4:	100d883a 	mov	r6,r2
 1000ff8:	10008180 	call	1000818 <sd_write>
 1000ffc:	e0bf7a17 	ldw	r2,-536(fp)
 1001000:	10c00317 	ldw	r3,12(r2)
 1001004:	e0bf7817 	ldw	r2,-544(fp)
 1001008:	1000010e 	bge	r2,zero,1001010 <Data_Out+0x310>
 100100c:	10807fc4 	addi	r2,r2,511
 1001010:	1005d27a 	srai	r2,r2,9
 1001014:	1887883a 	add	r3,r3,r2
 1001018:	e0bf7a17 	ldw	r2,-536(fp)
 100101c:	10c00315 	stw	r3,12(r2)
 1001020:	0000ab06 	br	10012d0 <Data_Out+0x5d0>
 1001024:	e0bf7b17 	ldw	r2,-532(fp)
 1001028:	10004026 	beq	r2,zero,100112c <Data_Out+0x42c>
 100102c:	e03f7415 	stw	zero,-560(fp)
 1001030:	00003206 	br	10010fc <Data_Out+0x3fc>
 1001034:	e0bf7a17 	ldw	r2,-536(fp)
 1001038:	10c00404 	addi	r3,r2,16
 100103c:	e13f7a17 	ldw	r4,-536(fp)
 1001040:	00a00414 	movui	r2,32784
 1001044:	2085883a 	add	r2,r4,r2
 1001048:	10c00015 	stw	r3,0(r2)
 100104c:	e0ff7a17 	ldw	r3,-536(fp)
 1001050:	00a00414 	movui	r2,32784
 1001054:	1885883a 	add	r2,r3,r2
 1001058:	11800017 	ldw	r6,0(r2)
 100105c:	e0ff7517 	ldw	r3,-556(fp)
 1001060:	00800044 	movi	r2,1
 1001064:	d8800015 	stw	r2,0(sp)
 1001068:	e13fff17 	ldw	r4,-4(fp)
 100106c:	01400084 	movi	r5,2
 1001070:	180f883a 	mov	r7,r3
 1001074:	100e05c0 	call	100e05c <usb20sr_with_dma_read>
 1001078:	e0bf7517 	ldw	r2,-556(fp)
 100107c:	e0bf7815 	stw	r2,-544(fp)
 1001080:	e0ff7a17 	ldw	r3,-536(fp)
 1001084:	00a00414 	movui	r2,32784
 1001088:	1885883a 	add	r2,r3,r2
 100108c:	10c00017 	ldw	r3,0(r2)
 1001090:	e0bf7817 	ldw	r2,-544(fp)
 1001094:	1809883a 	mov	r4,r3
 1001098:	100b883a 	mov	r5,r2
 100109c:	10112d80 	call	10112d8 <alt_dcache_flush>
 10010a0:	e13f7617 	ldw	r4,-552(fp)
 10010a4:	e0bf7817 	ldw	r2,-544(fp)
 10010a8:	1000010e 	bge	r2,zero,10010b0 <Data_Out+0x3b0>
 10010ac:	10807fc4 	addi	r2,r2,511
 10010b0:	1005d27a 	srai	r2,r2,9
 10010b4:	100b883a 	mov	r5,r2
 10010b8:	e0ff7a17 	ldw	r3,-536(fp)
 10010bc:	00a00414 	movui	r2,32784
 10010c0:	1885883a 	add	r2,r3,r2
 10010c4:	10800017 	ldw	r2,0(r2)
 10010c8:	100d883a 	mov	r6,r2
 10010cc:	10008180 	call	1000818 <sd_write>
 10010d0:	e0bf7817 	ldw	r2,-544(fp)
 10010d4:	1000010e 	bge	r2,zero,10010dc <Data_Out+0x3dc>
 10010d8:	10807fc4 	addi	r2,r2,511
 10010dc:	1005d27a 	srai	r2,r2,9
 10010e0:	1007883a 	mov	r3,r2
 10010e4:	e0bf7617 	ldw	r2,-552(fp)
 10010e8:	10c5883a 	add	r2,r2,r3
 10010ec:	e0bf7615 	stw	r2,-552(fp)
 10010f0:	e0bf7417 	ldw	r2,-560(fp)
 10010f4:	10800044 	addi	r2,r2,1
 10010f8:	e0bf7415 	stw	r2,-560(fp)
 10010fc:	e0ff7417 	ldw	r3,-560(fp)
 1001100:	e0bf7b17 	ldw	r2,-532(fp)
 1001104:	18bfcb16 	blt	r3,r2,1001034 <__alt_data_end+0xfffe0834>
 1001108:	e0bf7a17 	ldw	r2,-536(fp)
 100110c:	10c00317 	ldw	r3,12(r2)
 1001110:	e0bf7517 	ldw	r2,-556(fp)
 1001114:	1008d27a 	srli	r4,r2,9
 1001118:	e0bf7417 	ldw	r2,-560(fp)
 100111c:	2085383a 	mul	r2,r4,r2
 1001120:	1887883a 	add	r3,r3,r2
 1001124:	e0bf7a17 	ldw	r2,-536(fp)
 1001128:	10c00315 	stw	r3,12(r2)
 100112c:	e0bf7c17 	ldw	r2,-528(fp)
 1001130:	10003126 	beq	r2,zero,10011f8 <Data_Out+0x4f8>
 1001134:	e0bf7a17 	ldw	r2,-536(fp)
 1001138:	10c00404 	addi	r3,r2,16
 100113c:	e13f7a17 	ldw	r4,-536(fp)
 1001140:	00a00414 	movui	r2,32784
 1001144:	2085883a 	add	r2,r4,r2
 1001148:	10c00015 	stw	r3,0(r2)
 100114c:	e0ff7a17 	ldw	r3,-536(fp)
 1001150:	00a00414 	movui	r2,32784
 1001154:	1885883a 	add	r2,r3,r2
 1001158:	10c00017 	ldw	r3,0(r2)
 100115c:	00800044 	movi	r2,1
 1001160:	d8800015 	stw	r2,0(sp)
 1001164:	e13fff17 	ldw	r4,-4(fp)
 1001168:	01400084 	movi	r5,2
 100116c:	180d883a 	mov	r6,r3
 1001170:	e1ff7c17 	ldw	r7,-528(fp)
 1001174:	100e05c0 	call	100e05c <usb20sr_with_dma_read>
 1001178:	e0bf7c17 	ldw	r2,-528(fp)
 100117c:	e0bf7815 	stw	r2,-544(fp)
 1001180:	e0ff7a17 	ldw	r3,-536(fp)
 1001184:	00a00414 	movui	r2,32784
 1001188:	1885883a 	add	r2,r3,r2
 100118c:	10c00017 	ldw	r3,0(r2)
 1001190:	e0bf7817 	ldw	r2,-544(fp)
 1001194:	1809883a 	mov	r4,r3
 1001198:	100b883a 	mov	r5,r2
 100119c:	10112d80 	call	10112d8 <alt_dcache_flush>
 10011a0:	e13f7617 	ldw	r4,-552(fp)
 10011a4:	e0bf7817 	ldw	r2,-544(fp)
 10011a8:	1000010e 	bge	r2,zero,10011b0 <Data_Out+0x4b0>
 10011ac:	10807fc4 	addi	r2,r2,511
 10011b0:	1005d27a 	srai	r2,r2,9
 10011b4:	100b883a 	mov	r5,r2
 10011b8:	e0ff7a17 	ldw	r3,-536(fp)
 10011bc:	00a00414 	movui	r2,32784
 10011c0:	1885883a 	add	r2,r3,r2
 10011c4:	10800017 	ldw	r2,0(r2)
 10011c8:	100d883a 	mov	r6,r2
 10011cc:	10008180 	call	1000818 <sd_write>
 10011d0:	e0bf7a17 	ldw	r2,-536(fp)
 10011d4:	10c00317 	ldw	r3,12(r2)
 10011d8:	e0bf7817 	ldw	r2,-544(fp)
 10011dc:	1000010e 	bge	r2,zero,10011e4 <Data_Out+0x4e4>
 10011e0:	10807fc4 	addi	r2,r2,511
 10011e4:	1005d27a 	srai	r2,r2,9
 10011e8:	1887883a 	add	r3,r3,r2
 10011ec:	e0bf7a17 	ldw	r2,-536(fp)
 10011f0:	10c00315 	stw	r3,12(r2)
 10011f4:	00003606 	br	10012d0 <Data_Out+0x5d0>
 10011f8:	00003506 	br	10012d0 <Data_Out+0x5d0>
 10011fc:	00804074 	movhi	r2,257
 1001200:	108df404 	addi	r2,r2,14288
 1001204:	10800117 	ldw	r2,4(r2)
 1001208:	10003126 	beq	r2,zero,10012d0 <Data_Out+0x5d0>
 100120c:	00804074 	movhi	r2,257
 1001210:	108df404 	addi	r2,r2,14288
 1001214:	108002c3 	ldbu	r2,11(r2)
 1001218:	10803fcc 	andi	r2,r2,255
 100121c:	10800aa0 	cmpeqi	r2,r2,42
 1001220:	10002b1e 	bne	r2,zero,10012d0 <Data_Out+0x5d0>
 1001224:	e0bf7717 	ldw	r2,-548(fp)
 1001228:	10801804 	addi	r2,r2,96
 100122c:	10800037 	ldwio	r2,0(r2)
 1001230:	d0a18815 	stw	r2,-31200(gp)
 1001234:	d0e18817 	ldw	r3,-31200(gp)
 1001238:	00900034 	movhi	r2,16384
 100123c:	10bfffc4 	addi	r2,r2,-1
 1001240:	1884703a 	and	r2,r3,r2
 1001244:	d0a18815 	stw	r2,-31200(gp)
 1001248:	e03f7415 	stw	zero,-560(fp)
 100124c:	00000e06 	br	1001288 <Data_Out+0x588>
 1001250:	e0ff7a17 	ldw	r3,-536(fp)
 1001254:	00a00414 	movui	r2,32784
 1001258:	1885883a 	add	r2,r3,r2
 100125c:	11800017 	ldw	r6,0(r2)
 1001260:	e0ff7517 	ldw	r3,-556(fp)
 1001264:	00800044 	movi	r2,1
 1001268:	d8800015 	stw	r2,0(sp)
 100126c:	e13fff17 	ldw	r4,-4(fp)
 1001270:	01400084 	movi	r5,2
 1001274:	180f883a 	mov	r7,r3
 1001278:	100e05c0 	call	100e05c <usb20sr_with_dma_read>
 100127c:	e0bf7417 	ldw	r2,-560(fp)
 1001280:	10800044 	addi	r2,r2,1
 1001284:	e0bf7415 	stw	r2,-560(fp)
 1001288:	e0ff7417 	ldw	r3,-560(fp)
 100128c:	e0bf7b17 	ldw	r2,-532(fp)
 1001290:	18bfef16 	blt	r3,r2,1001250 <__alt_data_end+0xfffe0a50>
 1001294:	e0bf7c17 	ldw	r2,-528(fp)
 1001298:	10000c26 	beq	r2,zero,10012cc <Data_Out+0x5cc>
 100129c:	e0ff7a17 	ldw	r3,-536(fp)
 10012a0:	00a00414 	movui	r2,32784
 10012a4:	1885883a 	add	r2,r3,r2
 10012a8:	10c00017 	ldw	r3,0(r2)
 10012ac:	00800044 	movi	r2,1
 10012b0:	d8800015 	stw	r2,0(sp)
 10012b4:	e13fff17 	ldw	r4,-4(fp)
 10012b8:	01400084 	movi	r5,2
 10012bc:	180d883a 	mov	r6,r3
 10012c0:	e1ff7c17 	ldw	r7,-528(fp)
 10012c4:	100e05c0 	call	100e05c <usb20sr_with_dma_read>
 10012c8:	00000406 	br	10012dc <Data_Out+0x5dc>
 10012cc:	00000306 	br	10012dc <Data_Out+0x5dc>
 10012d0:	00804074 	movhi	r2,257
 10012d4:	108dfc04 	addi	r2,r2,14320
 10012d8:	10000305 	stb	zero,12(r2)
 10012dc:	e037883a 	mov	sp,fp
 10012e0:	dfc00117 	ldw	ra,4(sp)
 10012e4:	df000017 	ldw	fp,0(sp)
 10012e8:	dec00204 	addi	sp,sp,8
 10012ec:	f800283a 	ret

010012f0 <Data_In>:
 10012f0:	deff7004 	addi	sp,sp,-576
 10012f4:	dfc08f15 	stw	ra,572(sp)
 10012f8:	df008e15 	stw	fp,568(sp)
 10012fc:	df008e04 	addi	fp,sp,568
 1001300:	e13ffe15 	stw	r4,-8(fp)
 1001304:	e17fff15 	stw	r5,-4(fp)
 1001308:	e0bfff17 	ldw	r2,-4(fp)
 100130c:	10801517 	ldw	r2,84(r2)
 1001310:	e0bf7615 	stw	r2,-552(fp)
 1001314:	e03f770d 	sth	zero,-548(fp)
 1001318:	e0bffe17 	ldw	r2,-8(fp)
 100131c:	e0bf7815 	stw	r2,-544(fp)
 1001320:	e03f7415 	stw	zero,-560(fp)
 1001324:	e03f7915 	stw	zero,-540(fp)
 1001328:	e03f7a15 	stw	zero,-536(fp)
 100132c:	e03f7515 	stw	zero,-556(fp)
 1001330:	00804074 	movhi	r2,257
 1001334:	108df404 	addi	r2,r2,14288
 1001338:	10800117 	ldw	r2,4(r2)
 100133c:	10a00028 	cmpgeui	r2,r2,32768
 1001340:	1000031e 	bne	r2,zero,1001350 <Data_In+0x60>
 1001344:	00808004 	movi	r2,512
 1001348:	e0bf7515 	stw	r2,-556(fp)
 100134c:	00000206 	br	1001358 <Data_In+0x68>
 1001350:	00a00014 	movui	r2,32768
 1001354:	e0bf7515 	stw	r2,-556(fp)
 1001358:	00804074 	movhi	r2,257
 100135c:	108df404 	addi	r2,r2,14288
 1001360:	10800117 	ldw	r2,4(r2)
 1001364:	1009883a 	mov	r4,r2
 1001368:	e17f7517 	ldw	r5,-556(fp)
 100136c:	100f7c40 	call	100f7c4 <__udivsi3>
 1001370:	e0bf7b15 	stw	r2,-532(fp)
 1001374:	00804074 	movhi	r2,257
 1001378:	108df404 	addi	r2,r2,14288
 100137c:	10800117 	ldw	r2,4(r2)
 1001380:	1009883a 	mov	r4,r2
 1001384:	e17f7517 	ldw	r5,-556(fp)
 1001388:	100f7cc0 	call	100f7cc <__umodsi3>
 100138c:	e0bf7c15 	stw	r2,-528(fp)
 1001390:	e0ff7d04 	addi	r3,fp,-524
 1001394:	e0bffd04 	addi	r2,fp,-12
 1001398:	1809883a 	mov	r4,r3
 100139c:	100b883a 	mov	r5,r2
 10013a0:	e1bf7817 	ldw	r6,-544(fp)
 10013a4:	100e9f40 	call	100e9f4 <SCSI_To_ATA_Translation>
 10013a8:	10800058 	cmpnei	r2,r2,1
 10013ac:	1000391e 	bne	r2,zero,1001494 <Data_In+0x1a4>
 10013b0:	e0bffd17 	ldw	r2,-12(fp)
 10013b4:	10003626 	beq	r2,zero,1001490 <Data_In+0x1a0>
 10013b8:	e0fffd17 	ldw	r3,-12(fp)
 10013bc:	e1bf7d04 	addi	r6,fp,-524
 10013c0:	00800044 	movi	r2,1
 10013c4:	d8800015 	stw	r2,0(sp)
 10013c8:	e13fff17 	ldw	r4,-4(fp)
 10013cc:	01400044 	movi	r5,1
 10013d0:	180f883a 	mov	r7,r3
 10013d4:	100cdcc0 	call	100cdcc <usb20sr_with_dma_write>
 10013d8:	00804074 	movhi	r2,257
 10013dc:	108df404 	addi	r2,r2,14288
 10013e0:	10800117 	ldw	r2,4(r2)
 10013e4:	e0fffd17 	ldw	r3,-12(fp)
 10013e8:	1880292e 	bgeu	r3,r2,1001490 <Data_In+0x1a0>
 10013ec:	e0bfff17 	ldw	r2,-4(fp)
 10013f0:	1080ea17 	ldw	r2,936(r2)
 10013f4:	d0a18705 	stb	r2,-31204(gp)
 10013f8:	d0a18703 	ldbu	r2,-31204(gp)
 10013fc:	10803fcc 	andi	r2,r2,255
 1001400:	1080004c 	andi	r2,r2,1
 1001404:	1005003a 	cmpeq	r2,r2,zero
 1001408:	10803fcc 	andi	r2,r2,255
 100140c:	e0bf7915 	stw	r2,-540(fp)
 1001410:	0001883a 	nop
 1001414:	e0bf7917 	ldw	r2,-540(fp)
 1001418:	10800584 	addi	r2,r2,22
 100141c:	1085883a 	add	r2,r2,r2
 1001420:	1085883a 	add	r2,r2,r2
 1001424:	1007883a 	mov	r3,r2
 1001428:	e0bf7617 	ldw	r2,-552(fp)
 100142c:	1885883a 	add	r2,r3,r2
 1001430:	10800037 	ldwio	r2,0(r2)
 1001434:	103ff70e 	bge	r2,zero,1001414 <__alt_data_end+0xfffe0c14>
 1001438:	e0bf7617 	ldw	r2,-552(fp)
 100143c:	10801404 	addi	r2,r2,80
 1001440:	10800037 	ldwio	r2,0(r2)
 1001444:	d0a18815 	stw	r2,-31200(gp)
 1001448:	e0bf7617 	ldw	r2,-552(fp)
 100144c:	10801404 	addi	r2,r2,80
 1001450:	1007883a 	mov	r3,r2
 1001454:	d0a18817 	ldw	r2,-31200(gp)
 1001458:	10802034 	orhi	r2,r2,128
 100145c:	18800035 	stwio	r2,0(r3)
 1001460:	e0bf7617 	ldw	r2,-552(fp)
 1001464:	10801404 	addi	r2,r2,80
 1001468:	10800037 	ldwio	r2,0(r2)
 100146c:	d0a18815 	stw	r2,-31200(gp)
 1001470:	00000406 	br	1001484 <Data_In+0x194>
 1001474:	e0bf7617 	ldw	r2,-552(fp)
 1001478:	10801404 	addi	r2,r2,80
 100147c:	10800037 	ldwio	r2,0(r2)
 1001480:	d0a18815 	stw	r2,-31200(gp)
 1001484:	d0a18817 	ldw	r2,-31200(gp)
 1001488:	1080202c 	andhi	r2,r2,128
 100148c:	103ff91e 	bne	r2,zero,1001474 <__alt_data_end+0xfffe0c74>
 1001490:	0001b606 	br	1001b6c <Data_In+0x87c>
 1001494:	e0bf7817 	ldw	r2,-544(fp)
 1001498:	10800317 	ldw	r2,12(r2)
 100149c:	e0bf7315 	stw	r2,-564(fp)
 10014a0:	00804074 	movhi	r2,257
 10014a4:	108df404 	addi	r2,r2,14288
 10014a8:	10800483 	ldbu	r2,18(r2)
 10014ac:	10803fcc 	andi	r2,r2,255
 10014b0:	1004923a 	slli	r2,r2,8
 10014b4:	1007883a 	mov	r3,r2
 10014b8:	e0bf770b 	ldhu	r2,-548(fp)
 10014bc:	1884b03a 	or	r2,r3,r2
 10014c0:	e0bf770d 	sth	r2,-548(fp)
 10014c4:	00804074 	movhi	r2,257
 10014c8:	108df404 	addi	r2,r2,14288
 10014cc:	108004c3 	ldbu	r2,19(r2)
 10014d0:	10c03fcc 	andi	r3,r2,255
 10014d4:	e0bf770b 	ldhu	r2,-548(fp)
 10014d8:	1884b03a 	or	r2,r3,r2
 10014dc:	e0bf770d 	sth	r2,-548(fp)
 10014e0:	00804074 	movhi	r2,257
 10014e4:	108df404 	addi	r2,r2,14288
 10014e8:	10800117 	ldw	r2,4(r2)
 10014ec:	10017526 	beq	r2,zero,1001ac4 <Data_In+0x7d4>
 10014f0:	00804074 	movhi	r2,257
 10014f4:	108df404 	addi	r2,r2,14288
 10014f8:	108002c3 	ldbu	r2,11(r2)
 10014fc:	10803fcc 	andi	r2,r2,255
 1001500:	10800a18 	cmpnei	r2,r2,40
 1001504:	10016f1e 	bne	r2,zero,1001ac4 <Data_In+0x7d4>
 1001508:	e0bf7617 	ldw	r2,-552(fp)
 100150c:	10801404 	addi	r2,r2,80
 1001510:	10800037 	ldwio	r2,0(r2)
 1001514:	d0a18815 	stw	r2,-31200(gp)
 1001518:	e0bf770b 	ldhu	r2,-548(fp)
 100151c:	1004927a 	slli	r2,r2,9
 1001520:	1007883a 	mov	r3,r2
 1001524:	00804074 	movhi	r2,257
 1001528:	108df404 	addi	r2,r2,14288
 100152c:	10800117 	ldw	r2,4(r2)
 1001530:	10c09236 	bltu	r2,r3,100177c <Data_In+0x48c>
 1001534:	e0bf7b17 	ldw	r2,-532(fp)
 1001538:	10004826 	beq	r2,zero,100165c <Data_In+0x36c>
 100153c:	e03f7415 	stw	zero,-560(fp)
 1001540:	00003a06 	br	100162c <Data_In+0x33c>
 1001544:	e0bf7517 	ldw	r2,-556(fp)
 1001548:	e0bf7a15 	stw	r2,-536(fp)
 100154c:	e0bf7817 	ldw	r2,-544(fp)
 1001550:	10c00404 	addi	r3,r2,16
 1001554:	e13f7817 	ldw	r4,-544(fp)
 1001558:	00a00414 	movui	r2,32784
 100155c:	2085883a 	add	r2,r4,r2
 1001560:	10c00015 	stw	r3,0(r2)
 1001564:	e0ff7817 	ldw	r3,-544(fp)
 1001568:	00a00414 	movui	r2,32784
 100156c:	1885883a 	add	r2,r3,r2
 1001570:	10c00017 	ldw	r3,0(r2)
 1001574:	e0bf7a17 	ldw	r2,-536(fp)
 1001578:	1809883a 	mov	r4,r3
 100157c:	100b883a 	mov	r5,r2
 1001580:	10112d80 	call	10112d8 <alt_dcache_flush>
 1001584:	e0bf7a17 	ldw	r2,-536(fp)
 1001588:	1000010e 	bge	r2,zero,1001590 <Data_In+0x2a0>
 100158c:	10807fc4 	addi	r2,r2,511
 1001590:	1005d27a 	srai	r2,r2,9
 1001594:	100b883a 	mov	r5,r2
 1001598:	e0ff7817 	ldw	r3,-544(fp)
 100159c:	00a00414 	movui	r2,32784
 10015a0:	1885883a 	add	r2,r3,r2
 10015a4:	10800017 	ldw	r2,0(r2)
 10015a8:	e13f7317 	ldw	r4,-564(fp)
 10015ac:	100d883a 	mov	r6,r2
 10015b0:	10008600 	call	1000860 <sd_read>
 10015b4:	e0ff7817 	ldw	r3,-544(fp)
 10015b8:	00a00414 	movui	r2,32784
 10015bc:	1885883a 	add	r2,r3,r2
 10015c0:	10c00017 	ldw	r3,0(r2)
 10015c4:	e0bf7a17 	ldw	r2,-536(fp)
 10015c8:	1809883a 	mov	r4,r3
 10015cc:	100b883a 	mov	r5,r2
 10015d0:	10112d80 	call	10112d8 <alt_dcache_flush>
 10015d4:	e0ff7817 	ldw	r3,-544(fp)
 10015d8:	00a00414 	movui	r2,32784
 10015dc:	1885883a 	add	r2,r3,r2
 10015e0:	11800017 	ldw	r6,0(r2)
 10015e4:	e0ff7517 	ldw	r3,-556(fp)
 10015e8:	00800044 	movi	r2,1
 10015ec:	d8800015 	stw	r2,0(sp)
 10015f0:	e13fff17 	ldw	r4,-4(fp)
 10015f4:	01400044 	movi	r5,1
 10015f8:	180f883a 	mov	r7,r3
 10015fc:	100cdcc0 	call	100cdcc <usb20sr_with_dma_write>
 1001600:	e0bf7a17 	ldw	r2,-536(fp)
 1001604:	1000010e 	bge	r2,zero,100160c <Data_In+0x31c>
 1001608:	10807fc4 	addi	r2,r2,511
 100160c:	1005d27a 	srai	r2,r2,9
 1001610:	1007883a 	mov	r3,r2
 1001614:	e0bf7317 	ldw	r2,-564(fp)
 1001618:	10c5883a 	add	r2,r2,r3
 100161c:	e0bf7315 	stw	r2,-564(fp)
 1001620:	e0bf7417 	ldw	r2,-560(fp)
 1001624:	10800044 	addi	r2,r2,1
 1001628:	e0bf7415 	stw	r2,-560(fp)
 100162c:	e0ff7417 	ldw	r3,-560(fp)
 1001630:	e0bf7b17 	ldw	r2,-532(fp)
 1001634:	18bfc316 	blt	r3,r2,1001544 <__alt_data_end+0xfffe0d44>
 1001638:	e0bf7817 	ldw	r2,-544(fp)
 100163c:	10c00317 	ldw	r3,12(r2)
 1001640:	e0bf7517 	ldw	r2,-556(fp)
 1001644:	1008d27a 	srli	r4,r2,9
 1001648:	e0bf7417 	ldw	r2,-560(fp)
 100164c:	2085383a 	mul	r2,r4,r2
 1001650:	1887883a 	add	r3,r3,r2
 1001654:	e0bf7817 	ldw	r2,-544(fp)
 1001658:	10c00315 	stw	r3,12(r2)
 100165c:	e0bf7c17 	ldw	r2,-528(fp)
 1001660:	1000d726 	beq	r2,zero,10019c0 <Data_In+0x6d0>
 1001664:	e0bf7c17 	ldw	r2,-528(fp)
 1001668:	e0bf7a15 	stw	r2,-536(fp)
 100166c:	e0bf7817 	ldw	r2,-544(fp)
 1001670:	10c00404 	addi	r3,r2,16
 1001674:	e13f7817 	ldw	r4,-544(fp)
 1001678:	00a00414 	movui	r2,32784
 100167c:	2085883a 	add	r2,r4,r2
 1001680:	10c00015 	stw	r3,0(r2)
 1001684:	e0ff7817 	ldw	r3,-544(fp)
 1001688:	00a00414 	movui	r2,32784
 100168c:	1885883a 	add	r2,r3,r2
 1001690:	10c00017 	ldw	r3,0(r2)
 1001694:	e0bf7a17 	ldw	r2,-536(fp)
 1001698:	1809883a 	mov	r4,r3
 100169c:	100b883a 	mov	r5,r2
 10016a0:	10112d80 	call	10112d8 <alt_dcache_flush>
 10016a4:	e0bf7a17 	ldw	r2,-536(fp)
 10016a8:	1000010e 	bge	r2,zero,10016b0 <Data_In+0x3c0>
 10016ac:	10807fc4 	addi	r2,r2,511
 10016b0:	1005d27a 	srai	r2,r2,9
 10016b4:	100b883a 	mov	r5,r2
 10016b8:	e0ff7817 	ldw	r3,-544(fp)
 10016bc:	00a00414 	movui	r2,32784
 10016c0:	1885883a 	add	r2,r3,r2
 10016c4:	10800017 	ldw	r2,0(r2)
 10016c8:	e13f7317 	ldw	r4,-564(fp)
 10016cc:	100d883a 	mov	r6,r2
 10016d0:	10008600 	call	1000860 <sd_read>
 10016d4:	e0ff7817 	ldw	r3,-544(fp)
 10016d8:	00a00414 	movui	r2,32784
 10016dc:	1885883a 	add	r2,r3,r2
 10016e0:	10c00017 	ldw	r3,0(r2)
 10016e4:	e0bf7a17 	ldw	r2,-536(fp)
 10016e8:	1809883a 	mov	r4,r3
 10016ec:	100b883a 	mov	r5,r2
 10016f0:	10112d80 	call	10112d8 <alt_dcache_flush>
 10016f4:	e0bf7c17 	ldw	r2,-528(fp)
 10016f8:	10808008 	cmpgei	r2,r2,512
 10016fc:	10000a1e 	bne	r2,zero,1001728 <Data_In+0x438>
 1001700:	e0ff7817 	ldw	r3,-544(fp)
 1001704:	00a00414 	movui	r2,32784
 1001708:	1885883a 	add	r2,r3,r2
 100170c:	10800017 	ldw	r2,0(r2)
 1001710:	e13fff17 	ldw	r4,-4(fp)
 1001714:	01400044 	movi	r5,1
 1001718:	100d883a 	mov	r6,r2
 100171c:	e1ff7c17 	ldw	r7,-528(fp)
 1001720:	100d4e80 	call	100d4e8 <usb20sr_without_dma_write>
 1001724:	00000b06 	br	1001754 <Data_In+0x464>
 1001728:	e0ff7817 	ldw	r3,-544(fp)
 100172c:	00a00414 	movui	r2,32784
 1001730:	1885883a 	add	r2,r3,r2
 1001734:	10c00017 	ldw	r3,0(r2)
 1001738:	00800044 	movi	r2,1
 100173c:	d8800015 	stw	r2,0(sp)
 1001740:	e13fff17 	ldw	r4,-4(fp)
 1001744:	01400044 	movi	r5,1
 1001748:	180d883a 	mov	r6,r3
 100174c:	e1ff7c17 	ldw	r7,-528(fp)
 1001750:	100cdcc0 	call	100cdcc <usb20sr_with_dma_write>
 1001754:	e0bf7817 	ldw	r2,-544(fp)
 1001758:	10c00317 	ldw	r3,12(r2)
 100175c:	e0bf7a17 	ldw	r2,-536(fp)
 1001760:	1000010e 	bge	r2,zero,1001768 <Data_In+0x478>
 1001764:	10807fc4 	addi	r2,r2,511
 1001768:	1005d27a 	srai	r2,r2,9
 100176c:	1887883a 	add	r3,r3,r2
 1001770:	e0bf7817 	ldw	r2,-544(fp)
 1001774:	10c00315 	stw	r3,12(r2)
 1001778:	00009106 	br	10019c0 <Data_In+0x6d0>
 100177c:	e0bf7b17 	ldw	r2,-532(fp)
 1001780:	10004826 	beq	r2,zero,10018a4 <Data_In+0x5b4>
 1001784:	e03f7415 	stw	zero,-560(fp)
 1001788:	00003a06 	br	1001874 <Data_In+0x584>
 100178c:	e0bf7517 	ldw	r2,-556(fp)
 1001790:	e0bf7a15 	stw	r2,-536(fp)
 1001794:	e0bf7817 	ldw	r2,-544(fp)
 1001798:	10c00404 	addi	r3,r2,16
 100179c:	e13f7817 	ldw	r4,-544(fp)
 10017a0:	00a00414 	movui	r2,32784
 10017a4:	2085883a 	add	r2,r4,r2
 10017a8:	10c00015 	stw	r3,0(r2)
 10017ac:	e0ff7817 	ldw	r3,-544(fp)
 10017b0:	00a00414 	movui	r2,32784
 10017b4:	1885883a 	add	r2,r3,r2
 10017b8:	10c00017 	ldw	r3,0(r2)
 10017bc:	e0bf7a17 	ldw	r2,-536(fp)
 10017c0:	1809883a 	mov	r4,r3
 10017c4:	100b883a 	mov	r5,r2
 10017c8:	10112d80 	call	10112d8 <alt_dcache_flush>
 10017cc:	e0bf7a17 	ldw	r2,-536(fp)
 10017d0:	1000010e 	bge	r2,zero,10017d8 <Data_In+0x4e8>
 10017d4:	10807fc4 	addi	r2,r2,511
 10017d8:	1005d27a 	srai	r2,r2,9
 10017dc:	100b883a 	mov	r5,r2
 10017e0:	e0ff7817 	ldw	r3,-544(fp)
 10017e4:	00a00414 	movui	r2,32784
 10017e8:	1885883a 	add	r2,r3,r2
 10017ec:	10800017 	ldw	r2,0(r2)
 10017f0:	e13f7317 	ldw	r4,-564(fp)
 10017f4:	100d883a 	mov	r6,r2
 10017f8:	10008600 	call	1000860 <sd_read>
 10017fc:	e0ff7817 	ldw	r3,-544(fp)
 1001800:	00a00414 	movui	r2,32784
 1001804:	1885883a 	add	r2,r3,r2
 1001808:	10c00017 	ldw	r3,0(r2)
 100180c:	e0bf7a17 	ldw	r2,-536(fp)
 1001810:	1809883a 	mov	r4,r3
 1001814:	100b883a 	mov	r5,r2
 1001818:	10112d80 	call	10112d8 <alt_dcache_flush>
 100181c:	e0ff7817 	ldw	r3,-544(fp)
 1001820:	00a00414 	movui	r2,32784
 1001824:	1885883a 	add	r2,r3,r2
 1001828:	11800017 	ldw	r6,0(r2)
 100182c:	e0ff7517 	ldw	r3,-556(fp)
 1001830:	00800044 	movi	r2,1
 1001834:	d8800015 	stw	r2,0(sp)
 1001838:	e13fff17 	ldw	r4,-4(fp)
 100183c:	01400044 	movi	r5,1
 1001840:	180f883a 	mov	r7,r3
 1001844:	100cdcc0 	call	100cdcc <usb20sr_with_dma_write>
 1001848:	e0bf7a17 	ldw	r2,-536(fp)
 100184c:	1000010e 	bge	r2,zero,1001854 <Data_In+0x564>
 1001850:	10807fc4 	addi	r2,r2,511
 1001854:	1005d27a 	srai	r2,r2,9
 1001858:	1007883a 	mov	r3,r2
 100185c:	e0bf7317 	ldw	r2,-564(fp)
 1001860:	10c5883a 	add	r2,r2,r3
 1001864:	e0bf7315 	stw	r2,-564(fp)
 1001868:	e0bf7417 	ldw	r2,-560(fp)
 100186c:	10800044 	addi	r2,r2,1
 1001870:	e0bf7415 	stw	r2,-560(fp)
 1001874:	e0ff7417 	ldw	r3,-560(fp)
 1001878:	e0bf7b17 	ldw	r2,-532(fp)
 100187c:	18bfc316 	blt	r3,r2,100178c <__alt_data_end+0xfffe0f8c>
 1001880:	e0bf7817 	ldw	r2,-544(fp)
 1001884:	10c00317 	ldw	r3,12(r2)
 1001888:	e0bf7517 	ldw	r2,-556(fp)
 100188c:	1008d27a 	srli	r4,r2,9
 1001890:	e0bf7417 	ldw	r2,-560(fp)
 1001894:	2085383a 	mul	r2,r4,r2
 1001898:	1887883a 	add	r3,r3,r2
 100189c:	e0bf7817 	ldw	r2,-544(fp)
 10018a0:	10c00315 	stw	r3,12(r2)
 10018a4:	e0bf7c17 	ldw	r2,-528(fp)
 10018a8:	10004526 	beq	r2,zero,10019c0 <Data_In+0x6d0>
 10018ac:	e0bf7c17 	ldw	r2,-528(fp)
 10018b0:	e0bf7a15 	stw	r2,-536(fp)
 10018b4:	e0bf7817 	ldw	r2,-544(fp)
 10018b8:	10c00404 	addi	r3,r2,16
 10018bc:	e13f7817 	ldw	r4,-544(fp)
 10018c0:	00a00414 	movui	r2,32784
 10018c4:	2085883a 	add	r2,r4,r2
 10018c8:	10c00015 	stw	r3,0(r2)
 10018cc:	e0ff7817 	ldw	r3,-544(fp)
 10018d0:	00a00414 	movui	r2,32784
 10018d4:	1885883a 	add	r2,r3,r2
 10018d8:	10c00017 	ldw	r3,0(r2)
 10018dc:	e0bf7a17 	ldw	r2,-536(fp)
 10018e0:	1809883a 	mov	r4,r3
 10018e4:	100b883a 	mov	r5,r2
 10018e8:	10112d80 	call	10112d8 <alt_dcache_flush>
 10018ec:	e0bf7a17 	ldw	r2,-536(fp)
 10018f0:	1000010e 	bge	r2,zero,10018f8 <Data_In+0x608>
 10018f4:	10807fc4 	addi	r2,r2,511
 10018f8:	1005d27a 	srai	r2,r2,9
 10018fc:	100b883a 	mov	r5,r2
 1001900:	e0ff7817 	ldw	r3,-544(fp)
 1001904:	00a00414 	movui	r2,32784
 1001908:	1885883a 	add	r2,r3,r2
 100190c:	10800017 	ldw	r2,0(r2)
 1001910:	e13f7317 	ldw	r4,-564(fp)
 1001914:	100d883a 	mov	r6,r2
 1001918:	10008600 	call	1000860 <sd_read>
 100191c:	e0ff7817 	ldw	r3,-544(fp)
 1001920:	00a00414 	movui	r2,32784
 1001924:	1885883a 	add	r2,r3,r2
 1001928:	10c00017 	ldw	r3,0(r2)
 100192c:	e0bf7a17 	ldw	r2,-536(fp)
 1001930:	1809883a 	mov	r4,r3
 1001934:	100b883a 	mov	r5,r2
 1001938:	10112d80 	call	10112d8 <alt_dcache_flush>
 100193c:	e0bf7c17 	ldw	r2,-528(fp)
 1001940:	10808008 	cmpgei	r2,r2,512
 1001944:	10000a1e 	bne	r2,zero,1001970 <Data_In+0x680>
 1001948:	e0ff7817 	ldw	r3,-544(fp)
 100194c:	00a00414 	movui	r2,32784
 1001950:	1885883a 	add	r2,r3,r2
 1001954:	10800017 	ldw	r2,0(r2)
 1001958:	e13fff17 	ldw	r4,-4(fp)
 100195c:	01400044 	movi	r5,1
 1001960:	100d883a 	mov	r6,r2
 1001964:	e1ff7c17 	ldw	r7,-528(fp)
 1001968:	100d4e80 	call	100d4e8 <usb20sr_without_dma_write>
 100196c:	00000b06 	br	100199c <Data_In+0x6ac>
 1001970:	e0ff7817 	ldw	r3,-544(fp)
 1001974:	00a00414 	movui	r2,32784
 1001978:	1885883a 	add	r2,r3,r2
 100197c:	10c00017 	ldw	r3,0(r2)
 1001980:	00800044 	movi	r2,1
 1001984:	d8800015 	stw	r2,0(sp)
 1001988:	e13fff17 	ldw	r4,-4(fp)
 100198c:	01400044 	movi	r5,1
 1001990:	180d883a 	mov	r6,r3
 1001994:	e1ff7c17 	ldw	r7,-528(fp)
 1001998:	100cdcc0 	call	100cdcc <usb20sr_with_dma_write>
 100199c:	e0bf7817 	ldw	r2,-544(fp)
 10019a0:	10c00317 	ldw	r3,12(r2)
 10019a4:	e0bf7a17 	ldw	r2,-536(fp)
 10019a8:	1000010e 	bge	r2,zero,10019b0 <Data_In+0x6c0>
 10019ac:	10807fc4 	addi	r2,r2,511
 10019b0:	1005d27a 	srai	r2,r2,9
 10019b4:	1887883a 	add	r3,r3,r2
 10019b8:	e0bf7817 	ldw	r2,-544(fp)
 10019bc:	10c00315 	stw	r3,12(r2)
 10019c0:	e0bf770b 	ldhu	r2,-548(fp)
 10019c4:	1004927a 	slli	r2,r2,9
 10019c8:	1007883a 	mov	r3,r2
 10019cc:	00804074 	movhi	r2,257
 10019d0:	108df404 	addi	r2,r2,14288
 10019d4:	10800117 	ldw	r2,4(r2)
 10019d8:	1880392e 	bgeu	r3,r2,1001ac0 <Data_In+0x7d0>
 10019dc:	e0bfff17 	ldw	r2,-4(fp)
 10019e0:	1080ea17 	ldw	r2,936(r2)
 10019e4:	d0a18705 	stb	r2,-31204(gp)
 10019e8:	d0a18703 	ldbu	r2,-31204(gp)
 10019ec:	10803fcc 	andi	r2,r2,255
 10019f0:	1080004c 	andi	r2,r2,1
 10019f4:	1005003a 	cmpeq	r2,r2,zero
 10019f8:	10803fcc 	andi	r2,r2,255
 10019fc:	e0bf7915 	stw	r2,-540(fp)
 1001a00:	0001883a 	nop
 1001a04:	e0bf7917 	ldw	r2,-540(fp)
 1001a08:	10800584 	addi	r2,r2,22
 1001a0c:	1085883a 	add	r2,r2,r2
 1001a10:	1085883a 	add	r2,r2,r2
 1001a14:	1007883a 	mov	r3,r2
 1001a18:	e0bf7617 	ldw	r2,-552(fp)
 1001a1c:	1885883a 	add	r2,r3,r2
 1001a20:	10800037 	ldwio	r2,0(r2)
 1001a24:	103ff70e 	bge	r2,zero,1001a04 <__alt_data_end+0xfffe1204>
 1001a28:	e0bf7617 	ldw	r2,-552(fp)
 1001a2c:	10801404 	addi	r2,r2,80
 1001a30:	10800037 	ldwio	r2,0(r2)
 1001a34:	d0a18815 	stw	r2,-31200(gp)
 1001a38:	e0bf7617 	ldw	r2,-552(fp)
 1001a3c:	10801404 	addi	r2,r2,80
 1001a40:	1007883a 	mov	r3,r2
 1001a44:	d0a18817 	ldw	r2,-31200(gp)
 1001a48:	10802034 	orhi	r2,r2,128
 1001a4c:	18800035 	stwio	r2,0(r3)
 1001a50:	e0bf7617 	ldw	r2,-552(fp)
 1001a54:	10801404 	addi	r2,r2,80
 1001a58:	10800037 	ldwio	r2,0(r2)
 1001a5c:	d0a18815 	stw	r2,-31200(gp)
 1001a60:	00000606 	br	1001a7c <Data_In+0x78c>
 1001a64:	e0bf7617 	ldw	r2,-552(fp)
 1001a68:	10801404 	addi	r2,r2,80
 1001a6c:	10800037 	ldwio	r2,0(r2)
 1001a70:	d0a18815 	stw	r2,-31200(gp)
 1001a74:	0109c404 	movi	r4,10000
 1001a78:	10114c00 	call	10114c0 <usleep>
 1001a7c:	d0a18817 	ldw	r2,-31200(gp)
 1001a80:	1080202c 	andhi	r2,r2,128
 1001a84:	103ff71e 	bne	r2,zero,1001a64 <__alt_data_end+0xfffe1264>
 1001a88:	e0bf7617 	ldw	r2,-552(fp)
 1001a8c:	10801404 	addi	r2,r2,80
 1001a90:	10800037 	ldwio	r2,0(r2)
 1001a94:	d0a18815 	stw	r2,-31200(gp)
 1001a98:	00000606 	br	1001ab4 <Data_In+0x7c4>
 1001a9c:	e0bf7617 	ldw	r2,-552(fp)
 1001aa0:	10801404 	addi	r2,r2,80
 1001aa4:	10800037 	ldwio	r2,0(r2)
 1001aa8:	d0a18815 	stw	r2,-31200(gp)
 1001aac:	0109c404 	movi	r4,10000
 1001ab0:	10114c00 	call	10114c0 <usleep>
 1001ab4:	d0a18817 	ldw	r2,-31200(gp)
 1001ab8:	1080202c 	andhi	r2,r2,128
 1001abc:	103ff71e 	bne	r2,zero,1001a9c <__alt_data_end+0xfffe129c>
 1001ac0:	00002706 	br	1001b60 <Data_In+0x870>
 1001ac4:	00804074 	movhi	r2,257
 1001ac8:	108df404 	addi	r2,r2,14288
 1001acc:	10800117 	ldw	r2,4(r2)
 1001ad0:	10002326 	beq	r2,zero,1001b60 <Data_In+0x870>
 1001ad4:	00804074 	movhi	r2,257
 1001ad8:	108df404 	addi	r2,r2,14288
 1001adc:	108002c3 	ldbu	r2,11(r2)
 1001ae0:	10803fcc 	andi	r2,r2,255
 1001ae4:	10800a20 	cmpeqi	r2,r2,40
 1001ae8:	10001d1e 	bne	r2,zero,1001b60 <Data_In+0x870>
 1001aec:	e0bf7617 	ldw	r2,-552(fp)
 1001af0:	10801404 	addi	r2,r2,80
 1001af4:	10800037 	ldwio	r2,0(r2)
 1001af8:	d0a18815 	stw	r2,-31200(gp)
 1001afc:	e0bf7617 	ldw	r2,-552(fp)
 1001b00:	10801404 	addi	r2,r2,80
 1001b04:	1007883a 	mov	r3,r2
 1001b08:	d0a18817 	ldw	r2,-31200(gp)
 1001b0c:	10802034 	orhi	r2,r2,128
 1001b10:	18800035 	stwio	r2,0(r3)
 1001b14:	e0bf7617 	ldw	r2,-552(fp)
 1001b18:	10801404 	addi	r2,r2,80
 1001b1c:	10800037 	ldwio	r2,0(r2)
 1001b20:	d0a18815 	stw	r2,-31200(gp)
 1001b24:	0001883a 	nop
 1001b28:	e0bf7617 	ldw	r2,-552(fp)
 1001b2c:	10801404 	addi	r2,r2,80
 1001b30:	10800037 	ldwio	r2,0(r2)
 1001b34:	1080202c 	andhi	r2,r2,128
 1001b38:	103ffb1e 	bne	r2,zero,1001b28 <__alt_data_end+0xfffe1328>
 1001b3c:	e0bf7617 	ldw	r2,-552(fp)
 1001b40:	10801404 	addi	r2,r2,80
 1001b44:	10800037 	ldwio	r2,0(r2)
 1001b48:	d0a18815 	stw	r2,-31200(gp)
 1001b4c:	00804074 	movhi	r2,257
 1001b50:	108dfc04 	addi	r2,r2,14320
 1001b54:	00c00044 	movi	r3,1
 1001b58:	10c00305 	stb	r3,12(r2)
 1001b5c:	00000306 	br	1001b6c <Data_In+0x87c>
 1001b60:	00804074 	movhi	r2,257
 1001b64:	108dfc04 	addi	r2,r2,14320
 1001b68:	10000305 	stb	zero,12(r2)
 1001b6c:	e037883a 	mov	sp,fp
 1001b70:	dfc00117 	ldw	ra,4(sp)
 1001b74:	df000017 	ldw	fp,0(sp)
 1001b78:	dec00204 	addi	sp,sp,8
 1001b7c:	f800283a 	ret

01001b80 <StatusTransport>:
 1001b80:	defff704 	addi	sp,sp,-36
 1001b84:	dfc00815 	stw	ra,32(sp)
 1001b88:	df000715 	stw	fp,28(sp)
 1001b8c:	df000704 	addi	fp,sp,28
 1001b90:	e13ffe15 	stw	r4,-8(fp)
 1001b94:	e17fff15 	stw	r5,-4(fp)
 1001b98:	e03ffa15 	stw	zero,-24(fp)
 1001b9c:	e03ffb15 	stw	zero,-20(fp)
 1001ba0:	e03ffc15 	stw	zero,-16(fp)
 1001ba4:	e03ffd05 	stb	zero,-12(fp)
 1001ba8:	e03ff915 	stw	zero,-28(fp)
 1001bac:	00804074 	movhi	r2,257
 1001bb0:	108df404 	addi	r2,r2,14288
 1001bb4:	10800483 	ldbu	r2,18(r2)
 1001bb8:	10803fcc 	andi	r2,r2,255
 1001bbc:	1004923a 	slli	r2,r2,8
 1001bc0:	e0fff917 	ldw	r3,-28(fp)
 1001bc4:	1884b03a 	or	r2,r3,r2
 1001bc8:	e0bff915 	stw	r2,-28(fp)
 1001bcc:	00804074 	movhi	r2,257
 1001bd0:	108df404 	addi	r2,r2,14288
 1001bd4:	108004c3 	ldbu	r2,19(r2)
 1001bd8:	10803fcc 	andi	r2,r2,255
 1001bdc:	e0fff917 	ldw	r3,-28(fp)
 1001be0:	1884b03a 	or	r2,r3,r2
 1001be4:	e0bff915 	stw	r2,-28(fp)
 1001be8:	00801544 	movi	r2,85
 1001bec:	e0bffa05 	stb	r2,-24(fp)
 1001bf0:	008014c4 	movi	r2,83
 1001bf4:	e0bffa45 	stb	r2,-23(fp)
 1001bf8:	00801084 	movi	r2,66
 1001bfc:	e0bffa85 	stb	r2,-22(fp)
 1001c00:	008014c4 	movi	r2,83
 1001c04:	e0bffac5 	stb	r2,-21(fp)
 1001c08:	e0bffa04 	addi	r2,fp,-24
 1001c0c:	10800104 	addi	r2,r2,4
 1001c10:	1009883a 	mov	r4,r2
 1001c14:	01404074 	movhi	r5,257
 1001c18:	294dfd04 	addi	r5,r5,14324
 1001c1c:	01800104 	movi	r6,4
 1001c20:	10109b40 	call	10109b4 <memcpy>
 1001c24:	e03ffc05 	stb	zero,-16(fp)
 1001c28:	e03ffc45 	stb	zero,-15(fp)
 1001c2c:	e03ffc85 	stb	zero,-14(fp)
 1001c30:	e03ffcc5 	stb	zero,-13(fp)
 1001c34:	00804074 	movhi	r2,257
 1001c38:	108df404 	addi	r2,r2,14288
 1001c3c:	10800117 	ldw	r2,4(r2)
 1001c40:	10000f1e 	bne	r2,zero,1001c80 <StatusTransport+0x100>
 1001c44:	00804074 	movhi	r2,257
 1001c48:	108df404 	addi	r2,r2,14288
 1001c4c:	108002c3 	ldbu	r2,11(r2)
 1001c50:	10803fcc 	andi	r2,r2,255
 1001c54:	10800a20 	cmpeqi	r2,r2,40
 1001c58:	1000061e 	bne	r2,zero,1001c74 <StatusTransport+0xf4>
 1001c5c:	00804074 	movhi	r2,257
 1001c60:	108df404 	addi	r2,r2,14288
 1001c64:	108002c3 	ldbu	r2,11(r2)
 1001c68:	10803fcc 	andi	r2,r2,255
 1001c6c:	10800a98 	cmpnei	r2,r2,42
 1001c70:	1000031e 	bne	r2,zero,1001c80 <StatusTransport+0x100>
 1001c74:	00800084 	movi	r2,2
 1001c78:	e0bffd05 	stb	r2,-12(fp)
 1001c7c:	00007706 	br	1001e5c <StatusTransport+0x2dc>
 1001c80:	00804074 	movhi	r2,257
 1001c84:	108df404 	addi	r2,r2,14288
 1001c88:	10800117 	ldw	r2,4(r2)
 1001c8c:	e0fff917 	ldw	r3,-28(fp)
 1001c90:	1806927a 	slli	r3,r3,9
 1001c94:	18800b2e 	bgeu	r3,r2,1001cc4 <StatusTransport+0x144>
 1001c98:	00804074 	movhi	r2,257
 1001c9c:	108df404 	addi	r2,r2,14288
 1001ca0:	108002c3 	ldbu	r2,11(r2)
 1001ca4:	10803fcc 	andi	r2,r2,255
 1001ca8:	10800a18 	cmpnei	r2,r2,40
 1001cac:	1000051e 	bne	r2,zero,1001cc4 <StatusTransport+0x144>
 1001cb0:	e03ffc05 	stb	zero,-16(fp)
 1001cb4:	00800084 	movi	r2,2
 1001cb8:	e0bffc45 	stb	r2,-15(fp)
 1001cbc:	e03ffd05 	stb	zero,-12(fp)
 1001cc0:	00006606 	br	1001e5c <StatusTransport+0x2dc>
 1001cc4:	00804074 	movhi	r2,257
 1001cc8:	108df404 	addi	r2,r2,14288
 1001ccc:	10800117 	ldw	r2,4(r2)
 1001cd0:	e0fff917 	ldw	r3,-28(fp)
 1001cd4:	1806927a 	slli	r3,r3,9
 1001cd8:	10c0092e 	bgeu	r2,r3,1001d00 <StatusTransport+0x180>
 1001cdc:	00804074 	movhi	r2,257
 1001ce0:	108df404 	addi	r2,r2,14288
 1001ce4:	108002c3 	ldbu	r2,11(r2)
 1001ce8:	10803fcc 	andi	r2,r2,255
 1001cec:	10800a18 	cmpnei	r2,r2,40
 1001cf0:	1000031e 	bne	r2,zero,1001d00 <StatusTransport+0x180>
 1001cf4:	00800084 	movi	r2,2
 1001cf8:	e0bffd05 	stb	r2,-12(fp)
 1001cfc:	00005706 	br	1001e5c <StatusTransport+0x2dc>
 1001d00:	00804074 	movhi	r2,257
 1001d04:	108df404 	addi	r2,r2,14288
 1001d08:	10800203 	ldbu	r2,8(r2)
 1001d0c:	10803fcc 	andi	r2,r2,255
 1001d10:	10000926 	beq	r2,zero,1001d38 <StatusTransport+0x1b8>
 1001d14:	00804074 	movhi	r2,257
 1001d18:	108df404 	addi	r2,r2,14288
 1001d1c:	108002c3 	ldbu	r2,11(r2)
 1001d20:	10803fcc 	andi	r2,r2,255
 1001d24:	10800a98 	cmpnei	r2,r2,42
 1001d28:	1000031e 	bne	r2,zero,1001d38 <StatusTransport+0x1b8>
 1001d2c:	00800084 	movi	r2,2
 1001d30:	e0bffd05 	stb	r2,-12(fp)
 1001d34:	00004906 	br	1001e5c <StatusTransport+0x2dc>
 1001d38:	00804074 	movhi	r2,257
 1001d3c:	108df404 	addi	r2,r2,14288
 1001d40:	10800117 	ldw	r2,4(r2)
 1001d44:	10001326 	beq	r2,zero,1001d94 <StatusTransport+0x214>
 1001d48:	e0bff917 	ldw	r2,-28(fp)
 1001d4c:	1004927a 	slli	r2,r2,9
 1001d50:	1000101e 	bne	r2,zero,1001d94 <StatusTransport+0x214>
 1001d54:	00804074 	movhi	r2,257
 1001d58:	108df404 	addi	r2,r2,14288
 1001d5c:	10800203 	ldbu	r2,8(r2)
 1001d60:	10803fcc 	andi	r2,r2,255
 1001d64:	10000b1e 	bne	r2,zero,1001d94 <StatusTransport+0x214>
 1001d68:	e0fffe17 	ldw	r3,-8(fp)
 1001d6c:	00a00514 	movui	r2,32788
 1001d70:	1885883a 	add	r2,r3,r2
 1001d74:	10800017 	ldw	r2,0(r2)
 1001d78:	10800060 	cmpeqi	r2,r2,1
 1001d7c:	1000051e 	bne	r2,zero,1001d94 <StatusTransport+0x214>
 1001d80:	e03ffc05 	stb	zero,-16(fp)
 1001d84:	00800084 	movi	r2,2
 1001d88:	e0bffc45 	stb	r2,-15(fp)
 1001d8c:	e03ffd05 	stb	zero,-12(fp)
 1001d90:	00003206 	br	1001e5c <StatusTransport+0x2dc>
 1001d94:	00804074 	movhi	r2,257
 1001d98:	108df404 	addi	r2,r2,14288
 1001d9c:	10800203 	ldbu	r2,8(r2)
 1001da0:	10803fcc 	andi	r2,r2,255
 1001da4:	1000091e 	bne	r2,zero,1001dcc <StatusTransport+0x24c>
 1001da8:	00804074 	movhi	r2,257
 1001dac:	108df404 	addi	r2,r2,14288
 1001db0:	108002c3 	ldbu	r2,11(r2)
 1001db4:	10803fcc 	andi	r2,r2,255
 1001db8:	10800a18 	cmpnei	r2,r2,40
 1001dbc:	1000031e 	bne	r2,zero,1001dcc <StatusTransport+0x24c>
 1001dc0:	00800084 	movi	r2,2
 1001dc4:	e0bffd05 	stb	r2,-12(fp)
 1001dc8:	00002406 	br	1001e5c <StatusTransport+0x2dc>
 1001dcc:	00804074 	movhi	r2,257
 1001dd0:	108df404 	addi	r2,r2,14288
 1001dd4:	10800117 	ldw	r2,4(r2)
 1001dd8:	e0fff917 	ldw	r3,-28(fp)
 1001ddc:	1806927a 	slli	r3,r3,9
 1001de0:	18800b2e 	bgeu	r3,r2,1001e10 <StatusTransport+0x290>
 1001de4:	00804074 	movhi	r2,257
 1001de8:	108df404 	addi	r2,r2,14288
 1001dec:	108002c3 	ldbu	r2,11(r2)
 1001df0:	10803fcc 	andi	r2,r2,255
 1001df4:	10800a98 	cmpnei	r2,r2,42
 1001df8:	1000051e 	bne	r2,zero,1001e10 <StatusTransport+0x290>
 1001dfc:	e03ffc05 	stb	zero,-16(fp)
 1001e00:	00800084 	movi	r2,2
 1001e04:	e0bffc45 	stb	r2,-15(fp)
 1001e08:	e03ffd05 	stb	zero,-12(fp)
 1001e0c:	00001306 	br	1001e5c <StatusTransport+0x2dc>
 1001e10:	00804074 	movhi	r2,257
 1001e14:	108df404 	addi	r2,r2,14288
 1001e18:	10800117 	ldw	r2,4(r2)
 1001e1c:	e0fff917 	ldw	r3,-28(fp)
 1001e20:	1806927a 	slli	r3,r3,9
 1001e24:	10c0092e 	bgeu	r2,r3,1001e4c <StatusTransport+0x2cc>
 1001e28:	00804074 	movhi	r2,257
 1001e2c:	108df404 	addi	r2,r2,14288
 1001e30:	108002c3 	ldbu	r2,11(r2)
 1001e34:	10803fcc 	andi	r2,r2,255
 1001e38:	10800a98 	cmpnei	r2,r2,42
 1001e3c:	1000031e 	bne	r2,zero,1001e4c <StatusTransport+0x2cc>
 1001e40:	00800044 	movi	r2,1
 1001e44:	e0bffd05 	stb	r2,-12(fp)
 1001e48:	00000406 	br	1001e5c <StatusTransport+0x2dc>
 1001e4c:	00804074 	movhi	r2,257
 1001e50:	108dfc04 	addi	r2,r2,14320
 1001e54:	10800303 	ldbu	r2,12(r2)
 1001e58:	e0bffd05 	stb	r2,-12(fp)
 1001e5c:	e0bffa04 	addi	r2,fp,-24
 1001e60:	e13fff17 	ldw	r4,-4(fp)
 1001e64:	01400044 	movi	r5,1
 1001e68:	100d883a 	mov	r6,r2
 1001e6c:	01c00344 	movi	r7,13
 1001e70:	100d4e80 	call	100d4e8 <usb20sr_without_dma_write>
 1001e74:	e037883a 	mov	sp,fp
 1001e78:	dfc00117 	ldw	ra,4(sp)
 1001e7c:	df000017 	ldw	fp,0(sp)
 1001e80:	dec00204 	addi	sp,sp,8
 1001e84:	f800283a 	ret

01001e88 <sdhc_sd_present>:
 1001e88:	defffe04 	addi	sp,sp,-8
 1001e8c:	df000115 	stw	fp,4(sp)
 1001e90:	df000104 	addi	fp,sp,4
 1001e94:	e13fff15 	stw	r4,-4(fp)
 1001e98:	e0bfff17 	ldw	r2,-4(fp)
 1001e9c:	10800017 	ldw	r2,0(r2)
 1001ea0:	10800704 	addi	r2,r2,28
 1001ea4:	10800037 	ldwio	r2,0(r2)
 1001ea8:	1090000c 	andi	r2,r2,16384
 1001eac:	10000526 	beq	r2,zero,1001ec4 <sdhc_sd_present+0x3c>
 1001eb0:	e0bfff17 	ldw	r2,-4(fp)
 1001eb4:	00c00044 	movi	r3,1
 1001eb8:	10c00215 	stw	r3,8(r2)
 1001ebc:	00800044 	movi	r2,1
 1001ec0:	00000306 	br	1001ed0 <sdhc_sd_present+0x48>
 1001ec4:	e0bfff17 	ldw	r2,-4(fp)
 1001ec8:	10000215 	stw	zero,8(r2)
 1001ecc:	0005883a 	mov	r2,zero
 1001ed0:	e037883a 	mov	sp,fp
 1001ed4:	df000017 	ldw	fp,0(sp)
 1001ed8:	dec00104 	addi	sp,sp,4
 1001edc:	f800283a 	ret

01001ee0 <sdhc_sd_write_protected>:
 1001ee0:	defffd04 	addi	sp,sp,-12
 1001ee4:	dfc00215 	stw	ra,8(sp)
 1001ee8:	df000115 	stw	fp,4(sp)
 1001eec:	df000104 	addi	fp,sp,4
 1001ef0:	e13fff15 	stw	r4,-4(fp)
 1001ef4:	e0bfff17 	ldw	r2,-4(fp)
 1001ef8:	10800017 	ldw	r2,0(r2)
 1001efc:	10800704 	addi	r2,r2,28
 1001f00:	10800037 	ldwio	r2,0(r2)
 1001f04:	10a0000c 	andi	r2,r2,32768
 1001f08:	10000d26 	beq	r2,zero,1001f40 <sdhc_sd_write_protected+0x60>
 1001f0c:	e0bfff17 	ldw	r2,-4(fp)
 1001f10:	00c00044 	movi	r3,1
 1001f14:	10c00315 	stw	r3,12(r2)
 1001f18:	00804074 	movhi	r2,257
 1001f1c:	108c3704 	addi	r2,r2,12508
 1001f20:	10800017 	ldw	r2,0(r2)
 1001f24:	108000a8 	cmpgeui	r2,r2,2
 1001f28:	1000031e 	bne	r2,zero,1001f38 <sdhc_sd_write_protected+0x58>
 1001f2c:	01004074 	movhi	r4,257
 1001f30:	21085a04 	addi	r4,r4,8552
 1001f34:	1010b240 	call	1010b24 <puts>
 1001f38:	00800044 	movi	r2,1
 1001f3c:	00000b06 	br	1001f6c <sdhc_sd_write_protected+0x8c>
 1001f40:	e0bfff17 	ldw	r2,-4(fp)
 1001f44:	10000315 	stw	zero,12(r2)
 1001f48:	00804074 	movhi	r2,257
 1001f4c:	108c3704 	addi	r2,r2,12508
 1001f50:	10800017 	ldw	r2,0(r2)
 1001f54:	108000a8 	cmpgeui	r2,r2,2
 1001f58:	1000031e 	bne	r2,zero,1001f68 <sdhc_sd_write_protected+0x88>
 1001f5c:	01004074 	movhi	r4,257
 1001f60:	21086104 	addi	r4,r4,8580
 1001f64:	1010b240 	call	1010b24 <puts>
 1001f68:	0005883a 	mov	r2,zero
 1001f6c:	e037883a 	mov	sp,fp
 1001f70:	dfc00117 	ldw	ra,4(sp)
 1001f74:	df000017 	ldw	fp,0(sp)
 1001f78:	dec00204 	addi	sp,sp,8
 1001f7c:	f800283a 	ret

01001f80 <sdhc_set_freq>:
 1001f80:	defff904 	addi	sp,sp,-28
 1001f84:	dfc00615 	stw	ra,24(sp)
 1001f88:	df000515 	stw	fp,20(sp)
 1001f8c:	df000504 	addi	fp,sp,20
 1001f90:	e13ffe15 	stw	r4,-8(fp)
 1001f94:	e17fff15 	stw	r5,-4(fp)
 1001f98:	e0bffe17 	ldw	r2,-8(fp)
 1001f9c:	10802417 	ldw	r2,144(r2)
 1001fa0:	1009883a 	mov	r4,r2
 1001fa4:	10107300 	call	1010730 <__floatunsisf>
 1001fa8:	1007883a 	mov	r3,r2
 1001fac:	e0fffb15 	stw	r3,-20(fp)
 1001fb0:	e0bfff17 	ldw	r2,-4(fp)
 1001fb4:	1000071e 	bne	r2,zero,1001fd4 <sdhc_set_freq+0x54>
 1001fb8:	e0bffe17 	ldw	r2,-8(fp)
 1001fbc:	10800017 	ldw	r2,0(r2)
 1001fc0:	10800204 	addi	r2,r2,8
 1001fc4:	0007883a 	mov	r3,zero
 1001fc8:	10c00035 	stwio	r3,0(r2)
 1001fcc:	e0bfff17 	ldw	r2,-4(fp)
 1001fd0:	00007506 	br	10021a8 <sdhc_set_freq+0x228>
 1001fd4:	e0ffff17 	ldw	r3,-4(fp)
 1001fd8:	0080bef4 	movhi	r2,763
 1001fdc:	10bc2004 	addi	r2,r2,-3968
 1001fe0:	10c0032e 	bgeu	r2,r3,1001ff0 <sdhc_set_freq+0x70>
 1001fe4:	0080bef4 	movhi	r2,763
 1001fe8:	10bc2004 	addi	r2,r2,-3968
 1001fec:	e0bfff15 	stw	r2,-4(fp)
 1001ff0:	e13fff17 	ldw	r4,-4(fp)
 1001ff4:	10107300 	call	1010730 <__floatunsisf>
 1001ff8:	1007883a 	mov	r3,r2
 1001ffc:	e0fffc15 	stw	r3,-16(fp)
 1002000:	e0bffc17 	ldw	r2,-16(fp)
 1002004:	1009883a 	mov	r4,r2
 1002008:	100b883a 	mov	r5,r2
 100200c:	100f7d40 	call	100f7d4 <__addsf3>
 1002010:	1007883a 	mov	r3,r2
 1002014:	1805883a 	mov	r2,r3
 1002018:	e13ffb17 	ldw	r4,-20(fp)
 100201c:	100b883a 	mov	r5,r2
 1002020:	100fcb40 	call	100fcb4 <__divsf3>
 1002024:	1007883a 	mov	r3,r2
 1002028:	1805883a 	mov	r2,r3
 100202c:	1009883a 	mov	r4,r2
 1002030:	014fe034 	movhi	r5,16256
 1002034:	10101bc0 	call	10101bc <__subsf3>
 1002038:	1007883a 	mov	r3,r2
 100203c:	1805883a 	mov	r2,r3
 1002040:	1009883a 	mov	r4,r2
 1002044:	100f6480 	call	100f648 <__fixunssfsi>
 1002048:	1007883a 	mov	r3,r2
 100204c:	e0bffe17 	ldw	r2,-8(fp)
 1002050:	10c02515 	stw	r3,148(r2)
 1002054:	e0bfff17 	ldw	r2,-4(fp)
 1002058:	e0bffd15 	stw	r2,-12(fp)
 100205c:	e0bffe17 	ldw	r2,-8(fp)
 1002060:	10802517 	ldw	r2,148(r2)
 1002064:	10804030 	cmpltui	r2,r2,256
 1002068:	1000031e 	bne	r2,zero,1002078 <sdhc_set_freq+0xf8>
 100206c:	e0bffe17 	ldw	r2,-8(fp)
 1002070:	00c03fc4 	movi	r3,255
 1002074:	10c02515 	stw	r3,148(r2)
 1002078:	e0bffe17 	ldw	r2,-8(fp)
 100207c:	10802517 	ldw	r2,148(r2)
 1002080:	10800044 	addi	r2,r2,1
 1002084:	1085883a 	add	r2,r2,r2
 1002088:	1009883a 	mov	r4,r2
 100208c:	10107300 	call	1010730 <__floatunsisf>
 1002090:	1007883a 	mov	r3,r2
 1002094:	e13ffb17 	ldw	r4,-20(fp)
 1002098:	180b883a 	mov	r5,r3
 100209c:	100fcb40 	call	100fcb4 <__divsf3>
 10020a0:	1007883a 	mov	r3,r2
 10020a4:	1805883a 	mov	r2,r3
 10020a8:	1009883a 	mov	r4,r2
 10020ac:	100f6480 	call	100f648 <__fixunssfsi>
 10020b0:	e0bfff15 	stw	r2,-4(fp)
 10020b4:	e0bfff17 	ldw	r2,-4(fp)
 10020b8:	e0fffd17 	ldw	r3,-12(fp)
 10020bc:	1880062e 	bgeu	r3,r2,10020d8 <sdhc_set_freq+0x158>
 10020c0:	e0bffe17 	ldw	r2,-8(fp)
 10020c4:	10802517 	ldw	r2,148(r2)
 10020c8:	10c00044 	addi	r3,r2,1
 10020cc:	e0bffe17 	ldw	r2,-8(fp)
 10020d0:	10c02515 	stw	r3,148(r2)
 10020d4:	00000606 	br	10020f0 <sdhc_set_freq+0x170>
 10020d8:	0001883a 	nop
 10020dc:	00804074 	movhi	r2,257
 10020e0:	108c3704 	addi	r2,r2,12508
 10020e4:	10800017 	ldw	r2,0(r2)
 10020e8:	1000081e 	bne	r2,zero,100210c <sdhc_set_freq+0x18c>
 10020ec:	00000106 	br	10020f4 <sdhc_set_freq+0x174>
 10020f0:	003fe106 	br	1002078 <__alt_data_end+0xfffe1878>
 10020f4:	e0bffe17 	ldw	r2,-8(fp)
 10020f8:	10802517 	ldw	r2,148(r2)
 10020fc:	01004074 	movhi	r4,257
 1002100:	21086904 	addi	r4,r4,8612
 1002104:	100b883a 	mov	r5,r2
 1002108:	1010a380 	call	1010a38 <printf>
 100210c:	e0bffe17 	ldw	r2,-8(fp)
 1002110:	10800017 	ldw	r2,0(r2)
 1002114:	10800204 	addi	r2,r2,8
 1002118:	1009883a 	mov	r4,r2
 100211c:	e0bffe17 	ldw	r2,-8(fp)
 1002120:	10802517 	ldw	r2,148(r2)
 1002124:	10c03fcc 	andi	r3,r2,255
 1002128:	e0bffe17 	ldw	r2,-8(fp)
 100212c:	10800417 	ldw	r2,16(r2)
 1002130:	1080004c 	andi	r2,r2,1
 1002134:	1004923a 	slli	r2,r2,8
 1002138:	1884b03a 	or	r2,r3,r2
 100213c:	e0fffe17 	ldw	r3,-8(fp)
 1002140:	18c02a83 	ldbu	r3,170(r3)
 1002144:	18c03fcc 	andi	r3,r3,255
 1002148:	18c0004c 	andi	r3,r3,1
 100214c:	180692fa 	slli	r3,r3,11
 1002150:	10c4b03a 	or	r2,r2,r3
 1002154:	e0fffe17 	ldw	r3,-8(fp)
 1002158:	18c02b03 	ldbu	r3,172(r3)
 100215c:	18c03fcc 	andi	r3,r3,255
 1002160:	18c0004c 	andi	r3,r3,1
 1002164:	180692ba 	slli	r3,r3,10
 1002168:	10c4b03a 	or	r2,r2,r3
 100216c:	10a08014 	ori	r2,r2,33280
 1002170:	20800035 	stwio	r2,0(r4)
 1002174:	00804074 	movhi	r2,257
 1002178:	108c3704 	addi	r2,r2,12508
 100217c:	10800017 	ldw	r2,0(r2)
 1002180:	1000081e 	bne	r2,zero,10021a4 <sdhc_set_freq+0x224>
 1002184:	e0bfff17 	ldw	r2,-4(fp)
 1002188:	1009883a 	mov	r4,r2
 100218c:	0140fa04 	movi	r5,1000
 1002190:	100f7c40 	call	100f7c4 <__udivsi3>
 1002194:	01004074 	movhi	r4,257
 1002198:	21086d04 	addi	r4,r4,8628
 100219c:	100b883a 	mov	r5,r2
 10021a0:	1010a380 	call	1010a38 <printf>
 10021a4:	e0bfff17 	ldw	r2,-4(fp)
 10021a8:	e037883a 	mov	sp,fp
 10021ac:	dfc00117 	ldw	ra,4(sp)
 10021b0:	df000017 	ldw	fp,0(sp)
 10021b4:	dec00204 	addi	sp,sp,8
 10021b8:	f800283a 	ret

010021bc <sdhc_send_command>:
 10021bc:	defff704 	addi	sp,sp,-36
 10021c0:	dfc00815 	stw	ra,32(sp)
 10021c4:	df000715 	stw	fp,28(sp)
 10021c8:	df000704 	addi	fp,sp,28
 10021cc:	e13ffb15 	stw	r4,-20(fp)
 10021d0:	e17ffc15 	stw	r5,-16(fp)
 10021d4:	3007883a 	mov	r3,r6
 10021d8:	e1fffe15 	stw	r7,-8(fp)
 10021dc:	e0800317 	ldw	r2,12(fp)
 10021e0:	e0fffd05 	stb	r3,-12(fp)
 10021e4:	e0bfff05 	stb	r2,-4(fp)
 10021e8:	e03ffa15 	stw	zero,-24(fp)
 10021ec:	e0bffb17 	ldw	r2,-20(fp)
 10021f0:	10800017 	ldw	r2,0(r2)
 10021f4:	1007883a 	mov	r3,r2
 10021f8:	e0bffc17 	ldw	r2,-16(fp)
 10021fc:	18800035 	stwio	r2,0(r3)
 1002200:	e0800217 	ldw	r2,8(fp)
 1002204:	10000e26 	beq	r2,zero,1002240 <sdhc_send_command+0x84>
 1002208:	e0bffe17 	ldw	r2,-8(fp)
 100220c:	100492ba 	slli	r2,r2,10
 1002210:	10bfffcc 	andi	r2,r2,65535
 1002214:	e0fffd03 	ldbu	r3,-12(fp)
 1002218:	18c001cc 	andi	r3,r3,7
 100221c:	180694fa 	slli	r3,r3,19
 1002220:	10c4b03a 	or	r2,r2,r3
 1002224:	e0ffff03 	ldbu	r3,-4(fp)
 1002228:	18c001cc 	andi	r3,r3,7
 100222c:	1806943a 	slli	r3,r3,16
 1002230:	10c4b03a 	or	r2,r2,r3
 1002234:	10800194 	ori	r2,r2,6
 1002238:	e0bff915 	stw	r2,-28(fp)
 100223c:	00000d06 	br	1002274 <sdhc_send_command+0xb8>
 1002240:	e0bffe17 	ldw	r2,-8(fp)
 1002244:	100492ba 	slli	r2,r2,10
 1002248:	10bfffcc 	andi	r2,r2,65535
 100224c:	e0fffd03 	ldbu	r3,-12(fp)
 1002250:	18c001cc 	andi	r3,r3,7
 1002254:	180694fa 	slli	r3,r3,19
 1002258:	10c4b03a 	or	r2,r2,r3
 100225c:	e0ffff03 	ldbu	r3,-4(fp)
 1002260:	18c001cc 	andi	r3,r3,7
 1002264:	1806943a 	slli	r3,r3,16
 1002268:	10c4b03a 	or	r2,r2,r3
 100226c:	10800114 	ori	r2,r2,4
 1002270:	e0bff915 	stw	r2,-28(fp)
 1002274:	e0bffb17 	ldw	r2,-20(fp)
 1002278:	10800017 	ldw	r2,0(r2)
 100227c:	10800104 	addi	r2,r2,4
 1002280:	1007883a 	mov	r3,r2
 1002284:	e0bff917 	ldw	r2,-28(fp)
 1002288:	18800035 	stwio	r2,0(r3)
 100228c:	0001883a 	nop
 1002290:	e0bffb17 	ldw	r2,-20(fp)
 1002294:	10800017 	ldw	r2,0(r2)
 1002298:	10800704 	addi	r2,r2,28
 100229c:	10800037 	ldwio	r2,0(r2)
 10022a0:	1080010c 	andi	r2,r2,4
 10022a4:	103ffa26 	beq	r2,zero,1002290 <__alt_data_end+0xfffe1a90>
 10022a8:	e0bffb17 	ldw	r2,-20(fp)
 10022ac:	10800017 	ldw	r2,0(r2)
 10022b0:	10800704 	addi	r2,r2,28
 10022b4:	10800037 	ldwio	r2,0(r2)
 10022b8:	1080080c 	andi	r2,r2,32
 10022bc:	10000b26 	beq	r2,zero,10022ec <sdhc_send_command+0x130>
 10022c0:	00804074 	movhi	r2,257
 10022c4:	108c3704 	addi	r2,r2,12508
 10022c8:	10800017 	ldw	r2,0(r2)
 10022cc:	108000a8 	cmpgeui	r2,r2,2
 10022d0:	1000041e 	bne	r2,zero,10022e4 <sdhc_send_command+0x128>
 10022d4:	01004074 	movhi	r4,257
 10022d8:	21087604 	addi	r4,r4,8664
 10022dc:	e17ffe17 	ldw	r5,-8(fp)
 10022e0:	1010a380 	call	1010a38 <printf>
 10022e4:	00bffc04 	movi	r2,-16
 10022e8:	e0bffa15 	stw	r2,-24(fp)
 10022ec:	e0bffb17 	ldw	r2,-20(fp)
 10022f0:	10800017 	ldw	r2,0(r2)
 10022f4:	10800704 	addi	r2,r2,28
 10022f8:	10800037 	ldwio	r2,0(r2)
 10022fc:	1080400c 	andi	r2,r2,256
 1002300:	10000b26 	beq	r2,zero,1002330 <sdhc_send_command+0x174>
 1002304:	00804074 	movhi	r2,257
 1002308:	108c3704 	addi	r2,r2,12508
 100230c:	10800017 	ldw	r2,0(r2)
 1002310:	108000a8 	cmpgeui	r2,r2,2
 1002314:	1000041e 	bne	r2,zero,1002328 <sdhc_send_command+0x16c>
 1002318:	01004074 	movhi	r4,257
 100231c:	21088504 	addi	r4,r4,8724
 1002320:	e17ffe17 	ldw	r5,-8(fp)
 1002324:	1010a380 	call	1010a38 <printf>
 1002328:	00bffbc4 	movi	r2,-17
 100232c:	e0bffa15 	stw	r2,-24(fp)
 1002330:	e0bffa17 	ldw	r2,-24(fp)
 1002334:	e037883a 	mov	sp,fp
 1002338:	dfc00117 	ldw	ra,4(sp)
 100233c:	df000017 	ldw	fp,0(sp)
 1002340:	dec00204 	addi	sp,sp,8
 1002344:	f800283a 	ret

01002348 <sdhc_get_response>:
 1002348:	defff404 	addi	sp,sp,-48
 100234c:	dfc00b15 	stw	ra,44(sp)
 1002350:	df000a15 	stw	fp,40(sp)
 1002354:	df000a04 	addi	fp,sp,40
 1002358:	e13ffd15 	stw	r4,-12(fp)
 100235c:	e17ffe15 	stw	r5,-8(fp)
 1002360:	e1bfff15 	stw	r6,-4(fp)
 1002364:	e0bffe17 	ldw	r2,-8(fp)
 1002368:	e0bff715 	stw	r2,-36(fp)
 100236c:	e0bffd17 	ldw	r2,-12(fp)
 1002370:	10800017 	ldw	r2,0(r2)
 1002374:	10800b04 	addi	r2,r2,44
 1002378:	10800037 	ldwio	r2,0(r2)
 100237c:	e0bff815 	stw	r2,-32(fp)
 1002380:	e0bffd17 	ldw	r2,-12(fp)
 1002384:	10800017 	ldw	r2,0(r2)
 1002388:	10800c04 	addi	r2,r2,48
 100238c:	10800037 	ldwio	r2,0(r2)
 1002390:	e0bff915 	stw	r2,-28(fp)
 1002394:	e0bffd17 	ldw	r2,-12(fp)
 1002398:	10800017 	ldw	r2,0(r2)
 100239c:	10800d04 	addi	r2,r2,52
 10023a0:	10800037 	ldwio	r2,0(r2)
 10023a4:	e0bffa15 	stw	r2,-24(fp)
 10023a8:	e0bffd17 	ldw	r2,-12(fp)
 10023ac:	10800017 	ldw	r2,0(r2)
 10023b0:	10800e04 	addi	r2,r2,56
 10023b4:	10800037 	ldwio	r2,0(r2)
 10023b8:	e0bffb15 	stw	r2,-20(fp)
 10023bc:	e0bffd17 	ldw	r2,-12(fp)
 10023c0:	10800017 	ldw	r2,0(r2)
 10023c4:	10800f04 	addi	r2,r2,60
 10023c8:	10800037 	ldwio	r2,0(r2)
 10023cc:	e0bffc15 	stw	r2,-16(fp)
 10023d0:	e0bffd17 	ldw	r2,-12(fp)
 10023d4:	10800017 	ldw	r2,0(r2)
 10023d8:	10800704 	addi	r2,r2,28
 10023dc:	10800037 	ldwio	r2,0(r2)
 10023e0:	1080080c 	andi	r2,r2,32
 10023e4:	10000a26 	beq	r2,zero,1002410 <sdhc_get_response+0xc8>
 10023e8:	00804074 	movhi	r2,257
 10023ec:	108c3704 	addi	r2,r2,12508
 10023f0:	10800017 	ldw	r2,0(r2)
 10023f4:	108000a8 	cmpgeui	r2,r2,2
 10023f8:	1000031e 	bne	r2,zero,1002408 <sdhc_get_response+0xc0>
 10023fc:	01004074 	movhi	r4,257
 1002400:	21089504 	addi	r4,r4,8788
 1002404:	1010b240 	call	1010b24 <puts>
 1002408:	00bffc04 	movi	r2,-16
 100240c:	0000b406 	br	10026e0 <sdhc_get_response+0x398>
 1002410:	e0bffd17 	ldw	r2,-12(fp)
 1002414:	10800017 	ldw	r2,0(r2)
 1002418:	10800704 	addi	r2,r2,28
 100241c:	10800037 	ldwio	r2,0(r2)
 1002420:	1080400c 	andi	r2,r2,256
 1002424:	10000a26 	beq	r2,zero,1002450 <sdhc_get_response+0x108>
 1002428:	00804074 	movhi	r2,257
 100242c:	108c3704 	addi	r2,r2,12508
 1002430:	10800017 	ldw	r2,0(r2)
 1002434:	108000a8 	cmpgeui	r2,r2,2
 1002438:	1000031e 	bne	r2,zero,1002448 <sdhc_get_response+0x100>
 100243c:	01004074 	movhi	r4,257
 1002440:	2108a204 	addi	r4,r4,8840
 1002444:	1010b240 	call	1010b24 <puts>
 1002448:	00bffbc4 	movi	r2,-17
 100244c:	0000a406 	br	10026e0 <sdhc_get_response+0x398>
 1002450:	e0bfff17 	ldw	r2,-4(fp)
 1002454:	10800198 	cmpnei	r2,r2,6
 1002458:	10001d1e 	bne	r2,zero,10024d0 <sdhc_get_response+0x188>
 100245c:	e0bff917 	ldw	r2,-28(fp)
 1002460:	1004d23a 	srli	r2,r2,8
 1002464:	1007883a 	mov	r3,r2
 1002468:	e0bff717 	ldw	r2,-36(fp)
 100246c:	10c00005 	stb	r3,0(r2)
 1002470:	e0bff717 	ldw	r2,-36(fp)
 1002474:	10800044 	addi	r2,r2,1
 1002478:	e0fff917 	ldw	r3,-28(fp)
 100247c:	10c00005 	stb	r3,0(r2)
 1002480:	e0bff717 	ldw	r2,-36(fp)
 1002484:	10800084 	addi	r2,r2,2
 1002488:	e0fff817 	ldw	r3,-32(fp)
 100248c:	1806d63a 	srli	r3,r3,24
 1002490:	10c00005 	stb	r3,0(r2)
 1002494:	e0bff717 	ldw	r2,-36(fp)
 1002498:	108000c4 	addi	r2,r2,3
 100249c:	e0fff817 	ldw	r3,-32(fp)
 10024a0:	1806d43a 	srli	r3,r3,16
 10024a4:	10c00005 	stb	r3,0(r2)
 10024a8:	e0bff717 	ldw	r2,-36(fp)
 10024ac:	10800104 	addi	r2,r2,4
 10024b0:	e0fff817 	ldw	r3,-32(fp)
 10024b4:	1806d23a 	srli	r3,r3,8
 10024b8:	10c00005 	stb	r3,0(r2)
 10024bc:	e0bff717 	ldw	r2,-36(fp)
 10024c0:	10800144 	addi	r2,r2,5
 10024c4:	e0fff817 	ldw	r3,-32(fp)
 10024c8:	10c00005 	stb	r3,0(r2)
 10024cc:	00005e06 	br	1002648 <sdhc_get_response+0x300>
 10024d0:	e0bfff17 	ldw	r2,-4(fp)
 10024d4:	10800458 	cmpnei	r2,r2,17
 10024d8:	1000511e 	bne	r2,zero,1002620 <sdhc_get_response+0x2d8>
 10024dc:	e0bffc17 	ldw	r2,-16(fp)
 10024e0:	1007883a 	mov	r3,r2
 10024e4:	e0bff717 	ldw	r2,-36(fp)
 10024e8:	10c00005 	stb	r3,0(r2)
 10024ec:	e0bff717 	ldw	r2,-36(fp)
 10024f0:	10800104 	addi	r2,r2,4
 10024f4:	e0fffb17 	ldw	r3,-20(fp)
 10024f8:	1806d63a 	srli	r3,r3,24
 10024fc:	10c00005 	stb	r3,0(r2)
 1002500:	e0bff717 	ldw	r2,-36(fp)
 1002504:	108000c4 	addi	r2,r2,3
 1002508:	e0fffb17 	ldw	r3,-20(fp)
 100250c:	1806d43a 	srli	r3,r3,16
 1002510:	10c00005 	stb	r3,0(r2)
 1002514:	e0bff717 	ldw	r2,-36(fp)
 1002518:	10800084 	addi	r2,r2,2
 100251c:	e0fffb17 	ldw	r3,-20(fp)
 1002520:	1806d23a 	srli	r3,r3,8
 1002524:	10c00005 	stb	r3,0(r2)
 1002528:	e0bff717 	ldw	r2,-36(fp)
 100252c:	10800044 	addi	r2,r2,1
 1002530:	e0fffb17 	ldw	r3,-20(fp)
 1002534:	10c00005 	stb	r3,0(r2)
 1002538:	e0bff717 	ldw	r2,-36(fp)
 100253c:	10800204 	addi	r2,r2,8
 1002540:	e0fffa17 	ldw	r3,-24(fp)
 1002544:	1806d63a 	srli	r3,r3,24
 1002548:	10c00005 	stb	r3,0(r2)
 100254c:	e0bff717 	ldw	r2,-36(fp)
 1002550:	108001c4 	addi	r2,r2,7
 1002554:	e0fffa17 	ldw	r3,-24(fp)
 1002558:	1806d43a 	srli	r3,r3,16
 100255c:	10c00005 	stb	r3,0(r2)
 1002560:	e0bff717 	ldw	r2,-36(fp)
 1002564:	10800144 	addi	r2,r2,5
 1002568:	e0fffa17 	ldw	r3,-24(fp)
 100256c:	1806d23a 	srli	r3,r3,8
 1002570:	10c00005 	stb	r3,0(r2)
 1002574:	e0bff717 	ldw	r2,-36(fp)
 1002578:	10800184 	addi	r2,r2,6
 100257c:	e0fffa17 	ldw	r3,-24(fp)
 1002580:	10c00005 	stb	r3,0(r2)
 1002584:	e0bff717 	ldw	r2,-36(fp)
 1002588:	10800244 	addi	r2,r2,9
 100258c:	e0fff917 	ldw	r3,-28(fp)
 1002590:	1806d63a 	srli	r3,r3,24
 1002594:	10c00005 	stb	r3,0(r2)
 1002598:	e0bff717 	ldw	r2,-36(fp)
 100259c:	10800284 	addi	r2,r2,10
 10025a0:	e0fff917 	ldw	r3,-28(fp)
 10025a4:	1806d43a 	srli	r3,r3,16
 10025a8:	10c00005 	stb	r3,0(r2)
 10025ac:	e0bff717 	ldw	r2,-36(fp)
 10025b0:	108002c4 	addi	r2,r2,11
 10025b4:	e0fff917 	ldw	r3,-28(fp)
 10025b8:	1806d23a 	srli	r3,r3,8
 10025bc:	10c00005 	stb	r3,0(r2)
 10025c0:	e0bff717 	ldw	r2,-36(fp)
 10025c4:	10800304 	addi	r2,r2,12
 10025c8:	e0fff917 	ldw	r3,-28(fp)
 10025cc:	10c00005 	stb	r3,0(r2)
 10025d0:	e0bff717 	ldw	r2,-36(fp)
 10025d4:	10800344 	addi	r2,r2,13
 10025d8:	e0fff817 	ldw	r3,-32(fp)
 10025dc:	1806d63a 	srli	r3,r3,24
 10025e0:	10c00005 	stb	r3,0(r2)
 10025e4:	e0bff717 	ldw	r2,-36(fp)
 10025e8:	10800384 	addi	r2,r2,14
 10025ec:	e0fff817 	ldw	r3,-32(fp)
 10025f0:	1806d43a 	srli	r3,r3,16
 10025f4:	10c00005 	stb	r3,0(r2)
 10025f8:	e0bff717 	ldw	r2,-36(fp)
 10025fc:	108003c4 	addi	r2,r2,15
 1002600:	e0fff817 	ldw	r3,-32(fp)
 1002604:	1806d23a 	srli	r3,r3,8
 1002608:	10c00005 	stb	r3,0(r2)
 100260c:	e0bff717 	ldw	r2,-36(fp)
 1002610:	10800404 	addi	r2,r2,16
 1002614:	e0fff817 	ldw	r3,-32(fp)
 1002618:	10c00005 	stb	r3,0(r2)
 100261c:	00000a06 	br	1002648 <sdhc_get_response+0x300>
 1002620:	00804074 	movhi	r2,257
 1002624:	108c3704 	addi	r2,r2,12508
 1002628:	10800017 	ldw	r2,0(r2)
 100262c:	108000a8 	cmpgeui	r2,r2,2
 1002630:	1000031e 	bne	r2,zero,1002640 <sdhc_get_response+0x2f8>
 1002634:	01004074 	movhi	r4,257
 1002638:	2108b004 	addi	r4,r4,8896
 100263c:	1010b240 	call	1010b24 <puts>
 1002640:	00bffc44 	movi	r2,-15
 1002644:	00002606 	br	10026e0 <sdhc_get_response+0x398>
 1002648:	00804074 	movhi	r2,257
 100264c:	108c3704 	addi	r2,r2,12508
 1002650:	10800017 	ldw	r2,0(r2)
 1002654:	1000031e 	bne	r2,zero,1002664 <sdhc_get_response+0x31c>
 1002658:	01004074 	movhi	r4,257
 100265c:	2108b704 	addi	r4,r4,8924
 1002660:	1010a380 	call	1010a38 <printf>
 1002664:	e03ff605 	stb	zero,-40(fp)
 1002668:	00001006 	br	10026ac <sdhc_get_response+0x364>
 100266c:	00804074 	movhi	r2,257
 1002670:	108c3704 	addi	r2,r2,12508
 1002674:	10800017 	ldw	r2,0(r2)
 1002678:	1000091e 	bne	r2,zero,10026a0 <sdhc_get_response+0x358>
 100267c:	e0bff603 	ldbu	r2,-40(fp)
 1002680:	e0fff717 	ldw	r3,-36(fp)
 1002684:	1885883a 	add	r2,r3,r2
 1002688:	10800003 	ldbu	r2,0(r2)
 100268c:	10803fcc 	andi	r2,r2,255
 1002690:	01004074 	movhi	r4,257
 1002694:	2108ba04 	addi	r4,r4,8936
 1002698:	100b883a 	mov	r5,r2
 100269c:	1010a380 	call	1010a38 <printf>
 10026a0:	e0bff603 	ldbu	r2,-40(fp)
 10026a4:	10800044 	addi	r2,r2,1
 10026a8:	e0bff605 	stb	r2,-40(fp)
 10026ac:	e0fff603 	ldbu	r3,-40(fp)
 10026b0:	e0bfff17 	ldw	r2,-4(fp)
 10026b4:	18bfed36 	bltu	r3,r2,100266c <__alt_data_end+0xfffe1e6c>
 10026b8:	00804074 	movhi	r2,257
 10026bc:	108c3704 	addi	r2,r2,12508
 10026c0:	10800017 	ldw	r2,0(r2)
 10026c4:	1000021e 	bne	r2,zero,10026d0 <sdhc_get_response+0x388>
 10026c8:	01000284 	movi	r4,10
 10026cc:	1010a8c0 	call	1010a8c <putchar>
 10026d0:	e13ff717 	ldw	r4,-36(fp)
 10026d4:	e17fff17 	ldw	r5,-4(fp)
 10026d8:	10112d80 	call	10112d8 <alt_dcache_flush>
 10026dc:	0005883a 	mov	r2,zero
 10026e0:	e037883a 	mov	sp,fp
 10026e4:	dfc00117 	ldw	ra,4(sp)
 10026e8:	df000017 	ldw	fp,0(sp)
 10026ec:	dec00204 	addi	sp,sp,8
 10026f0:	f800283a 	ret

010026f4 <sdhc_sdio_read>:
 10026f4:	defff504 	addi	sp,sp,-44
 10026f8:	dfc00a15 	stw	ra,40(sp)
 10026fc:	df000915 	stw	fp,36(sp)
 1002700:	df000904 	addi	fp,sp,36
 1002704:	e13ffb15 	stw	r4,-20(fp)
 1002708:	e17ffc15 	stw	r5,-16(fp)
 100270c:	e1bffd15 	stw	r6,-12(fp)
 1002710:	e1fffe15 	stw	r7,-8(fp)
 1002714:	e0800317 	ldw	r2,12(fp)
 1002718:	e0bfff05 	stb	r2,-4(fp)
 100271c:	e03ff915 	stw	zero,-28(fp)
 1002720:	e0bffb17 	ldw	r2,-20(fp)
 1002724:	10800217 	ldw	r2,8(r2)
 1002728:	1000021e 	bne	r2,zero,1002734 <sdhc_sdio_read+0x40>
 100272c:	00bffd84 	movi	r2,-10
 1002730:	00006306 	br	10028c0 <sdhc_sdio_read+0x1cc>
 1002734:	e0c00217 	ldw	r3,8(fp)
 1002738:	e0bffe17 	ldw	r2,-8(fp)
 100273c:	1885383a 	mul	r2,r3,r2
 1002740:	e0bffa15 	stw	r2,-24(fp)
 1002744:	e1000417 	ldw	r4,16(fp)
 1002748:	e17ffa17 	ldw	r5,-24(fp)
 100274c:	10112d80 	call	10112d8 <alt_dcache_flush>
 1002750:	e0bffb17 	ldw	r2,-20(fp)
 1002754:	10800017 	ldw	r2,0(r2)
 1002758:	10800304 	addi	r2,r2,12
 100275c:	1007883a 	mov	r3,r2
 1002760:	e0800217 	ldw	r2,8(fp)
 1002764:	18800035 	stwio	r2,0(r3)
 1002768:	e0bffb17 	ldw	r2,-20(fp)
 100276c:	10800017 	ldw	r2,0(r2)
 1002770:	10800504 	addi	r2,r2,20
 1002774:	1007883a 	mov	r3,r2
 1002778:	e0800417 	ldw	r2,16(fp)
 100277c:	18800035 	stwio	r2,0(r3)
 1002780:	e0bffb17 	ldw	r2,-20(fp)
 1002784:	10800017 	ldw	r2,0(r2)
 1002788:	10800404 	addi	r2,r2,16
 100278c:	1007883a 	mov	r3,r2
 1002790:	e0bffa17 	ldw	r2,-24(fp)
 1002794:	18800035 	stwio	r2,0(r3)
 1002798:	e0bffb17 	ldw	r2,-20(fp)
 100279c:	10800017 	ldw	r2,0(r2)
 10027a0:	10800104 	addi	r2,r2,4
 10027a4:	1007883a 	mov	r3,r2
 10027a8:	00800804 	movi	r2,32
 10027ac:	18800035 	stwio	r2,0(r3)
 10027b0:	e0ffff03 	ldbu	r3,-4(fp)
 10027b4:	00800044 	movi	r2,1
 10027b8:	d8800015 	stw	r2,0(sp)
 10027bc:	d8000115 	stw	zero,4(sp)
 10027c0:	e13ffb17 	ldw	r4,-20(fp)
 10027c4:	e17ffc17 	ldw	r5,-16(fp)
 10027c8:	180d883a 	mov	r6,r3
 10027cc:	e1fffd17 	ldw	r7,-12(fp)
 10027d0:	10021bc0 	call	10021bc <sdhc_send_command>
 10027d4:	10000226 	beq	r2,zero,10027e0 <sdhc_sdio_read+0xec>
 10027d8:	00bffcc4 	movi	r2,-13
 10027dc:	00003806 	br	10028c0 <sdhc_sdio_read+0x1cc>
 10027e0:	0001883a 	nop
 10027e4:	e0bffb17 	ldw	r2,-20(fp)
 10027e8:	10800017 	ldw	r2,0(r2)
 10027ec:	10800704 	addi	r2,r2,28
 10027f0:	10800037 	ldwio	r2,0(r2)
 10027f4:	1080008c 	andi	r2,r2,2
 10027f8:	103ffa26 	beq	r2,zero,10027e4 <__alt_data_end+0xfffe1fe4>
 10027fc:	0001883a 	nop
 1002800:	e0bffb17 	ldw	r2,-20(fp)
 1002804:	10800017 	ldw	r2,0(r2)
 1002808:	10800704 	addi	r2,r2,28
 100280c:	10800037 	ldwio	r2,0(r2)
 1002810:	1080800c 	andi	r2,r2,512
 1002814:	103ffa26 	beq	r2,zero,1002800 <__alt_data_end+0xfffe2000>
 1002818:	e0bffb17 	ldw	r2,-20(fp)
 100281c:	10800017 	ldw	r2,0(r2)
 1002820:	10800704 	addi	r2,r2,28
 1002824:	10800037 	ldwio	r2,0(r2)
 1002828:	1080240c 	andi	r2,r2,144
 100282c:	10002026 	beq	r2,zero,10028b0 <sdhc_sdio_read+0x1bc>
 1002830:	e0bffb17 	ldw	r2,-20(fp)
 1002834:	10800017 	ldw	r2,0(r2)
 1002838:	10800704 	addi	r2,r2,28
 100283c:	10800037 	ldwio	r2,0(r2)
 1002840:	1080200c 	andi	r2,r2,128
 1002844:	10000a26 	beq	r2,zero,1002870 <sdhc_sdio_read+0x17c>
 1002848:	00804074 	movhi	r2,257
 100284c:	108c3704 	addi	r2,r2,12508
 1002850:	10800017 	ldw	r2,0(r2)
 1002854:	108000a8 	cmpgeui	r2,r2,2
 1002858:	1000031e 	bne	r2,zero,1002868 <sdhc_sdio_read+0x174>
 100285c:	01004074 	movhi	r4,257
 1002860:	2108bb04 	addi	r4,r4,8940
 1002864:	1010b240 	call	1010b24 <puts>
 1002868:	00bffac4 	movi	r2,-21
 100286c:	e0bff915 	stw	r2,-28(fp)
 1002870:	e0bffb17 	ldw	r2,-20(fp)
 1002874:	10800017 	ldw	r2,0(r2)
 1002878:	10800704 	addi	r2,r2,28
 100287c:	10800037 	ldwio	r2,0(r2)
 1002880:	1080040c 	andi	r2,r2,16
 1002884:	10000a26 	beq	r2,zero,10028b0 <sdhc_sdio_read+0x1bc>
 1002888:	00804074 	movhi	r2,257
 100288c:	108c3704 	addi	r2,r2,12508
 1002890:	10800017 	ldw	r2,0(r2)
 1002894:	108000a8 	cmpgeui	r2,r2,2
 1002898:	1000031e 	bne	r2,zero,10028a8 <sdhc_sdio_read+0x1b4>
 100289c:	01004074 	movhi	r4,257
 10028a0:	2108ca04 	addi	r4,r4,9000
 10028a4:	1010b240 	call	1010b24 <puts>
 10028a8:	00bffb04 	movi	r2,-20
 10028ac:	e0bff915 	stw	r2,-28(fp)
 10028b0:	e1000417 	ldw	r4,16(fp)
 10028b4:	e17ffa17 	ldw	r5,-24(fp)
 10028b8:	10112d80 	call	10112d8 <alt_dcache_flush>
 10028bc:	e0bff917 	ldw	r2,-28(fp)
 10028c0:	e037883a 	mov	sp,fp
 10028c4:	dfc00117 	ldw	ra,4(sp)
 10028c8:	df000017 	ldw	fp,0(sp)
 10028cc:	dec00204 	addi	sp,sp,8
 10028d0:	f800283a 	ret

010028d4 <sdhc_sdio_write>:
 10028d4:	defff504 	addi	sp,sp,-44
 10028d8:	dfc00a15 	stw	ra,40(sp)
 10028dc:	df000915 	stw	fp,36(sp)
 10028e0:	df000904 	addi	fp,sp,36
 10028e4:	e13ffb15 	stw	r4,-20(fp)
 10028e8:	e17ffc15 	stw	r5,-16(fp)
 10028ec:	e1bffd15 	stw	r6,-12(fp)
 10028f0:	e1fffe15 	stw	r7,-8(fp)
 10028f4:	e0800317 	ldw	r2,12(fp)
 10028f8:	e0bfff05 	stb	r2,-4(fp)
 10028fc:	e03ff915 	stw	zero,-28(fp)
 1002900:	e0fffe17 	ldw	r3,-8(fp)
 1002904:	e0800217 	ldw	r2,8(fp)
 1002908:	1885383a 	mul	r2,r3,r2
 100290c:	e0bffa15 	stw	r2,-24(fp)
 1002910:	e0bffb17 	ldw	r2,-20(fp)
 1002914:	10800217 	ldw	r2,8(r2)
 1002918:	1000021e 	bne	r2,zero,1002924 <sdhc_sdio_write+0x50>
 100291c:	00bffd84 	movi	r2,-10
 1002920:	00006606 	br	1002abc <sdhc_sdio_write+0x1e8>
 1002924:	e0bffb17 	ldw	r2,-20(fp)
 1002928:	10800317 	ldw	r2,12(r2)
 100292c:	10000226 	beq	r2,zero,1002938 <sdhc_sdio_write+0x64>
 1002930:	00bffd84 	movi	r2,-10
 1002934:	00006106 	br	1002abc <sdhc_sdio_write+0x1e8>
 1002938:	e1000417 	ldw	r4,16(fp)
 100293c:	e17ffa17 	ldw	r5,-24(fp)
 1002940:	10112d80 	call	10112d8 <alt_dcache_flush>
 1002944:	e0bffb17 	ldw	r2,-20(fp)
 1002948:	10800017 	ldw	r2,0(r2)
 100294c:	10800304 	addi	r2,r2,12
 1002950:	1007883a 	mov	r3,r2
 1002954:	e0800217 	ldw	r2,8(fp)
 1002958:	18800035 	stwio	r2,0(r3)
 100295c:	e0bffb17 	ldw	r2,-20(fp)
 1002960:	10800017 	ldw	r2,0(r2)
 1002964:	10800404 	addi	r2,r2,16
 1002968:	1007883a 	mov	r3,r2
 100296c:	e0bffa17 	ldw	r2,-24(fp)
 1002970:	18800035 	stwio	r2,0(r3)
 1002974:	e0bffb17 	ldw	r2,-20(fp)
 1002978:	10800017 	ldw	r2,0(r2)
 100297c:	10800504 	addi	r2,r2,20
 1002980:	1007883a 	mov	r3,r2
 1002984:	e0800417 	ldw	r2,16(fp)
 1002988:	18800035 	stwio	r2,0(r3)
 100298c:	e0bfff03 	ldbu	r2,-4(fp)
 1002990:	d8000015 	stw	zero,0(sp)
 1002994:	d8000115 	stw	zero,4(sp)
 1002998:	e13ffb17 	ldw	r4,-20(fp)
 100299c:	e17ffc17 	ldw	r5,-16(fp)
 10029a0:	100d883a 	mov	r6,r2
 10029a4:	e1fffd17 	ldw	r7,-12(fp)
 10029a8:	10021bc0 	call	10021bc <sdhc_send_command>
 10029ac:	10000226 	beq	r2,zero,10029b8 <sdhc_sdio_write+0xe4>
 10029b0:	00bffcc4 	movi	r2,-13
 10029b4:	00004106 	br	1002abc <sdhc_sdio_write+0x1e8>
 10029b8:	e0bffb17 	ldw	r2,-20(fp)
 10029bc:	10800017 	ldw	r2,0(r2)
 10029c0:	10800104 	addi	r2,r2,4
 10029c4:	1007883a 	mov	r3,r2
 10029c8:	00801004 	movi	r2,64
 10029cc:	18800035 	stwio	r2,0(r3)
 10029d0:	e0bffb17 	ldw	r2,-20(fp)
 10029d4:	10800017 	ldw	r2,0(r2)
 10029d8:	10800104 	addi	r2,r2,4
 10029dc:	1007883a 	mov	r3,r2
 10029e0:	00800044 	movi	r2,1
 10029e4:	18800035 	stwio	r2,0(r3)
 10029e8:	0001883a 	nop
 10029ec:	e0bffb17 	ldw	r2,-20(fp)
 10029f0:	10800017 	ldw	r2,0(r2)
 10029f4:	10800704 	addi	r2,r2,28
 10029f8:	10800037 	ldwio	r2,0(r2)
 10029fc:	1080004c 	andi	r2,r2,1
 1002a00:	103ffa26 	beq	r2,zero,10029ec <__alt_data_end+0xfffe21ec>
 1002a04:	0001883a 	nop
 1002a08:	e0bffb17 	ldw	r2,-20(fp)
 1002a0c:	10800017 	ldw	r2,0(r2)
 1002a10:	10800704 	addi	r2,r2,28
 1002a14:	10800037 	ldwio	r2,0(r2)
 1002a18:	1080800c 	andi	r2,r2,512
 1002a1c:	103ffa26 	beq	r2,zero,1002a08 <__alt_data_end+0xfffe2208>
 1002a20:	e0bffb17 	ldw	r2,-20(fp)
 1002a24:	10800017 	ldw	r2,0(r2)
 1002a28:	10800704 	addi	r2,r2,28
 1002a2c:	10800037 	ldwio	r2,0(r2)
 1002a30:	1080120c 	andi	r2,r2,72
 1002a34:	10002026 	beq	r2,zero,1002ab8 <sdhc_sdio_write+0x1e4>
 1002a38:	e0bffb17 	ldw	r2,-20(fp)
 1002a3c:	10800017 	ldw	r2,0(r2)
 1002a40:	10800704 	addi	r2,r2,28
 1002a44:	10800037 	ldwio	r2,0(r2)
 1002a48:	1080100c 	andi	r2,r2,64
 1002a4c:	10000a26 	beq	r2,zero,1002a78 <sdhc_sdio_write+0x1a4>
 1002a50:	00804074 	movhi	r2,257
 1002a54:	108c3704 	addi	r2,r2,12508
 1002a58:	10800017 	ldw	r2,0(r2)
 1002a5c:	108000a8 	cmpgeui	r2,r2,2
 1002a60:	1000031e 	bne	r2,zero,1002a70 <sdhc_sdio_write+0x19c>
 1002a64:	01004074 	movhi	r4,257
 1002a68:	2108d604 	addi	r4,r4,9048
 1002a6c:	1010b240 	call	1010b24 <puts>
 1002a70:	00bffb44 	movi	r2,-19
 1002a74:	e0bff915 	stw	r2,-28(fp)
 1002a78:	e0bffb17 	ldw	r2,-20(fp)
 1002a7c:	10800017 	ldw	r2,0(r2)
 1002a80:	10800704 	addi	r2,r2,28
 1002a84:	10800037 	ldwio	r2,0(r2)
 1002a88:	1080020c 	andi	r2,r2,8
 1002a8c:	10000a26 	beq	r2,zero,1002ab8 <sdhc_sdio_write+0x1e4>
 1002a90:	00804074 	movhi	r2,257
 1002a94:	108c3704 	addi	r2,r2,12508
 1002a98:	10800017 	ldw	r2,0(r2)
 1002a9c:	108000a8 	cmpgeui	r2,r2,2
 1002aa0:	1000031e 	bne	r2,zero,1002ab0 <sdhc_sdio_write+0x1dc>
 1002aa4:	01004074 	movhi	r4,257
 1002aa8:	2108e504 	addi	r4,r4,9108
 1002aac:	1010b240 	call	1010b24 <puts>
 1002ab0:	00bffb84 	movi	r2,-18
 1002ab4:	e0bff915 	stw	r2,-28(fp)
 1002ab8:	e0bff917 	ldw	r2,-28(fp)
 1002abc:	e037883a 	mov	sp,fp
 1002ac0:	dfc00117 	ldw	ra,4(sp)
 1002ac4:	df000017 	ldw	fp,0(sp)
 1002ac8:	dec00204 	addi	sp,sp,8
 1002acc:	f800283a 	ret

01002ad0 <sls_sdhc_irq>:
 1002ad0:	defff804 	addi	sp,sp,-32
 1002ad4:	dfc00715 	stw	ra,28(sp)
 1002ad8:	df000615 	stw	fp,24(sp)
 1002adc:	df000604 	addi	fp,sp,24
 1002ae0:	e13ffe15 	stw	r4,-8(fp)
 1002ae4:	e17fff15 	stw	r5,-4(fp)
 1002ae8:	e0bffe17 	ldw	r2,-8(fp)
 1002aec:	e0bffa15 	stw	r2,-24(fp)
 1002af0:	0005303a 	rdctl	r2,status
 1002af4:	e0bffc15 	stw	r2,-16(fp)
 1002af8:	e0fffc17 	ldw	r3,-16(fp)
 1002afc:	00bfff84 	movi	r2,-2
 1002b00:	1884703a 	and	r2,r3,r2
 1002b04:	1001703a 	wrctl	status,r2
 1002b08:	e0bffc17 	ldw	r2,-16(fp)
 1002b0c:	e0bffb15 	stw	r2,-20(fp)
 1002b10:	e0bffa17 	ldw	r2,-24(fp)
 1002b14:	10800017 	ldw	r2,0(r2)
 1002b18:	10800804 	addi	r2,r2,32
 1002b1c:	10800037 	ldwio	r2,0(r2)
 1002b20:	1081000c 	andi	r2,r2,1024
 1002b24:	10005826 	beq	r2,zero,1002c88 <sls_sdhc_irq+0x1b8>
 1002b28:	e0bffa17 	ldw	r2,-24(fp)
 1002b2c:	10800017 	ldw	r2,0(r2)
 1002b30:	10800704 	addi	r2,r2,28
 1002b34:	10800037 	ldwio	r2,0(r2)
 1002b38:	1090000c 	andi	r2,r2,16384
 1002b3c:	10005026 	beq	r2,zero,1002c80 <sls_sdhc_irq+0x1b0>
 1002b40:	e0bffa17 	ldw	r2,-24(fp)
 1002b44:	00ffffd4 	movui	r3,65535
 1002b48:	10c02115 	stw	r3,132(r2)
 1002b4c:	e0bffa17 	ldw	r2,-24(fp)
 1002b50:	00ffffd4 	movui	r3,65535
 1002b54:	10c02215 	stw	r3,136(r2)
 1002b58:	e0bffa17 	ldw	r2,-24(fp)
 1002b5c:	00ffffd4 	movui	r3,65535
 1002b60:	10c02315 	stw	r3,140(r2)
 1002b64:	e0bffa17 	ldw	r2,-24(fp)
 1002b68:	10800017 	ldw	r2,0(r2)
 1002b6c:	10800804 	addi	r2,r2,32
 1002b70:	1007883a 	mov	r3,r2
 1002b74:	e0bffa17 	ldw	r2,-24(fp)
 1002b78:	10802117 	ldw	r2,132(r2)
 1002b7c:	18800035 	stwio	r2,0(r3)
 1002b80:	e0bffa17 	ldw	r2,-24(fp)
 1002b84:	10800017 	ldw	r2,0(r2)
 1002b88:	10800904 	addi	r2,r2,36
 1002b8c:	1007883a 	mov	r3,r2
 1002b90:	e0bffa17 	ldw	r2,-24(fp)
 1002b94:	10802217 	ldw	r2,136(r2)
 1002b98:	18800035 	stwio	r2,0(r3)
 1002b9c:	e0bffa17 	ldw	r2,-24(fp)
 1002ba0:	10800017 	ldw	r2,0(r2)
 1002ba4:	10800a04 	addi	r2,r2,40
 1002ba8:	1007883a 	mov	r3,r2
 1002bac:	e0bffa17 	ldw	r2,-24(fp)
 1002bb0:	10802317 	ldw	r2,140(r2)
 1002bb4:	18800035 	stwio	r2,0(r3)
 1002bb8:	e13ffa17 	ldw	r4,-24(fp)
 1002bbc:	1007d8c0 	call	1007d8c <sdhc_card_init>
 1002bc0:	1000081e 	bne	r2,zero,1002be4 <sls_sdhc_irq+0x114>
 1002bc4:	e0bffa17 	ldw	r2,-24(fp)
 1002bc8:	10800417 	ldw	r2,16(r2)
 1002bcc:	10000526 	beq	r2,zero,1002be4 <sls_sdhc_irq+0x114>
 1002bd0:	e0bffa17 	ldw	r2,-24(fp)
 1002bd4:	10000415 	stw	zero,16(r2)
 1002bd8:	e13ffa17 	ldw	r4,-24(fp)
 1002bdc:	01400044 	movi	r5,1
 1002be0:	10076d80 	call	10076d8 <sdhc_mode_select>
 1002be4:	e13ffa17 	ldw	r4,-24(fp)
 1002be8:	10072a00 	call	10072a0 <sdhc_set_high_speed_mode>
 1002bec:	e0fffa17 	ldw	r3,-24(fp)
 1002bf0:	00840034 	movhi	r2,4096
 1002bf4:	10bffc04 	addi	r2,r2,-16
 1002bf8:	18802115 	stw	r2,132(r3)
 1002bfc:	e0fffa17 	ldw	r3,-24(fp)
 1002c00:	00840034 	movhi	r2,4096
 1002c04:	10bffc04 	addi	r2,r2,-16
 1002c08:	18802215 	stw	r2,136(r3)
 1002c0c:	e0fffa17 	ldw	r3,-24(fp)
 1002c10:	00804034 	movhi	r2,256
 1002c14:	10bffc04 	addi	r2,r2,-16
 1002c18:	18802315 	stw	r2,140(r3)
 1002c1c:	e0bffa17 	ldw	r2,-24(fp)
 1002c20:	10800017 	ldw	r2,0(r2)
 1002c24:	10800804 	addi	r2,r2,32
 1002c28:	1007883a 	mov	r3,r2
 1002c2c:	e0bffa17 	ldw	r2,-24(fp)
 1002c30:	10802117 	ldw	r2,132(r2)
 1002c34:	18800035 	stwio	r2,0(r3)
 1002c38:	e0bffa17 	ldw	r2,-24(fp)
 1002c3c:	10800017 	ldw	r2,0(r2)
 1002c40:	10800904 	addi	r2,r2,36
 1002c44:	1007883a 	mov	r3,r2
 1002c48:	e0bffa17 	ldw	r2,-24(fp)
 1002c4c:	10802217 	ldw	r2,136(r2)
 1002c50:	18800035 	stwio	r2,0(r3)
 1002c54:	e0bffa17 	ldw	r2,-24(fp)
 1002c58:	10800017 	ldw	r2,0(r2)
 1002c5c:	10800a04 	addi	r2,r2,40
 1002c60:	1007883a 	mov	r3,r2
 1002c64:	e0bffa17 	ldw	r2,-24(fp)
 1002c68:	10802317 	ldw	r2,140(r2)
 1002c6c:	18800035 	stwio	r2,0(r3)
 1002c70:	e0bffa17 	ldw	r2,-24(fp)
 1002c74:	00c00044 	movi	r3,1
 1002c78:	10c00215 	stw	r3,8(r2)
 1002c7c:	00000206 	br	1002c88 <sls_sdhc_irq+0x1b8>
 1002c80:	e0bffa17 	ldw	r2,-24(fp)
 1002c84:	10000215 	stw	zero,8(r2)
 1002c88:	e0bffa17 	ldw	r2,-24(fp)
 1002c8c:	10800017 	ldw	r2,0(r2)
 1002c90:	10800604 	addi	r2,r2,24
 1002c94:	1007883a 	mov	r3,r2
 1002c98:	e0bffa17 	ldw	r2,-24(fp)
 1002c9c:	10800017 	ldw	r2,0(r2)
 1002ca0:	10800604 	addi	r2,r2,24
 1002ca4:	10800037 	ldwio	r2,0(r2)
 1002ca8:	18800035 	stwio	r2,0(r3)
 1002cac:	e0bffb17 	ldw	r2,-20(fp)
 1002cb0:	e0bffd15 	stw	r2,-12(fp)
 1002cb4:	e0bffd17 	ldw	r2,-12(fp)
 1002cb8:	1001703a 	wrctl	status,r2
 1002cbc:	0001883a 	nop
 1002cc0:	e037883a 	mov	sp,fp
 1002cc4:	dfc00117 	ldw	ra,4(sp)
 1002cc8:	df000017 	ldw	fp,0(sp)
 1002ccc:	dec00204 	addi	sp,sp,8
 1002cd0:	f800283a 	ret

01002cd4 <sdhc_init>:
 1002cd4:	defffa04 	addi	sp,sp,-24
 1002cd8:	dfc00515 	stw	ra,20(sp)
 1002cdc:	df000415 	stw	fp,16(sp)
 1002ce0:	df000404 	addi	fp,sp,16
 1002ce4:	e13ffd15 	stw	r4,-12(fp)
 1002ce8:	e17ffe15 	stw	r5,-8(fp)
 1002cec:	e1bfff15 	stw	r6,-4(fp)
 1002cf0:	e03ffc15 	stw	zero,-16(fp)
 1002cf4:	e0bffe17 	ldw	r2,-8(fp)
 1002cf8:	10e00034 	orhi	r3,r2,32768
 1002cfc:	e0bffd17 	ldw	r2,-12(fp)
 1002d00:	10c00015 	stw	r3,0(r2)
 1002d04:	e0bffd17 	ldw	r2,-12(fp)
 1002d08:	10800017 	ldw	r2,0(r2)
 1002d0c:	10800204 	addi	r2,r2,8
 1002d10:	1007883a 	mov	r3,r2
 1002d14:	00900004 	movi	r2,16384
 1002d18:	18800035 	stwio	r2,0(r3)
 1002d1c:	e0bffd17 	ldw	r2,-12(fp)
 1002d20:	10000415 	stw	zero,16(r2)
 1002d24:	e0bffd17 	ldw	r2,-12(fp)
 1002d28:	e0ffff17 	ldw	r3,-4(fp)
 1002d2c:	10c00115 	stw	r3,4(r2)
 1002d30:	e0bffd17 	ldw	r2,-12(fp)
 1002d34:	10000215 	stw	zero,8(r2)
 1002d38:	e0bffd17 	ldw	r2,-12(fp)
 1002d3c:	10802017 	ldw	r2,128(r2)
 1002d40:	10d00034 	orhi	r3,r2,16384
 1002d44:	e0bffd17 	ldw	r2,-12(fp)
 1002d48:	10c02015 	stw	r3,128(r2)
 1002d4c:	e0bffd17 	ldw	r2,-12(fp)
 1002d50:	00ffffd4 	movui	r3,65535
 1002d54:	10c02115 	stw	r3,132(r2)
 1002d58:	e0bffd17 	ldw	r2,-12(fp)
 1002d5c:	00ffffd4 	movui	r3,65535
 1002d60:	10c02215 	stw	r3,136(r2)
 1002d64:	e0bffd17 	ldw	r2,-12(fp)
 1002d68:	00ffffd4 	movui	r3,65535
 1002d6c:	10c02315 	stw	r3,140(r2)
 1002d70:	e0bffd17 	ldw	r2,-12(fp)
 1002d74:	10800017 	ldw	r2,0(r2)
 1002d78:	10800804 	addi	r2,r2,32
 1002d7c:	1007883a 	mov	r3,r2
 1002d80:	e0bffd17 	ldw	r2,-12(fp)
 1002d84:	10802117 	ldw	r2,132(r2)
 1002d88:	18800035 	stwio	r2,0(r3)
 1002d8c:	e0bffd17 	ldw	r2,-12(fp)
 1002d90:	10800017 	ldw	r2,0(r2)
 1002d94:	10800904 	addi	r2,r2,36
 1002d98:	1007883a 	mov	r3,r2
 1002d9c:	e0bffd17 	ldw	r2,-12(fp)
 1002da0:	10802217 	ldw	r2,136(r2)
 1002da4:	18800035 	stwio	r2,0(r3)
 1002da8:	e0bffd17 	ldw	r2,-12(fp)
 1002dac:	10800017 	ldw	r2,0(r2)
 1002db0:	10800a04 	addi	r2,r2,40
 1002db4:	1007883a 	mov	r3,r2
 1002db8:	e0bffd17 	ldw	r2,-12(fp)
 1002dbc:	10802317 	ldw	r2,140(r2)
 1002dc0:	18800035 	stwio	r2,0(r3)
 1002dc4:	e0bffd17 	ldw	r2,-12(fp)
 1002dc8:	10800017 	ldw	r2,0(r2)
 1002dcc:	10800604 	addi	r2,r2,24
 1002dd0:	1007883a 	mov	r3,r2
 1002dd4:	00830004 	movi	r2,3072
 1002dd8:	18800035 	stwio	r2,0(r3)
 1002ddc:	e13ffd17 	ldw	r4,-12(fp)
 1002de0:	1001e880 	call	1001e88 <sdhc_sd_present>
 1002de4:	10800058 	cmpnei	r2,r2,1
 1002de8:	1000041e 	bne	r2,zero,1002dfc <sdhc_init+0x128>
 1002dec:	e13ffd17 	ldw	r4,-12(fp)
 1002df0:	1007d8c0 	call	1007d8c <sdhc_card_init>
 1002df4:	e0bffc15 	stw	r2,-16(fp)
 1002df8:	00000a06 	br	1002e24 <sdhc_init+0x150>
 1002dfc:	00804074 	movhi	r2,257
 1002e00:	108c3704 	addi	r2,r2,12508
 1002e04:	10800017 	ldw	r2,0(r2)
 1002e08:	108000a8 	cmpgeui	r2,r2,2
 1002e0c:	1000031e 	bne	r2,zero,1002e1c <sdhc_init+0x148>
 1002e10:	01004074 	movhi	r4,257
 1002e14:	2108f104 	addi	r4,r4,9156
 1002e18:	1010b240 	call	1010b24 <puts>
 1002e1c:	00bffd84 	movi	r2,-10
 1002e20:	e0bffc15 	stw	r2,-16(fp)
 1002e24:	e0bffd17 	ldw	r2,-12(fp)
 1002e28:	10800017 	ldw	r2,0(r2)
 1002e2c:	10800604 	addi	r2,r2,24
 1002e30:	1007883a 	mov	r3,r2
 1002e34:	e0bffd17 	ldw	r2,-12(fp)
 1002e38:	10800017 	ldw	r2,0(r2)
 1002e3c:	10800604 	addi	r2,r2,24
 1002e40:	10800037 	ldwio	r2,0(r2)
 1002e44:	18800035 	stwio	r2,0(r3)
 1002e48:	e0fffd17 	ldw	r3,-12(fp)
 1002e4c:	00804034 	movhi	r2,256
 1002e50:	10bffc04 	addi	r2,r2,-16
 1002e54:	18802115 	stw	r2,132(r3)
 1002e58:	e0fffd17 	ldw	r3,-12(fp)
 1002e5c:	00840034 	movhi	r2,4096
 1002e60:	10bffc04 	addi	r2,r2,-16
 1002e64:	18802215 	stw	r2,136(r3)
 1002e68:	e0fffd17 	ldw	r3,-12(fp)
 1002e6c:	00804034 	movhi	r2,256
 1002e70:	10bffc04 	addi	r2,r2,-16
 1002e74:	18802315 	stw	r2,140(r3)
 1002e78:	e0bffd17 	ldw	r2,-12(fp)
 1002e7c:	10800017 	ldw	r2,0(r2)
 1002e80:	10800804 	addi	r2,r2,32
 1002e84:	1007883a 	mov	r3,r2
 1002e88:	e0bffd17 	ldw	r2,-12(fp)
 1002e8c:	10802117 	ldw	r2,132(r2)
 1002e90:	18800035 	stwio	r2,0(r3)
 1002e94:	e0bffd17 	ldw	r2,-12(fp)
 1002e98:	10800017 	ldw	r2,0(r2)
 1002e9c:	10800904 	addi	r2,r2,36
 1002ea0:	1007883a 	mov	r3,r2
 1002ea4:	e0bffd17 	ldw	r2,-12(fp)
 1002ea8:	10802217 	ldw	r2,136(r2)
 1002eac:	18800035 	stwio	r2,0(r3)
 1002eb0:	e0bffd17 	ldw	r2,-12(fp)
 1002eb4:	10800017 	ldw	r2,0(r2)
 1002eb8:	10800a04 	addi	r2,r2,40
 1002ebc:	1007883a 	mov	r3,r2
 1002ec0:	e0bffd17 	ldw	r2,-12(fp)
 1002ec4:	10802317 	ldw	r2,140(r2)
 1002ec8:	18800035 	stwio	r2,0(r3)
 1002ecc:	e13fff17 	ldw	r4,-4(fp)
 1002ed0:	e17ffd17 	ldw	r5,-12(fp)
 1002ed4:	01804034 	movhi	r6,256
 1002ed8:	318ab404 	addi	r6,r6,10960
 1002edc:	10113000 	call	1011300 <alt_irq_register>
 1002ee0:	e0bffc17 	ldw	r2,-16(fp)
 1002ee4:	e037883a 	mov	sp,fp
 1002ee8:	dfc00117 	ldw	ra,4(sp)
 1002eec:	df000017 	ldw	fp,0(sp)
 1002ef0:	dec00204 	addi	sp,sp,8
 1002ef4:	f800283a 	ret

01002ef8 <sdhc_set_debug_level>:
 1002ef8:	defffe04 	addi	sp,sp,-8
 1002efc:	df000115 	stw	fp,4(sp)
 1002f00:	df000104 	addi	fp,sp,4
 1002f04:	e13fff15 	stw	r4,-4(fp)
 1002f08:	e0bfff17 	ldw	r2,-4(fp)
 1002f0c:	d0a00115 	stw	r2,-32764(gp)
 1002f10:	e037883a 	mov	sp,fp
 1002f14:	df000017 	ldw	fp,0(sp)
 1002f18:	dec00104 	addi	sp,sp,4
 1002f1c:	f800283a 	ret

01002f20 <sdhc_decode_cid>:
 1002f20:	deff7b04 	addi	sp,sp,-532
 1002f24:	dfc08415 	stw	ra,528(sp)
 1002f28:	df008315 	stw	fp,524(sp)
 1002f2c:	df008304 	addi	fp,sp,524
 1002f30:	e13ffd15 	stw	r4,-12(fp)
 1002f34:	e17ffe15 	stw	r5,-8(fp)
 1002f38:	e1bfff15 	stw	r6,-4(fp)
 1002f3c:	e13ffe17 	ldw	r4,-8(fp)
 1002f40:	000b883a 	mov	r5,zero
 1002f44:	01800604 	movi	r6,24
 1002f48:	10109dc0 	call	10109dc <memset>
 1002f4c:	e0bffd17 	ldw	r2,-12(fp)
 1002f50:	10802617 	ldw	r2,152(r2)
 1002f54:	108000d8 	cmpnei	r2,r2,3
 1002f58:	1003831e 	bne	r2,zero,1003d68 <sdhc_decode_cid+0xe48>
 1002f5c:	00800204 	movi	r2,8
 1002f60:	e0bf9915 	stw	r2,-412(fp)
 1002f64:	e0bf9917 	ldw	r2,-412(fp)
 1002f68:	10800808 	cmpgei	r2,r2,32
 1002f6c:	1000051e 	bne	r2,zero,1002f84 <sdhc_decode_cid+0x64>
 1002f70:	00c00044 	movi	r3,1
 1002f74:	e0bf9917 	ldw	r2,-412(fp)
 1002f78:	1884983a 	sll	r2,r3,r2
 1002f7c:	10bfffc4 	addi	r2,r2,-1
 1002f80:	00000106 	br	1002f88 <sdhc_decode_cid+0x68>
 1002f84:	00bfffc4 	movi	r2,-1
 1002f88:	e0bf9a15 	stw	r2,-408(fp)
 1002f8c:	e03f9b15 	stw	zero,-404(fp)
 1002f90:	00800604 	movi	r2,24
 1002f94:	e0bf9c15 	stw	r2,-400(fp)
 1002f98:	e0bf9b17 	ldw	r2,-404(fp)
 1002f9c:	1085883a 	add	r2,r2,r2
 1002fa0:	1085883a 	add	r2,r2,r2
 1002fa4:	1007883a 	mov	r3,r2
 1002fa8:	e0bfff17 	ldw	r2,-4(fp)
 1002fac:	10c5883a 	add	r2,r2,r3
 1002fb0:	10c00017 	ldw	r3,0(r2)
 1002fb4:	e0bf9c17 	ldw	r2,-400(fp)
 1002fb8:	1884d83a 	srl	r2,r3,r2
 1002fbc:	e0bf8015 	stw	r2,-512(fp)
 1002fc0:	e0ff9917 	ldw	r3,-412(fp)
 1002fc4:	e0bf9c17 	ldw	r2,-400(fp)
 1002fc8:	1885883a 	add	r2,r3,r2
 1002fcc:	10800850 	cmplti	r2,r2,33
 1002fd0:	1000161e 	bne	r2,zero,100302c <sdhc_decode_cid+0x10c>
 1002fd4:	e0bf9b17 	ldw	r2,-404(fp)
 1002fd8:	1085883a 	add	r2,r2,r2
 1002fdc:	1085883a 	add	r2,r2,r2
 1002fe0:	10bfff04 	addi	r2,r2,-4
 1002fe4:	e0ffff17 	ldw	r3,-4(fp)
 1002fe8:	1885883a 	add	r2,r3,r2
 1002fec:	10c00017 	ldw	r3,0(r2)
 1002ff0:	01000804 	movi	r4,32
 1002ff4:	e0bf9c17 	ldw	r2,-400(fp)
 1002ff8:	2089c83a 	sub	r4,r4,r2
 1002ffc:	00a00034 	movhi	r2,32768
 1003000:	108007c4 	addi	r2,r2,31
 1003004:	2084703a 	and	r2,r4,r2
 1003008:	1000040e 	bge	r2,zero,100301c <sdhc_decode_cid+0xfc>
 100300c:	10bfffc4 	addi	r2,r2,-1
 1003010:	013ff804 	movi	r4,-32
 1003014:	1104b03a 	or	r2,r2,r4
 1003018:	10800044 	addi	r2,r2,1
 100301c:	1884983a 	sll	r2,r3,r2
 1003020:	e0ff8017 	ldw	r3,-512(fp)
 1003024:	1884b03a 	or	r2,r3,r2
 1003028:	e0bf8015 	stw	r2,-512(fp)
 100302c:	e0ff8017 	ldw	r3,-512(fp)
 1003030:	e0bf9a17 	ldw	r2,-408(fp)
 1003034:	1886703a 	and	r3,r3,r2
 1003038:	e0bffe17 	ldw	r2,-8(fp)
 100303c:	10c00015 	stw	r3,0(r2)
 1003040:	00800204 	movi	r2,8
 1003044:	e0bf9d15 	stw	r2,-396(fp)
 1003048:	e0bf9d17 	ldw	r2,-396(fp)
 100304c:	10800808 	cmpgei	r2,r2,32
 1003050:	1000051e 	bne	r2,zero,1003068 <sdhc_decode_cid+0x148>
 1003054:	00c00044 	movi	r3,1
 1003058:	e0bf9d17 	ldw	r2,-396(fp)
 100305c:	1884983a 	sll	r2,r3,r2
 1003060:	10bfffc4 	addi	r2,r2,-1
 1003064:	00000106 	br	100306c <sdhc_decode_cid+0x14c>
 1003068:	00bfffc4 	movi	r2,-1
 100306c:	e0bf9e15 	stw	r2,-392(fp)
 1003070:	e03f9f15 	stw	zero,-388(fp)
 1003074:	00800204 	movi	r2,8
 1003078:	e0bfa015 	stw	r2,-384(fp)
 100307c:	e0bf9f17 	ldw	r2,-388(fp)
 1003080:	1085883a 	add	r2,r2,r2
 1003084:	1085883a 	add	r2,r2,r2
 1003088:	1007883a 	mov	r3,r2
 100308c:	e0bfff17 	ldw	r2,-4(fp)
 1003090:	10c5883a 	add	r2,r2,r3
 1003094:	10c00017 	ldw	r3,0(r2)
 1003098:	e0bfa017 	ldw	r2,-384(fp)
 100309c:	1884d83a 	srl	r2,r3,r2
 10030a0:	e0bf8115 	stw	r2,-508(fp)
 10030a4:	e0ff9d17 	ldw	r3,-396(fp)
 10030a8:	e0bfa017 	ldw	r2,-384(fp)
 10030ac:	1885883a 	add	r2,r3,r2
 10030b0:	10800850 	cmplti	r2,r2,33
 10030b4:	1000161e 	bne	r2,zero,1003110 <sdhc_decode_cid+0x1f0>
 10030b8:	e0bf9f17 	ldw	r2,-388(fp)
 10030bc:	1085883a 	add	r2,r2,r2
 10030c0:	1085883a 	add	r2,r2,r2
 10030c4:	10bfff04 	addi	r2,r2,-4
 10030c8:	e0ffff17 	ldw	r3,-4(fp)
 10030cc:	1885883a 	add	r2,r3,r2
 10030d0:	10c00017 	ldw	r3,0(r2)
 10030d4:	01000804 	movi	r4,32
 10030d8:	e0bfa017 	ldw	r2,-384(fp)
 10030dc:	2089c83a 	sub	r4,r4,r2
 10030e0:	00a00034 	movhi	r2,32768
 10030e4:	108007c4 	addi	r2,r2,31
 10030e8:	2084703a 	and	r2,r4,r2
 10030ec:	1000040e 	bge	r2,zero,1003100 <sdhc_decode_cid+0x1e0>
 10030f0:	10bfffc4 	addi	r2,r2,-1
 10030f4:	013ff804 	movi	r4,-32
 10030f8:	1104b03a 	or	r2,r2,r4
 10030fc:	10800044 	addi	r2,r2,1
 1003100:	1884983a 	sll	r2,r3,r2
 1003104:	e0ff8117 	ldw	r3,-508(fp)
 1003108:	1884b03a 	or	r2,r3,r2
 100310c:	e0bf8115 	stw	r2,-508(fp)
 1003110:	e0ff8117 	ldw	r3,-508(fp)
 1003114:	e0bf9e17 	ldw	r2,-392(fp)
 1003118:	1884703a 	and	r2,r3,r2
 100311c:	1007883a 	mov	r3,r2
 1003120:	e0bffe17 	ldw	r2,-8(fp)
 1003124:	10c0040d 	sth	r3,16(r2)
 1003128:	00800204 	movi	r2,8
 100312c:	e0bfa115 	stw	r2,-380(fp)
 1003130:	e0bfa117 	ldw	r2,-380(fp)
 1003134:	10800808 	cmpgei	r2,r2,32
 1003138:	1000051e 	bne	r2,zero,1003150 <sdhc_decode_cid+0x230>
 100313c:	00c00044 	movi	r3,1
 1003140:	e0bfa117 	ldw	r2,-380(fp)
 1003144:	1884983a 	sll	r2,r3,r2
 1003148:	10bfffc4 	addi	r2,r2,-1
 100314c:	00000106 	br	1003154 <sdhc_decode_cid+0x234>
 1003150:	00bfffc4 	movi	r2,-1
 1003154:	e0bfa215 	stw	r2,-376(fp)
 1003158:	e03fa315 	stw	zero,-372(fp)
 100315c:	e03fa415 	stw	zero,-368(fp)
 1003160:	e0bfa317 	ldw	r2,-372(fp)
 1003164:	1085883a 	add	r2,r2,r2
 1003168:	1085883a 	add	r2,r2,r2
 100316c:	1007883a 	mov	r3,r2
 1003170:	e0bfff17 	ldw	r2,-4(fp)
 1003174:	10c5883a 	add	r2,r2,r3
 1003178:	10c00017 	ldw	r3,0(r2)
 100317c:	e0bfa417 	ldw	r2,-368(fp)
 1003180:	1884d83a 	srl	r2,r3,r2
 1003184:	e0bf8215 	stw	r2,-504(fp)
 1003188:	e0ffa117 	ldw	r3,-380(fp)
 100318c:	e0bfa417 	ldw	r2,-368(fp)
 1003190:	1885883a 	add	r2,r3,r2
 1003194:	10800850 	cmplti	r2,r2,33
 1003198:	1000161e 	bne	r2,zero,10031f4 <sdhc_decode_cid+0x2d4>
 100319c:	e0bfa317 	ldw	r2,-372(fp)
 10031a0:	1085883a 	add	r2,r2,r2
 10031a4:	1085883a 	add	r2,r2,r2
 10031a8:	10bfff04 	addi	r2,r2,-4
 10031ac:	e0ffff17 	ldw	r3,-4(fp)
 10031b0:	1885883a 	add	r2,r3,r2
 10031b4:	10c00017 	ldw	r3,0(r2)
 10031b8:	01000804 	movi	r4,32
 10031bc:	e0bfa417 	ldw	r2,-368(fp)
 10031c0:	2089c83a 	sub	r4,r4,r2
 10031c4:	00a00034 	movhi	r2,32768
 10031c8:	108007c4 	addi	r2,r2,31
 10031cc:	2084703a 	and	r2,r4,r2
 10031d0:	1000040e 	bge	r2,zero,10031e4 <sdhc_decode_cid+0x2c4>
 10031d4:	10bfffc4 	addi	r2,r2,-1
 10031d8:	013ff804 	movi	r4,-32
 10031dc:	1104b03a 	or	r2,r2,r4
 10031e0:	10800044 	addi	r2,r2,1
 10031e4:	1884983a 	sll	r2,r3,r2
 10031e8:	e0ff8217 	ldw	r3,-504(fp)
 10031ec:	1884b03a 	or	r2,r3,r2
 10031f0:	e0bf8215 	stw	r2,-504(fp)
 10031f4:	e0ff8217 	ldw	r3,-504(fp)
 10031f8:	e0bfa217 	ldw	r2,-376(fp)
 10031fc:	1884703a 	and	r2,r3,r2
 1003200:	1007883a 	mov	r3,r2
 1003204:	e0bffe17 	ldw	r2,-8(fp)
 1003208:	10c00105 	stb	r3,4(r2)
 100320c:	00800204 	movi	r2,8
 1003210:	e0bfa515 	stw	r2,-364(fp)
 1003214:	e0bfa517 	ldw	r2,-364(fp)
 1003218:	10800808 	cmpgei	r2,r2,32
 100321c:	1000051e 	bne	r2,zero,1003234 <sdhc_decode_cid+0x314>
 1003220:	00c00044 	movi	r3,1
 1003224:	e0bfa517 	ldw	r2,-364(fp)
 1003228:	1884983a 	sll	r2,r3,r2
 100322c:	10bfffc4 	addi	r2,r2,-1
 1003230:	00000106 	br	1003238 <sdhc_decode_cid+0x318>
 1003234:	00bfffc4 	movi	r2,-1
 1003238:	e0bfa615 	stw	r2,-360(fp)
 100323c:	00800044 	movi	r2,1
 1003240:	e0bfa715 	stw	r2,-356(fp)
 1003244:	00800604 	movi	r2,24
 1003248:	e0bfa815 	stw	r2,-352(fp)
 100324c:	e0bfa717 	ldw	r2,-356(fp)
 1003250:	1085883a 	add	r2,r2,r2
 1003254:	1085883a 	add	r2,r2,r2
 1003258:	1007883a 	mov	r3,r2
 100325c:	e0bfff17 	ldw	r2,-4(fp)
 1003260:	10c5883a 	add	r2,r2,r3
 1003264:	10c00017 	ldw	r3,0(r2)
 1003268:	e0bfa817 	ldw	r2,-352(fp)
 100326c:	1884d83a 	srl	r2,r3,r2
 1003270:	e0bf8315 	stw	r2,-500(fp)
 1003274:	e0ffa517 	ldw	r3,-364(fp)
 1003278:	e0bfa817 	ldw	r2,-352(fp)
 100327c:	1885883a 	add	r2,r3,r2
 1003280:	10800850 	cmplti	r2,r2,33
 1003284:	1000161e 	bne	r2,zero,10032e0 <sdhc_decode_cid+0x3c0>
 1003288:	e0bfa717 	ldw	r2,-356(fp)
 100328c:	1085883a 	add	r2,r2,r2
 1003290:	1085883a 	add	r2,r2,r2
 1003294:	10bfff04 	addi	r2,r2,-4
 1003298:	e0ffff17 	ldw	r3,-4(fp)
 100329c:	1885883a 	add	r2,r3,r2
 10032a0:	10c00017 	ldw	r3,0(r2)
 10032a4:	01000804 	movi	r4,32
 10032a8:	e0bfa817 	ldw	r2,-352(fp)
 10032ac:	2089c83a 	sub	r4,r4,r2
 10032b0:	00a00034 	movhi	r2,32768
 10032b4:	108007c4 	addi	r2,r2,31
 10032b8:	2084703a 	and	r2,r4,r2
 10032bc:	1000040e 	bge	r2,zero,10032d0 <sdhc_decode_cid+0x3b0>
 10032c0:	10bfffc4 	addi	r2,r2,-1
 10032c4:	013ff804 	movi	r4,-32
 10032c8:	1104b03a 	or	r2,r2,r4
 10032cc:	10800044 	addi	r2,r2,1
 10032d0:	1884983a 	sll	r2,r3,r2
 10032d4:	e0ff8317 	ldw	r3,-500(fp)
 10032d8:	1884b03a 	or	r2,r3,r2
 10032dc:	e0bf8315 	stw	r2,-500(fp)
 10032e0:	e0ff8317 	ldw	r3,-500(fp)
 10032e4:	e0bfa617 	ldw	r2,-360(fp)
 10032e8:	1884703a 	and	r2,r3,r2
 10032ec:	1007883a 	mov	r3,r2
 10032f0:	e0bffe17 	ldw	r2,-8(fp)
 10032f4:	10c00145 	stb	r3,5(r2)
 10032f8:	00800204 	movi	r2,8
 10032fc:	e0bfa915 	stw	r2,-348(fp)
 1003300:	e0bfa917 	ldw	r2,-348(fp)
 1003304:	10800808 	cmpgei	r2,r2,32
 1003308:	1000051e 	bne	r2,zero,1003320 <sdhc_decode_cid+0x400>
 100330c:	00c00044 	movi	r3,1
 1003310:	e0bfa917 	ldw	r2,-348(fp)
 1003314:	1884983a 	sll	r2,r3,r2
 1003318:	10bfffc4 	addi	r2,r2,-1
 100331c:	00000106 	br	1003324 <sdhc_decode_cid+0x404>
 1003320:	00bfffc4 	movi	r2,-1
 1003324:	e0bfaa15 	stw	r2,-344(fp)
 1003328:	00800044 	movi	r2,1
 100332c:	e0bfab15 	stw	r2,-340(fp)
 1003330:	00800404 	movi	r2,16
 1003334:	e0bfac15 	stw	r2,-336(fp)
 1003338:	e0bfab17 	ldw	r2,-340(fp)
 100333c:	1085883a 	add	r2,r2,r2
 1003340:	1085883a 	add	r2,r2,r2
 1003344:	1007883a 	mov	r3,r2
 1003348:	e0bfff17 	ldw	r2,-4(fp)
 100334c:	10c5883a 	add	r2,r2,r3
 1003350:	10c00017 	ldw	r3,0(r2)
 1003354:	e0bfac17 	ldw	r2,-336(fp)
 1003358:	1884d83a 	srl	r2,r3,r2
 100335c:	e0bf8415 	stw	r2,-496(fp)
 1003360:	e0ffa917 	ldw	r3,-348(fp)
 1003364:	e0bfac17 	ldw	r2,-336(fp)
 1003368:	1885883a 	add	r2,r3,r2
 100336c:	10800850 	cmplti	r2,r2,33
 1003370:	1000161e 	bne	r2,zero,10033cc <sdhc_decode_cid+0x4ac>
 1003374:	e0bfab17 	ldw	r2,-340(fp)
 1003378:	1085883a 	add	r2,r2,r2
 100337c:	1085883a 	add	r2,r2,r2
 1003380:	10bfff04 	addi	r2,r2,-4
 1003384:	e0ffff17 	ldw	r3,-4(fp)
 1003388:	1885883a 	add	r2,r3,r2
 100338c:	10c00017 	ldw	r3,0(r2)
 1003390:	01000804 	movi	r4,32
 1003394:	e0bfac17 	ldw	r2,-336(fp)
 1003398:	2089c83a 	sub	r4,r4,r2
 100339c:	00a00034 	movhi	r2,32768
 10033a0:	108007c4 	addi	r2,r2,31
 10033a4:	2084703a 	and	r2,r4,r2
 10033a8:	1000040e 	bge	r2,zero,10033bc <sdhc_decode_cid+0x49c>
 10033ac:	10bfffc4 	addi	r2,r2,-1
 10033b0:	013ff804 	movi	r4,-32
 10033b4:	1104b03a 	or	r2,r2,r4
 10033b8:	10800044 	addi	r2,r2,1
 10033bc:	1884983a 	sll	r2,r3,r2
 10033c0:	e0ff8417 	ldw	r3,-496(fp)
 10033c4:	1884b03a 	or	r2,r3,r2
 10033c8:	e0bf8415 	stw	r2,-496(fp)
 10033cc:	e0ff8417 	ldw	r3,-496(fp)
 10033d0:	e0bfaa17 	ldw	r2,-344(fp)
 10033d4:	1884703a 	and	r2,r3,r2
 10033d8:	1007883a 	mov	r3,r2
 10033dc:	e0bffe17 	ldw	r2,-8(fp)
 10033e0:	10c00185 	stb	r3,6(r2)
 10033e4:	00800204 	movi	r2,8
 10033e8:	e0bfad15 	stw	r2,-332(fp)
 10033ec:	e0bfad17 	ldw	r2,-332(fp)
 10033f0:	10800808 	cmpgei	r2,r2,32
 10033f4:	1000051e 	bne	r2,zero,100340c <sdhc_decode_cid+0x4ec>
 10033f8:	00c00044 	movi	r3,1
 10033fc:	e0bfad17 	ldw	r2,-332(fp)
 1003400:	1884983a 	sll	r2,r3,r2
 1003404:	10bfffc4 	addi	r2,r2,-1
 1003408:	00000106 	br	1003410 <sdhc_decode_cid+0x4f0>
 100340c:	00bfffc4 	movi	r2,-1
 1003410:	e0bfae15 	stw	r2,-328(fp)
 1003414:	00800044 	movi	r2,1
 1003418:	e0bfaf15 	stw	r2,-324(fp)
 100341c:	00800204 	movi	r2,8
 1003420:	e0bfb015 	stw	r2,-320(fp)
 1003424:	e0bfaf17 	ldw	r2,-324(fp)
 1003428:	1085883a 	add	r2,r2,r2
 100342c:	1085883a 	add	r2,r2,r2
 1003430:	1007883a 	mov	r3,r2
 1003434:	e0bfff17 	ldw	r2,-4(fp)
 1003438:	10c5883a 	add	r2,r2,r3
 100343c:	10c00017 	ldw	r3,0(r2)
 1003440:	e0bfb017 	ldw	r2,-320(fp)
 1003444:	1884d83a 	srl	r2,r3,r2
 1003448:	e0bf8515 	stw	r2,-492(fp)
 100344c:	e0ffad17 	ldw	r3,-332(fp)
 1003450:	e0bfb017 	ldw	r2,-320(fp)
 1003454:	1885883a 	add	r2,r3,r2
 1003458:	10800850 	cmplti	r2,r2,33
 100345c:	1000161e 	bne	r2,zero,10034b8 <sdhc_decode_cid+0x598>
 1003460:	e0bfaf17 	ldw	r2,-324(fp)
 1003464:	1085883a 	add	r2,r2,r2
 1003468:	1085883a 	add	r2,r2,r2
 100346c:	10bfff04 	addi	r2,r2,-4
 1003470:	e0ffff17 	ldw	r3,-4(fp)
 1003474:	1885883a 	add	r2,r3,r2
 1003478:	10c00017 	ldw	r3,0(r2)
 100347c:	01000804 	movi	r4,32
 1003480:	e0bfb017 	ldw	r2,-320(fp)
 1003484:	2089c83a 	sub	r4,r4,r2
 1003488:	00a00034 	movhi	r2,32768
 100348c:	108007c4 	addi	r2,r2,31
 1003490:	2084703a 	and	r2,r4,r2
 1003494:	1000040e 	bge	r2,zero,10034a8 <sdhc_decode_cid+0x588>
 1003498:	10bfffc4 	addi	r2,r2,-1
 100349c:	013ff804 	movi	r4,-32
 10034a0:	1104b03a 	or	r2,r2,r4
 10034a4:	10800044 	addi	r2,r2,1
 10034a8:	1884983a 	sll	r2,r3,r2
 10034ac:	e0ff8517 	ldw	r3,-492(fp)
 10034b0:	1884b03a 	or	r2,r3,r2
 10034b4:	e0bf8515 	stw	r2,-492(fp)
 10034b8:	e0ff8517 	ldw	r3,-492(fp)
 10034bc:	e0bfae17 	ldw	r2,-328(fp)
 10034c0:	1884703a 	and	r2,r3,r2
 10034c4:	1007883a 	mov	r3,r2
 10034c8:	e0bffe17 	ldw	r2,-8(fp)
 10034cc:	10c001c5 	stb	r3,7(r2)
 10034d0:	00800204 	movi	r2,8
 10034d4:	e0bfb115 	stw	r2,-316(fp)
 10034d8:	e0bfb117 	ldw	r2,-316(fp)
 10034dc:	10800808 	cmpgei	r2,r2,32
 10034e0:	1000051e 	bne	r2,zero,10034f8 <sdhc_decode_cid+0x5d8>
 10034e4:	00c00044 	movi	r3,1
 10034e8:	e0bfb117 	ldw	r2,-316(fp)
 10034ec:	1884983a 	sll	r2,r3,r2
 10034f0:	10bfffc4 	addi	r2,r2,-1
 10034f4:	00000106 	br	10034fc <sdhc_decode_cid+0x5dc>
 10034f8:	00bfffc4 	movi	r2,-1
 10034fc:	e0bfb215 	stw	r2,-312(fp)
 1003500:	00800044 	movi	r2,1
 1003504:	e0bfb315 	stw	r2,-308(fp)
 1003508:	e03fb415 	stw	zero,-304(fp)
 100350c:	e0bfb317 	ldw	r2,-308(fp)
 1003510:	1085883a 	add	r2,r2,r2
 1003514:	1085883a 	add	r2,r2,r2
 1003518:	1007883a 	mov	r3,r2
 100351c:	e0bfff17 	ldw	r2,-4(fp)
 1003520:	10c5883a 	add	r2,r2,r3
 1003524:	10c00017 	ldw	r3,0(r2)
 1003528:	e0bfb417 	ldw	r2,-304(fp)
 100352c:	1884d83a 	srl	r2,r3,r2
 1003530:	e0bf8615 	stw	r2,-488(fp)
 1003534:	e0ffb117 	ldw	r3,-316(fp)
 1003538:	e0bfb417 	ldw	r2,-304(fp)
 100353c:	1885883a 	add	r2,r3,r2
 1003540:	10800850 	cmplti	r2,r2,33
 1003544:	1000161e 	bne	r2,zero,10035a0 <sdhc_decode_cid+0x680>
 1003548:	e0bfb317 	ldw	r2,-308(fp)
 100354c:	1085883a 	add	r2,r2,r2
 1003550:	1085883a 	add	r2,r2,r2
 1003554:	10bfff04 	addi	r2,r2,-4
 1003558:	e0ffff17 	ldw	r3,-4(fp)
 100355c:	1885883a 	add	r2,r3,r2
 1003560:	10c00017 	ldw	r3,0(r2)
 1003564:	01000804 	movi	r4,32
 1003568:	e0bfb417 	ldw	r2,-304(fp)
 100356c:	2089c83a 	sub	r4,r4,r2
 1003570:	00a00034 	movhi	r2,32768
 1003574:	108007c4 	addi	r2,r2,31
 1003578:	2084703a 	and	r2,r4,r2
 100357c:	1000040e 	bge	r2,zero,1003590 <sdhc_decode_cid+0x670>
 1003580:	10bfffc4 	addi	r2,r2,-1
 1003584:	013ff804 	movi	r4,-32
 1003588:	1104b03a 	or	r2,r2,r4
 100358c:	10800044 	addi	r2,r2,1
 1003590:	1884983a 	sll	r2,r3,r2
 1003594:	e0ff8617 	ldw	r3,-488(fp)
 1003598:	1884b03a 	or	r2,r3,r2
 100359c:	e0bf8615 	stw	r2,-488(fp)
 10035a0:	e0ff8617 	ldw	r3,-488(fp)
 10035a4:	e0bfb217 	ldw	r2,-312(fp)
 10035a8:	1884703a 	and	r2,r3,r2
 10035ac:	1007883a 	mov	r3,r2
 10035b0:	e0bffe17 	ldw	r2,-8(fp)
 10035b4:	10c00205 	stb	r3,8(r2)
 10035b8:	00800204 	movi	r2,8
 10035bc:	e0bfb515 	stw	r2,-300(fp)
 10035c0:	e0bfb517 	ldw	r2,-300(fp)
 10035c4:	10800808 	cmpgei	r2,r2,32
 10035c8:	1000051e 	bne	r2,zero,10035e0 <sdhc_decode_cid+0x6c0>
 10035cc:	00c00044 	movi	r3,1
 10035d0:	e0bfb517 	ldw	r2,-300(fp)
 10035d4:	1884983a 	sll	r2,r3,r2
 10035d8:	10bfffc4 	addi	r2,r2,-1
 10035dc:	00000106 	br	10035e4 <sdhc_decode_cid+0x6c4>
 10035e0:	00bfffc4 	movi	r2,-1
 10035e4:	e0bfb615 	stw	r2,-296(fp)
 10035e8:	00800084 	movi	r2,2
 10035ec:	e0bfb715 	stw	r2,-292(fp)
 10035f0:	00800604 	movi	r2,24
 10035f4:	e0bfb815 	stw	r2,-288(fp)
 10035f8:	e0bfb717 	ldw	r2,-292(fp)
 10035fc:	1085883a 	add	r2,r2,r2
 1003600:	1085883a 	add	r2,r2,r2
 1003604:	1007883a 	mov	r3,r2
 1003608:	e0bfff17 	ldw	r2,-4(fp)
 100360c:	10c5883a 	add	r2,r2,r3
 1003610:	10c00017 	ldw	r3,0(r2)
 1003614:	e0bfb817 	ldw	r2,-288(fp)
 1003618:	1884d83a 	srl	r2,r3,r2
 100361c:	e0bf8715 	stw	r2,-484(fp)
 1003620:	e0ffb517 	ldw	r3,-300(fp)
 1003624:	e0bfb817 	ldw	r2,-288(fp)
 1003628:	1885883a 	add	r2,r3,r2
 100362c:	10800850 	cmplti	r2,r2,33
 1003630:	1000161e 	bne	r2,zero,100368c <sdhc_decode_cid+0x76c>
 1003634:	e0bfb717 	ldw	r2,-292(fp)
 1003638:	1085883a 	add	r2,r2,r2
 100363c:	1085883a 	add	r2,r2,r2
 1003640:	10bfff04 	addi	r2,r2,-4
 1003644:	e0ffff17 	ldw	r3,-4(fp)
 1003648:	1885883a 	add	r2,r3,r2
 100364c:	10c00017 	ldw	r3,0(r2)
 1003650:	01000804 	movi	r4,32
 1003654:	e0bfb817 	ldw	r2,-288(fp)
 1003658:	2089c83a 	sub	r4,r4,r2
 100365c:	00a00034 	movhi	r2,32768
 1003660:	108007c4 	addi	r2,r2,31
 1003664:	2084703a 	and	r2,r4,r2
 1003668:	1000040e 	bge	r2,zero,100367c <sdhc_decode_cid+0x75c>
 100366c:	10bfffc4 	addi	r2,r2,-1
 1003670:	013ff804 	movi	r4,-32
 1003674:	1104b03a 	or	r2,r2,r4
 1003678:	10800044 	addi	r2,r2,1
 100367c:	1884983a 	sll	r2,r3,r2
 1003680:	e0ff8717 	ldw	r3,-484(fp)
 1003684:	1884b03a 	or	r2,r3,r2
 1003688:	e0bf8715 	stw	r2,-484(fp)
 100368c:	e0ff8717 	ldw	r3,-484(fp)
 1003690:	e0bfb617 	ldw	r2,-296(fp)
 1003694:	1884703a 	and	r2,r3,r2
 1003698:	1007883a 	mov	r3,r2
 100369c:	e0bffe17 	ldw	r2,-8(fp)
 10036a0:	10c00245 	stb	r3,9(r2)
 10036a4:	00800104 	movi	r2,4
 10036a8:	e0bfb915 	stw	r2,-284(fp)
 10036ac:	e0bfb917 	ldw	r2,-284(fp)
 10036b0:	10800808 	cmpgei	r2,r2,32
 10036b4:	1000051e 	bne	r2,zero,10036cc <sdhc_decode_cid+0x7ac>
 10036b8:	00c00044 	movi	r3,1
 10036bc:	e0bfb917 	ldw	r2,-284(fp)
 10036c0:	1884983a 	sll	r2,r3,r2
 10036c4:	10bfffc4 	addi	r2,r2,-1
 10036c8:	00000106 	br	10036d0 <sdhc_decode_cid+0x7b0>
 10036cc:	00bfffc4 	movi	r2,-1
 10036d0:	e0bfba15 	stw	r2,-280(fp)
 10036d4:	00800084 	movi	r2,2
 10036d8:	e0bfbb15 	stw	r2,-276(fp)
 10036dc:	00800504 	movi	r2,20
 10036e0:	e0bfbc15 	stw	r2,-272(fp)
 10036e4:	e0bfbb17 	ldw	r2,-276(fp)
 10036e8:	1085883a 	add	r2,r2,r2
 10036ec:	1085883a 	add	r2,r2,r2
 10036f0:	1007883a 	mov	r3,r2
 10036f4:	e0bfff17 	ldw	r2,-4(fp)
 10036f8:	10c5883a 	add	r2,r2,r3
 10036fc:	10c00017 	ldw	r3,0(r2)
 1003700:	e0bfbc17 	ldw	r2,-272(fp)
 1003704:	1884d83a 	srl	r2,r3,r2
 1003708:	e0bf8815 	stw	r2,-480(fp)
 100370c:	e0ffb917 	ldw	r3,-284(fp)
 1003710:	e0bfbc17 	ldw	r2,-272(fp)
 1003714:	1885883a 	add	r2,r3,r2
 1003718:	10800850 	cmplti	r2,r2,33
 100371c:	1000161e 	bne	r2,zero,1003778 <sdhc_decode_cid+0x858>
 1003720:	e0bfbb17 	ldw	r2,-276(fp)
 1003724:	1085883a 	add	r2,r2,r2
 1003728:	1085883a 	add	r2,r2,r2
 100372c:	10bfff04 	addi	r2,r2,-4
 1003730:	e0ffff17 	ldw	r3,-4(fp)
 1003734:	1885883a 	add	r2,r3,r2
 1003738:	10c00017 	ldw	r3,0(r2)
 100373c:	01000804 	movi	r4,32
 1003740:	e0bfbc17 	ldw	r2,-272(fp)
 1003744:	2089c83a 	sub	r4,r4,r2
 1003748:	00a00034 	movhi	r2,32768
 100374c:	108007c4 	addi	r2,r2,31
 1003750:	2084703a 	and	r2,r4,r2
 1003754:	1000040e 	bge	r2,zero,1003768 <sdhc_decode_cid+0x848>
 1003758:	10bfffc4 	addi	r2,r2,-1
 100375c:	013ff804 	movi	r4,-32
 1003760:	1104b03a 	or	r2,r2,r4
 1003764:	10800044 	addi	r2,r2,1
 1003768:	1884983a 	sll	r2,r3,r2
 100376c:	e0ff8817 	ldw	r3,-480(fp)
 1003770:	1884b03a 	or	r2,r3,r2
 1003774:	e0bf8815 	stw	r2,-480(fp)
 1003778:	e0ff8817 	ldw	r3,-480(fp)
 100377c:	e0bfba17 	ldw	r2,-280(fp)
 1003780:	1884703a 	and	r2,r3,r2
 1003784:	1007883a 	mov	r3,r2
 1003788:	e0bffe17 	ldw	r2,-8(fp)
 100378c:	10c00505 	stb	r3,20(r2)
 1003790:	00800104 	movi	r2,4
 1003794:	e0bfbd15 	stw	r2,-268(fp)
 1003798:	e0bfbd17 	ldw	r2,-268(fp)
 100379c:	10800808 	cmpgei	r2,r2,32
 10037a0:	1000051e 	bne	r2,zero,10037b8 <sdhc_decode_cid+0x898>
 10037a4:	00c00044 	movi	r3,1
 10037a8:	e0bfbd17 	ldw	r2,-268(fp)
 10037ac:	1884983a 	sll	r2,r3,r2
 10037b0:	10bfffc4 	addi	r2,r2,-1
 10037b4:	00000106 	br	10037bc <sdhc_decode_cid+0x89c>
 10037b8:	00bfffc4 	movi	r2,-1
 10037bc:	e0bfbe15 	stw	r2,-264(fp)
 10037c0:	00800084 	movi	r2,2
 10037c4:	e0bfbf15 	stw	r2,-260(fp)
 10037c8:	00800404 	movi	r2,16
 10037cc:	e0bfc015 	stw	r2,-256(fp)
 10037d0:	e0bfbf17 	ldw	r2,-260(fp)
 10037d4:	1085883a 	add	r2,r2,r2
 10037d8:	1085883a 	add	r2,r2,r2
 10037dc:	1007883a 	mov	r3,r2
 10037e0:	e0bfff17 	ldw	r2,-4(fp)
 10037e4:	10c5883a 	add	r2,r2,r3
 10037e8:	10c00017 	ldw	r3,0(r2)
 10037ec:	e0bfc017 	ldw	r2,-256(fp)
 10037f0:	1884d83a 	srl	r2,r3,r2
 10037f4:	e0bf8915 	stw	r2,-476(fp)
 10037f8:	e0ffbd17 	ldw	r3,-268(fp)
 10037fc:	e0bfc017 	ldw	r2,-256(fp)
 1003800:	1885883a 	add	r2,r3,r2
 1003804:	10800850 	cmplti	r2,r2,33
 1003808:	1000161e 	bne	r2,zero,1003864 <sdhc_decode_cid+0x944>
 100380c:	e0bfbf17 	ldw	r2,-260(fp)
 1003810:	1085883a 	add	r2,r2,r2
 1003814:	1085883a 	add	r2,r2,r2
 1003818:	10bfff04 	addi	r2,r2,-4
 100381c:	e0ffff17 	ldw	r3,-4(fp)
 1003820:	1885883a 	add	r2,r3,r2
 1003824:	10c00017 	ldw	r3,0(r2)
 1003828:	01000804 	movi	r4,32
 100382c:	e0bfc017 	ldw	r2,-256(fp)
 1003830:	2089c83a 	sub	r4,r4,r2
 1003834:	00a00034 	movhi	r2,32768
 1003838:	108007c4 	addi	r2,r2,31
 100383c:	2084703a 	and	r2,r4,r2
 1003840:	1000040e 	bge	r2,zero,1003854 <sdhc_decode_cid+0x934>
 1003844:	10bfffc4 	addi	r2,r2,-1
 1003848:	013ff804 	movi	r4,-32
 100384c:	1104b03a 	or	r2,r2,r4
 1003850:	10800044 	addi	r2,r2,1
 1003854:	1884983a 	sll	r2,r3,r2
 1003858:	e0ff8917 	ldw	r3,-476(fp)
 100385c:	1884b03a 	or	r2,r3,r2
 1003860:	e0bf8915 	stw	r2,-476(fp)
 1003864:	e0ff8917 	ldw	r3,-476(fp)
 1003868:	e0bfbe17 	ldw	r2,-264(fp)
 100386c:	1884703a 	and	r2,r3,r2
 1003870:	1007883a 	mov	r3,r2
 1003874:	e0bffe17 	ldw	r2,-8(fp)
 1003878:	10c00545 	stb	r3,21(r2)
 100387c:	00800804 	movi	r2,32
 1003880:	e0bfc115 	stw	r2,-252(fp)
 1003884:	e0bfc117 	ldw	r2,-252(fp)
 1003888:	10800808 	cmpgei	r2,r2,32
 100388c:	1000051e 	bne	r2,zero,10038a4 <sdhc_decode_cid+0x984>
 1003890:	00c00044 	movi	r3,1
 1003894:	e0bfc117 	ldw	r2,-252(fp)
 1003898:	1884983a 	sll	r2,r3,r2
 100389c:	10bfffc4 	addi	r2,r2,-1
 10038a0:	00000106 	br	10038a8 <sdhc_decode_cid+0x988>
 10038a4:	00bfffc4 	movi	r2,-1
 10038a8:	e0bfc215 	stw	r2,-248(fp)
 10038ac:	008000c4 	movi	r2,3
 10038b0:	e0bfc315 	stw	r2,-244(fp)
 10038b4:	00800404 	movi	r2,16
 10038b8:	e0bfc415 	stw	r2,-240(fp)
 10038bc:	e0bfc317 	ldw	r2,-244(fp)
 10038c0:	1085883a 	add	r2,r2,r2
 10038c4:	1085883a 	add	r2,r2,r2
 10038c8:	1007883a 	mov	r3,r2
 10038cc:	e0bfff17 	ldw	r2,-4(fp)
 10038d0:	10c5883a 	add	r2,r2,r3
 10038d4:	10c00017 	ldw	r3,0(r2)
 10038d8:	e0bfc417 	ldw	r2,-240(fp)
 10038dc:	1884d83a 	srl	r2,r3,r2
 10038e0:	e0bf8a15 	stw	r2,-472(fp)
 10038e4:	e0ffc117 	ldw	r3,-252(fp)
 10038e8:	e0bfc417 	ldw	r2,-240(fp)
 10038ec:	1885883a 	add	r2,r3,r2
 10038f0:	10800850 	cmplti	r2,r2,33
 10038f4:	1000161e 	bne	r2,zero,1003950 <sdhc_decode_cid+0xa30>
 10038f8:	e0bfc317 	ldw	r2,-244(fp)
 10038fc:	1085883a 	add	r2,r2,r2
 1003900:	1085883a 	add	r2,r2,r2
 1003904:	10bfff04 	addi	r2,r2,-4
 1003908:	e0ffff17 	ldw	r3,-4(fp)
 100390c:	1885883a 	add	r2,r3,r2
 1003910:	10c00017 	ldw	r3,0(r2)
 1003914:	01000804 	movi	r4,32
 1003918:	e0bfc417 	ldw	r2,-240(fp)
 100391c:	2089c83a 	sub	r4,r4,r2
 1003920:	00a00034 	movhi	r2,32768
 1003924:	108007c4 	addi	r2,r2,31
 1003928:	2084703a 	and	r2,r4,r2
 100392c:	1000040e 	bge	r2,zero,1003940 <sdhc_decode_cid+0xa20>
 1003930:	10bfffc4 	addi	r2,r2,-1
 1003934:	013ff804 	movi	r4,-32
 1003938:	1104b03a 	or	r2,r2,r4
 100393c:	10800044 	addi	r2,r2,1
 1003940:	1884983a 	sll	r2,r3,r2
 1003944:	e0ff8a17 	ldw	r3,-472(fp)
 1003948:	1884b03a 	or	r2,r3,r2
 100394c:	e0bf8a15 	stw	r2,-472(fp)
 1003950:	e0ff8a17 	ldw	r3,-472(fp)
 1003954:	e0bfc217 	ldw	r2,-248(fp)
 1003958:	1886703a 	and	r3,r3,r2
 100395c:	e0bffe17 	ldw	r2,-8(fp)
 1003960:	10c00315 	stw	r3,12(r2)
 1003964:	00800104 	movi	r2,4
 1003968:	e0bfc515 	stw	r2,-236(fp)
 100396c:	e0bfc517 	ldw	r2,-236(fp)
 1003970:	10800808 	cmpgei	r2,r2,32
 1003974:	1000051e 	bne	r2,zero,100398c <sdhc_decode_cid+0xa6c>
 1003978:	00c00044 	movi	r3,1
 100397c:	e0bfc517 	ldw	r2,-236(fp)
 1003980:	1884983a 	sll	r2,r3,r2
 1003984:	10bfffc4 	addi	r2,r2,-1
 1003988:	00000106 	br	1003990 <sdhc_decode_cid+0xa70>
 100398c:	00bfffc4 	movi	r2,-1
 1003990:	e0bfc615 	stw	r2,-232(fp)
 1003994:	008000c4 	movi	r2,3
 1003998:	e0bfc715 	stw	r2,-228(fp)
 100399c:	00800204 	movi	r2,8
 10039a0:	e0bfc815 	stw	r2,-224(fp)
 10039a4:	e0bfc717 	ldw	r2,-228(fp)
 10039a8:	1085883a 	add	r2,r2,r2
 10039ac:	1085883a 	add	r2,r2,r2
 10039b0:	1007883a 	mov	r3,r2
 10039b4:	e0bfff17 	ldw	r2,-4(fp)
 10039b8:	10c5883a 	add	r2,r2,r3
 10039bc:	10c00017 	ldw	r3,0(r2)
 10039c0:	e0bfc817 	ldw	r2,-224(fp)
 10039c4:	1884d83a 	srl	r2,r3,r2
 10039c8:	e0bf8b15 	stw	r2,-468(fp)
 10039cc:	e0ffc517 	ldw	r3,-236(fp)
 10039d0:	e0bfc817 	ldw	r2,-224(fp)
 10039d4:	1885883a 	add	r2,r3,r2
 10039d8:	10800850 	cmplti	r2,r2,33
 10039dc:	1000161e 	bne	r2,zero,1003a38 <sdhc_decode_cid+0xb18>
 10039e0:	e0bfc717 	ldw	r2,-228(fp)
 10039e4:	1085883a 	add	r2,r2,r2
 10039e8:	1085883a 	add	r2,r2,r2
 10039ec:	10bfff04 	addi	r2,r2,-4
 10039f0:	e0ffff17 	ldw	r3,-4(fp)
 10039f4:	1885883a 	add	r2,r3,r2
 10039f8:	10c00017 	ldw	r3,0(r2)
 10039fc:	01000804 	movi	r4,32
 1003a00:	e0bfc817 	ldw	r2,-224(fp)
 1003a04:	2089c83a 	sub	r4,r4,r2
 1003a08:	00a00034 	movhi	r2,32768
 1003a0c:	108007c4 	addi	r2,r2,31
 1003a10:	2084703a 	and	r2,r4,r2
 1003a14:	1000040e 	bge	r2,zero,1003a28 <sdhc_decode_cid+0xb08>
 1003a18:	10bfffc4 	addi	r2,r2,-1
 1003a1c:	013ff804 	movi	r4,-32
 1003a20:	1104b03a 	or	r2,r2,r4
 1003a24:	10800044 	addi	r2,r2,1
 1003a28:	1884983a 	sll	r2,r3,r2
 1003a2c:	e0ff8b17 	ldw	r3,-468(fp)
 1003a30:	1884b03a 	or	r2,r3,r2
 1003a34:	e0bf8b15 	stw	r2,-468(fp)
 1003a38:	e0ff8b17 	ldw	r3,-468(fp)
 1003a3c:	e0bfc617 	ldw	r2,-232(fp)
 1003a40:	1884703a 	and	r2,r3,r2
 1003a44:	1007883a 	mov	r3,r2
 1003a48:	e0bffe17 	ldw	r2,-8(fp)
 1003a4c:	10c0048d 	sth	r3,18(r2)
 1003a50:	00800104 	movi	r2,4
 1003a54:	e0bfc915 	stw	r2,-220(fp)
 1003a58:	e0bfc917 	ldw	r2,-220(fp)
 1003a5c:	10800808 	cmpgei	r2,r2,32
 1003a60:	1000051e 	bne	r2,zero,1003a78 <sdhc_decode_cid+0xb58>
 1003a64:	00c00044 	movi	r3,1
 1003a68:	e0bfc917 	ldw	r2,-220(fp)
 1003a6c:	1884983a 	sll	r2,r3,r2
 1003a70:	10bfffc4 	addi	r2,r2,-1
 1003a74:	00000106 	br	1003a7c <sdhc_decode_cid+0xb5c>
 1003a78:	00bfffc4 	movi	r2,-1
 1003a7c:	e0bfca15 	stw	r2,-216(fp)
 1003a80:	008000c4 	movi	r2,3
 1003a84:	e0bfcb15 	stw	r2,-212(fp)
 1003a88:	00800304 	movi	r2,12
 1003a8c:	e0bfcc15 	stw	r2,-208(fp)
 1003a90:	e0bfcb17 	ldw	r2,-212(fp)
 1003a94:	1085883a 	add	r2,r2,r2
 1003a98:	1085883a 	add	r2,r2,r2
 1003a9c:	1007883a 	mov	r3,r2
 1003aa0:	e0bfff17 	ldw	r2,-4(fp)
 1003aa4:	10c5883a 	add	r2,r2,r3
 1003aa8:	10c00017 	ldw	r3,0(r2)
 1003aac:	e0bfcc17 	ldw	r2,-208(fp)
 1003ab0:	1884d83a 	srl	r2,r3,r2
 1003ab4:	e0bf8c15 	stw	r2,-464(fp)
 1003ab8:	e0ffc917 	ldw	r3,-220(fp)
 1003abc:	e0bfcc17 	ldw	r2,-208(fp)
 1003ac0:	1885883a 	add	r2,r3,r2
 1003ac4:	10800850 	cmplti	r2,r2,33
 1003ac8:	1000161e 	bne	r2,zero,1003b24 <sdhc_decode_cid+0xc04>
 1003acc:	e0bfcb17 	ldw	r2,-212(fp)
 1003ad0:	1085883a 	add	r2,r2,r2
 1003ad4:	1085883a 	add	r2,r2,r2
 1003ad8:	10bfff04 	addi	r2,r2,-4
 1003adc:	e0ffff17 	ldw	r3,-4(fp)
 1003ae0:	1885883a 	add	r2,r3,r2
 1003ae4:	10c00017 	ldw	r3,0(r2)
 1003ae8:	01000804 	movi	r4,32
 1003aec:	e0bfcc17 	ldw	r2,-208(fp)
 1003af0:	2089c83a 	sub	r4,r4,r2
 1003af4:	00a00034 	movhi	r2,32768
 1003af8:	108007c4 	addi	r2,r2,31
 1003afc:	2084703a 	and	r2,r4,r2
 1003b00:	1000040e 	bge	r2,zero,1003b14 <sdhc_decode_cid+0xbf4>
 1003b04:	10bfffc4 	addi	r2,r2,-1
 1003b08:	013ff804 	movi	r4,-32
 1003b0c:	1104b03a 	or	r2,r2,r4
 1003b10:	10800044 	addi	r2,r2,1
 1003b14:	1884983a 	sll	r2,r3,r2
 1003b18:	e0ff8c17 	ldw	r3,-464(fp)
 1003b1c:	1884b03a 	or	r2,r3,r2
 1003b20:	e0bf8c15 	stw	r2,-464(fp)
 1003b24:	e0ff8c17 	ldw	r3,-464(fp)
 1003b28:	e0bfca17 	ldw	r2,-216(fp)
 1003b2c:	1884703a 	and	r2,r3,r2
 1003b30:	1007883a 	mov	r3,r2
 1003b34:	e0bffe17 	ldw	r2,-8(fp)
 1003b38:	10c00585 	stb	r3,22(r2)
 1003b3c:	e0bffe17 	ldw	r2,-8(fp)
 1003b40:	1080048b 	ldhu	r2,18(r2)
 1003b44:	10bfffcc 	andi	r2,r2,65535
 1003b48:	10800368 	cmpgeui	r2,r2,13
 1003b4c:	1000051e 	bne	r2,zero,1003b64 <sdhc_decode_cid+0xc44>
 1003b50:	e0bffd17 	ldw	r2,-12(fp)
 1003b54:	10802b43 	ldbu	r2,173(r2)
 1003b58:	10803fcc 	andi	r2,r2,255
 1003b5c:	10800168 	cmpgeui	r2,r2,5
 1003b60:	1000071e 	bne	r2,zero,1003b80 <sdhc_decode_cid+0xc60>
 1003b64:	e0bffe17 	ldw	r2,-8(fp)
 1003b68:	1080048b 	ldhu	r2,18(r2)
 1003b6c:	1081f344 	addi	r2,r2,1997
 1003b70:	1007883a 	mov	r3,r2
 1003b74:	e0bffe17 	ldw	r2,-8(fp)
 1003b78:	10c0048d 	sth	r3,18(r2)
 1003b7c:	00000606 	br	1003b98 <sdhc_decode_cid+0xc78>
 1003b80:	e0bffe17 	ldw	r2,-8(fp)
 1003b84:	1080048b 	ldhu	r2,18(r2)
 1003b88:	1081f744 	addi	r2,r2,2013
 1003b8c:	1007883a 	mov	r3,r2
 1003b90:	e0bffe17 	ldw	r2,-8(fp)
 1003b94:	10c0048d 	sth	r3,18(r2)
 1003b98:	e0bffe17 	ldw	r2,-8(fp)
 1003b9c:	1080048b 	ldhu	r2,18(r2)
 1003ba0:	10bfffcc 	andi	r2,r2,65535
 1003ba4:	10800358 	cmpnei	r2,r2,13
 1003ba8:	1000041e 	bne	r2,zero,1003bbc <sdhc_decode_cid+0xc9c>
 1003bac:	e0bffe17 	ldw	r2,-8(fp)
 1003bb0:	00c1f684 	movi	r3,2010
 1003bb4:	10c0048d 	sth	r3,18(r2)
 1003bb8:	00001106 	br	1003c00 <sdhc_decode_cid+0xce0>
 1003bbc:	e0bffe17 	ldw	r2,-8(fp)
 1003bc0:	1080048b 	ldhu	r2,18(r2)
 1003bc4:	10bfffcc 	andi	r2,r2,65535
 1003bc8:	10800398 	cmpnei	r2,r2,14
 1003bcc:	1000041e 	bne	r2,zero,1003be0 <sdhc_decode_cid+0xcc0>
 1003bd0:	e0bffe17 	ldw	r2,-8(fp)
 1003bd4:	00c1f6c4 	movi	r3,2011
 1003bd8:	10c0048d 	sth	r3,18(r2)
 1003bdc:	00000806 	br	1003c00 <sdhc_decode_cid+0xce0>
 1003be0:	e0bffe17 	ldw	r2,-8(fp)
 1003be4:	1080048b 	ldhu	r2,18(r2)
 1003be8:	10bfffcc 	andi	r2,r2,65535
 1003bec:	108003d8 	cmpnei	r2,r2,15
 1003bf0:	1000031e 	bne	r2,zero,1003c00 <sdhc_decode_cid+0xce0>
 1003bf4:	e0bffe17 	ldw	r2,-8(fp)
 1003bf8:	00c1f704 	movi	r3,2012
 1003bfc:	10c0048d 	sth	r3,18(r2)
 1003c00:	d0a00117 	ldw	r2,-32764(gp)
 1003c04:	1000061e 	bne	r2,zero,1003c20 <sdhc_decode_cid+0xd00>
 1003c08:	e0bffe17 	ldw	r2,-8(fp)
 1003c0c:	10800017 	ldw	r2,0(r2)
 1003c10:	01004074 	movhi	r4,257
 1003c14:	21091d04 	addi	r4,r4,9332
 1003c18:	100b883a 	mov	r5,r2
 1003c1c:	1010a380 	call	1010a38 <printf>
 1003c20:	d0a00117 	ldw	r2,-32764(gp)
 1003c24:	1000071e 	bne	r2,zero,1003c44 <sdhc_decode_cid+0xd24>
 1003c28:	e0bffe17 	ldw	r2,-8(fp)
 1003c2c:	1080040b 	ldhu	r2,16(r2)
 1003c30:	10bfffcc 	andi	r2,r2,65535
 1003c34:	01004074 	movhi	r4,257
 1003c38:	21092504 	addi	r4,r4,9364
 1003c3c:	100b883a 	mov	r5,r2
 1003c40:	1010a380 	call	1010a38 <printf>
 1003c44:	d0a00117 	ldw	r2,-32764(gp)
 1003c48:	1000241e 	bne	r2,zero,1003cdc <sdhc_decode_cid+0xdbc>
 1003c4c:	e0bffe17 	ldw	r2,-8(fp)
 1003c50:	10800103 	ldbu	r2,4(r2)
 1003c54:	11403fcc 	andi	r5,r2,255
 1003c58:	2940201c 	xori	r5,r5,128
 1003c5c:	297fe004 	addi	r5,r5,-128
 1003c60:	e0bffe17 	ldw	r2,-8(fp)
 1003c64:	10800143 	ldbu	r2,5(r2)
 1003c68:	11803fcc 	andi	r6,r2,255
 1003c6c:	3180201c 	xori	r6,r6,128
 1003c70:	31bfe004 	addi	r6,r6,-128
 1003c74:	e0bffe17 	ldw	r2,-8(fp)
 1003c78:	10800183 	ldbu	r2,6(r2)
 1003c7c:	11c03fcc 	andi	r7,r2,255
 1003c80:	39c0201c 	xori	r7,r7,128
 1003c84:	39ffe004 	addi	r7,r7,-128
 1003c88:	e0bffe17 	ldw	r2,-8(fp)
 1003c8c:	108001c3 	ldbu	r2,7(r2)
 1003c90:	11003fcc 	andi	r4,r2,255
 1003c94:	2100201c 	xori	r4,r4,128
 1003c98:	213fe004 	addi	r4,r4,-128
 1003c9c:	e0bffe17 	ldw	r2,-8(fp)
 1003ca0:	10800203 	ldbu	r2,8(r2)
 1003ca4:	10c03fcc 	andi	r3,r2,255
 1003ca8:	18c0201c 	xori	r3,r3,128
 1003cac:	18ffe004 	addi	r3,r3,-128
 1003cb0:	e0bffe17 	ldw	r2,-8(fp)
 1003cb4:	10800243 	ldbu	r2,9(r2)
 1003cb8:	10803fcc 	andi	r2,r2,255
 1003cbc:	1080201c 	xori	r2,r2,128
 1003cc0:	10bfe004 	addi	r2,r2,-128
 1003cc4:	d9000015 	stw	r4,0(sp)
 1003cc8:	d8c00115 	stw	r3,4(sp)
 1003ccc:	d8800215 	stw	r2,8(sp)
 1003cd0:	01004074 	movhi	r4,257
 1003cd4:	21092d04 	addi	r4,r4,9396
 1003cd8:	1010a380 	call	1010a38 <printf>
 1003cdc:	d0a00117 	ldw	r2,-32764(gp)
 1003ce0:	10000b1e 	bne	r2,zero,1003d10 <sdhc_decode_cid+0xdf0>
 1003ce4:	e0bffe17 	ldw	r2,-8(fp)
 1003ce8:	10800583 	ldbu	r2,22(r2)
 1003cec:	10c03fcc 	andi	r3,r2,255
 1003cf0:	e0bffe17 	ldw	r2,-8(fp)
 1003cf4:	1080048b 	ldhu	r2,18(r2)
 1003cf8:	10bfffcc 	andi	r2,r2,65535
 1003cfc:	01004074 	movhi	r4,257
 1003d00:	21093704 	addi	r4,r4,9436
 1003d04:	180b883a 	mov	r5,r3
 1003d08:	100d883a 	mov	r6,r2
 1003d0c:	1010a380 	call	1010a38 <printf>
 1003d10:	d0a00117 	ldw	r2,-32764(gp)
 1003d14:	10000b1e 	bne	r2,zero,1003d44 <sdhc_decode_cid+0xe24>
 1003d18:	e0bffe17 	ldw	r2,-8(fp)
 1003d1c:	10800503 	ldbu	r2,20(r2)
 1003d20:	10c03fcc 	andi	r3,r2,255
 1003d24:	e0bffe17 	ldw	r2,-8(fp)
 1003d28:	10800543 	ldbu	r2,21(r2)
 1003d2c:	10803fcc 	andi	r2,r2,255
 1003d30:	01004074 	movhi	r4,257
 1003d34:	21094004 	addi	r4,r4,9472
 1003d38:	180b883a 	mov	r5,r3
 1003d3c:	100d883a 	mov	r6,r2
 1003d40:	1010a380 	call	1010a38 <printf>
 1003d44:	d0a00117 	ldw	r2,-32764(gp)
 1003d48:	1003101e 	bne	r2,zero,100498c <sdhc_decode_cid+0x1a6c>
 1003d4c:	e0bffe17 	ldw	r2,-8(fp)
 1003d50:	10800317 	ldw	r2,12(r2)
 1003d54:	01004074 	movhi	r4,257
 1003d58:	21094804 	addi	r4,r4,9504
 1003d5c:	100b883a 	mov	r5,r2
 1003d60:	1010a380 	call	1010a38 <printf>
 1003d64:	00030906 	br	100498c <sdhc_decode_cid+0x1a6c>
 1003d68:	00800204 	movi	r2,8
 1003d6c:	e0bfcd15 	stw	r2,-204(fp)
 1003d70:	e0bfcd17 	ldw	r2,-204(fp)
 1003d74:	10800808 	cmpgei	r2,r2,32
 1003d78:	1000051e 	bne	r2,zero,1003d90 <sdhc_decode_cid+0xe70>
 1003d7c:	00c00044 	movi	r3,1
 1003d80:	e0bfcd17 	ldw	r2,-204(fp)
 1003d84:	1884983a 	sll	r2,r3,r2
 1003d88:	10bfffc4 	addi	r2,r2,-1
 1003d8c:	00000106 	br	1003d94 <sdhc_decode_cid+0xe74>
 1003d90:	00bfffc4 	movi	r2,-1
 1003d94:	e0bfce15 	stw	r2,-200(fp)
 1003d98:	e03fcf15 	stw	zero,-196(fp)
 1003d9c:	00800604 	movi	r2,24
 1003da0:	e0bfd015 	stw	r2,-192(fp)
 1003da4:	e0bfcf17 	ldw	r2,-196(fp)
 1003da8:	1085883a 	add	r2,r2,r2
 1003dac:	1085883a 	add	r2,r2,r2
 1003db0:	1007883a 	mov	r3,r2
 1003db4:	e0bfff17 	ldw	r2,-4(fp)
 1003db8:	10c5883a 	add	r2,r2,r3
 1003dbc:	10c00017 	ldw	r3,0(r2)
 1003dc0:	e0bfd017 	ldw	r2,-192(fp)
 1003dc4:	1884d83a 	srl	r2,r3,r2
 1003dc8:	e0bf8d15 	stw	r2,-460(fp)
 1003dcc:	e0ffcd17 	ldw	r3,-204(fp)
 1003dd0:	e0bfd017 	ldw	r2,-192(fp)
 1003dd4:	1885883a 	add	r2,r3,r2
 1003dd8:	10800850 	cmplti	r2,r2,33
 1003ddc:	1000161e 	bne	r2,zero,1003e38 <sdhc_decode_cid+0xf18>
 1003de0:	e0bfcf17 	ldw	r2,-196(fp)
 1003de4:	1085883a 	add	r2,r2,r2
 1003de8:	1085883a 	add	r2,r2,r2
 1003dec:	10bfff04 	addi	r2,r2,-4
 1003df0:	e0ffff17 	ldw	r3,-4(fp)
 1003df4:	1885883a 	add	r2,r3,r2
 1003df8:	10c00017 	ldw	r3,0(r2)
 1003dfc:	01000804 	movi	r4,32
 1003e00:	e0bfd017 	ldw	r2,-192(fp)
 1003e04:	2089c83a 	sub	r4,r4,r2
 1003e08:	00a00034 	movhi	r2,32768
 1003e0c:	108007c4 	addi	r2,r2,31
 1003e10:	2084703a 	and	r2,r4,r2
 1003e14:	1000040e 	bge	r2,zero,1003e28 <sdhc_decode_cid+0xf08>
 1003e18:	10bfffc4 	addi	r2,r2,-1
 1003e1c:	013ff804 	movi	r4,-32
 1003e20:	1104b03a 	or	r2,r2,r4
 1003e24:	10800044 	addi	r2,r2,1
 1003e28:	1884983a 	sll	r2,r3,r2
 1003e2c:	e0ff8d17 	ldw	r3,-460(fp)
 1003e30:	1884b03a 	or	r2,r3,r2
 1003e34:	e0bf8d15 	stw	r2,-460(fp)
 1003e38:	e0ff8d17 	ldw	r3,-460(fp)
 1003e3c:	e0bfce17 	ldw	r2,-200(fp)
 1003e40:	1886703a 	and	r3,r3,r2
 1003e44:	e0bffe17 	ldw	r2,-8(fp)
 1003e48:	10c00015 	stw	r3,0(r2)
 1003e4c:	00800404 	movi	r2,16
 1003e50:	e0bfd115 	stw	r2,-188(fp)
 1003e54:	e0bfd117 	ldw	r2,-188(fp)
 1003e58:	10800808 	cmpgei	r2,r2,32
 1003e5c:	1000051e 	bne	r2,zero,1003e74 <sdhc_decode_cid+0xf54>
 1003e60:	00c00044 	movi	r3,1
 1003e64:	e0bfd117 	ldw	r2,-188(fp)
 1003e68:	1884983a 	sll	r2,r3,r2
 1003e6c:	10bfffc4 	addi	r2,r2,-1
 1003e70:	00000106 	br	1003e78 <sdhc_decode_cid+0xf58>
 1003e74:	00bfffc4 	movi	r2,-1
 1003e78:	e0bfd215 	stw	r2,-184(fp)
 1003e7c:	e03fd315 	stw	zero,-180(fp)
 1003e80:	00800204 	movi	r2,8
 1003e84:	e0bfd415 	stw	r2,-176(fp)
 1003e88:	e0bfd317 	ldw	r2,-180(fp)
 1003e8c:	1085883a 	add	r2,r2,r2
 1003e90:	1085883a 	add	r2,r2,r2
 1003e94:	1007883a 	mov	r3,r2
 1003e98:	e0bfff17 	ldw	r2,-4(fp)
 1003e9c:	10c5883a 	add	r2,r2,r3
 1003ea0:	10c00017 	ldw	r3,0(r2)
 1003ea4:	e0bfd417 	ldw	r2,-176(fp)
 1003ea8:	1884d83a 	srl	r2,r3,r2
 1003eac:	e0bf8e15 	stw	r2,-456(fp)
 1003eb0:	e0ffd117 	ldw	r3,-188(fp)
 1003eb4:	e0bfd417 	ldw	r2,-176(fp)
 1003eb8:	1885883a 	add	r2,r3,r2
 1003ebc:	10800850 	cmplti	r2,r2,33
 1003ec0:	1000161e 	bne	r2,zero,1003f1c <sdhc_decode_cid+0xffc>
 1003ec4:	e0bfd317 	ldw	r2,-180(fp)
 1003ec8:	1085883a 	add	r2,r2,r2
 1003ecc:	1085883a 	add	r2,r2,r2
 1003ed0:	10bfff04 	addi	r2,r2,-4
 1003ed4:	e0ffff17 	ldw	r3,-4(fp)
 1003ed8:	1885883a 	add	r2,r3,r2
 1003edc:	10c00017 	ldw	r3,0(r2)
 1003ee0:	01000804 	movi	r4,32
 1003ee4:	e0bfd417 	ldw	r2,-176(fp)
 1003ee8:	2089c83a 	sub	r4,r4,r2
 1003eec:	00a00034 	movhi	r2,32768
 1003ef0:	108007c4 	addi	r2,r2,31
 1003ef4:	2084703a 	and	r2,r4,r2
 1003ef8:	1000040e 	bge	r2,zero,1003f0c <sdhc_decode_cid+0xfec>
 1003efc:	10bfffc4 	addi	r2,r2,-1
 1003f00:	013ff804 	movi	r4,-32
 1003f04:	1104b03a 	or	r2,r2,r4
 1003f08:	10800044 	addi	r2,r2,1
 1003f0c:	1884983a 	sll	r2,r3,r2
 1003f10:	e0ff8e17 	ldw	r3,-456(fp)
 1003f14:	1884b03a 	or	r2,r3,r2
 1003f18:	e0bf8e15 	stw	r2,-456(fp)
 1003f1c:	e0ff8e17 	ldw	r3,-456(fp)
 1003f20:	e0bfd217 	ldw	r2,-184(fp)
 1003f24:	1884703a 	and	r2,r3,r2
 1003f28:	1007883a 	mov	r3,r2
 1003f2c:	e0bffe17 	ldw	r2,-8(fp)
 1003f30:	10c0040d 	sth	r3,16(r2)
 1003f34:	00800204 	movi	r2,8
 1003f38:	e0bfd515 	stw	r2,-172(fp)
 1003f3c:	e0bfd517 	ldw	r2,-172(fp)
 1003f40:	10800808 	cmpgei	r2,r2,32
 1003f44:	1000051e 	bne	r2,zero,1003f5c <sdhc_decode_cid+0x103c>
 1003f48:	00c00044 	movi	r3,1
 1003f4c:	e0bfd517 	ldw	r2,-172(fp)
 1003f50:	1884983a 	sll	r2,r3,r2
 1003f54:	10bfffc4 	addi	r2,r2,-1
 1003f58:	00000106 	br	1003f60 <sdhc_decode_cid+0x1040>
 1003f5c:	00bfffc4 	movi	r2,-1
 1003f60:	e0bfd615 	stw	r2,-168(fp)
 1003f64:	e03fd715 	stw	zero,-164(fp)
 1003f68:	e03fd815 	stw	zero,-160(fp)
 1003f6c:	e0bfd717 	ldw	r2,-164(fp)
 1003f70:	1085883a 	add	r2,r2,r2
 1003f74:	1085883a 	add	r2,r2,r2
 1003f78:	1007883a 	mov	r3,r2
 1003f7c:	e0bfff17 	ldw	r2,-4(fp)
 1003f80:	10c5883a 	add	r2,r2,r3
 1003f84:	10c00017 	ldw	r3,0(r2)
 1003f88:	e0bfd817 	ldw	r2,-160(fp)
 1003f8c:	1884d83a 	srl	r2,r3,r2
 1003f90:	e0bf8f15 	stw	r2,-452(fp)
 1003f94:	e0ffd517 	ldw	r3,-172(fp)
 1003f98:	e0bfd817 	ldw	r2,-160(fp)
 1003f9c:	1885883a 	add	r2,r3,r2
 1003fa0:	10800850 	cmplti	r2,r2,33
 1003fa4:	1000161e 	bne	r2,zero,1004000 <sdhc_decode_cid+0x10e0>
 1003fa8:	e0bfd717 	ldw	r2,-164(fp)
 1003fac:	1085883a 	add	r2,r2,r2
 1003fb0:	1085883a 	add	r2,r2,r2
 1003fb4:	10bfff04 	addi	r2,r2,-4
 1003fb8:	e0ffff17 	ldw	r3,-4(fp)
 1003fbc:	1885883a 	add	r2,r3,r2
 1003fc0:	10c00017 	ldw	r3,0(r2)
 1003fc4:	01000804 	movi	r4,32
 1003fc8:	e0bfd817 	ldw	r2,-160(fp)
 1003fcc:	2089c83a 	sub	r4,r4,r2
 1003fd0:	00a00034 	movhi	r2,32768
 1003fd4:	108007c4 	addi	r2,r2,31
 1003fd8:	2084703a 	and	r2,r4,r2
 1003fdc:	1000040e 	bge	r2,zero,1003ff0 <sdhc_decode_cid+0x10d0>
 1003fe0:	10bfffc4 	addi	r2,r2,-1
 1003fe4:	013ff804 	movi	r4,-32
 1003fe8:	1104b03a 	or	r2,r2,r4
 1003fec:	10800044 	addi	r2,r2,1
 1003ff0:	1884983a 	sll	r2,r3,r2
 1003ff4:	e0ff8f17 	ldw	r3,-452(fp)
 1003ff8:	1884b03a 	or	r2,r3,r2
 1003ffc:	e0bf8f15 	stw	r2,-452(fp)
 1004000:	e0ff8f17 	ldw	r3,-452(fp)
 1004004:	e0bfd617 	ldw	r2,-168(fp)
 1004008:	1884703a 	and	r2,r3,r2
 100400c:	1007883a 	mov	r3,r2
 1004010:	e0bffe17 	ldw	r2,-8(fp)
 1004014:	10c00105 	stb	r3,4(r2)
 1004018:	00800204 	movi	r2,8
 100401c:	e0bfd915 	stw	r2,-156(fp)
 1004020:	e0bfd917 	ldw	r2,-156(fp)
 1004024:	10800808 	cmpgei	r2,r2,32
 1004028:	1000051e 	bne	r2,zero,1004040 <sdhc_decode_cid+0x1120>
 100402c:	00c00044 	movi	r3,1
 1004030:	e0bfd917 	ldw	r2,-156(fp)
 1004034:	1884983a 	sll	r2,r3,r2
 1004038:	10bfffc4 	addi	r2,r2,-1
 100403c:	00000106 	br	1004044 <sdhc_decode_cid+0x1124>
 1004040:	00bfffc4 	movi	r2,-1
 1004044:	e0bfda15 	stw	r2,-152(fp)
 1004048:	00800044 	movi	r2,1
 100404c:	e0bfdb15 	stw	r2,-148(fp)
 1004050:	00800604 	movi	r2,24
 1004054:	e0bfdc15 	stw	r2,-144(fp)
 1004058:	e0bfdb17 	ldw	r2,-148(fp)
 100405c:	1085883a 	add	r2,r2,r2
 1004060:	1085883a 	add	r2,r2,r2
 1004064:	1007883a 	mov	r3,r2
 1004068:	e0bfff17 	ldw	r2,-4(fp)
 100406c:	10c5883a 	add	r2,r2,r3
 1004070:	10c00017 	ldw	r3,0(r2)
 1004074:	e0bfdc17 	ldw	r2,-144(fp)
 1004078:	1884d83a 	srl	r2,r3,r2
 100407c:	e0bf9015 	stw	r2,-448(fp)
 1004080:	e0ffd917 	ldw	r3,-156(fp)
 1004084:	e0bfdc17 	ldw	r2,-144(fp)
 1004088:	1885883a 	add	r2,r3,r2
 100408c:	10800850 	cmplti	r2,r2,33
 1004090:	1000161e 	bne	r2,zero,10040ec <sdhc_decode_cid+0x11cc>
 1004094:	e0bfdb17 	ldw	r2,-148(fp)
 1004098:	1085883a 	add	r2,r2,r2
 100409c:	1085883a 	add	r2,r2,r2
 10040a0:	10bfff04 	addi	r2,r2,-4
 10040a4:	e0ffff17 	ldw	r3,-4(fp)
 10040a8:	1885883a 	add	r2,r3,r2
 10040ac:	10c00017 	ldw	r3,0(r2)
 10040b0:	01000804 	movi	r4,32
 10040b4:	e0bfdc17 	ldw	r2,-144(fp)
 10040b8:	2089c83a 	sub	r4,r4,r2
 10040bc:	00a00034 	movhi	r2,32768
 10040c0:	108007c4 	addi	r2,r2,31
 10040c4:	2084703a 	and	r2,r4,r2
 10040c8:	1000040e 	bge	r2,zero,10040dc <sdhc_decode_cid+0x11bc>
 10040cc:	10bfffc4 	addi	r2,r2,-1
 10040d0:	013ff804 	movi	r4,-32
 10040d4:	1104b03a 	or	r2,r2,r4
 10040d8:	10800044 	addi	r2,r2,1
 10040dc:	1884983a 	sll	r2,r3,r2
 10040e0:	e0ff9017 	ldw	r3,-448(fp)
 10040e4:	1884b03a 	or	r2,r3,r2
 10040e8:	e0bf9015 	stw	r2,-448(fp)
 10040ec:	e0ff9017 	ldw	r3,-448(fp)
 10040f0:	e0bfda17 	ldw	r2,-152(fp)
 10040f4:	1884703a 	and	r2,r3,r2
 10040f8:	1007883a 	mov	r3,r2
 10040fc:	e0bffe17 	ldw	r2,-8(fp)
 1004100:	10c00145 	stb	r3,5(r2)
 1004104:	00800204 	movi	r2,8
 1004108:	e0bfdd15 	stw	r2,-140(fp)
 100410c:	e0bfdd17 	ldw	r2,-140(fp)
 1004110:	10800808 	cmpgei	r2,r2,32
 1004114:	1000051e 	bne	r2,zero,100412c <sdhc_decode_cid+0x120c>
 1004118:	00c00044 	movi	r3,1
 100411c:	e0bfdd17 	ldw	r2,-140(fp)
 1004120:	1884983a 	sll	r2,r3,r2
 1004124:	10bfffc4 	addi	r2,r2,-1
 1004128:	00000106 	br	1004130 <sdhc_decode_cid+0x1210>
 100412c:	00bfffc4 	movi	r2,-1
 1004130:	e0bfde15 	stw	r2,-136(fp)
 1004134:	00800044 	movi	r2,1
 1004138:	e0bfdf15 	stw	r2,-132(fp)
 100413c:	00800404 	movi	r2,16
 1004140:	e0bfe015 	stw	r2,-128(fp)
 1004144:	e0bfdf17 	ldw	r2,-132(fp)
 1004148:	1085883a 	add	r2,r2,r2
 100414c:	1085883a 	add	r2,r2,r2
 1004150:	1007883a 	mov	r3,r2
 1004154:	e0bfff17 	ldw	r2,-4(fp)
 1004158:	10c5883a 	add	r2,r2,r3
 100415c:	10c00017 	ldw	r3,0(r2)
 1004160:	e0bfe017 	ldw	r2,-128(fp)
 1004164:	1884d83a 	srl	r2,r3,r2
 1004168:	e0bf9115 	stw	r2,-444(fp)
 100416c:	e0ffdd17 	ldw	r3,-140(fp)
 1004170:	e0bfe017 	ldw	r2,-128(fp)
 1004174:	1885883a 	add	r2,r3,r2
 1004178:	10800850 	cmplti	r2,r2,33
 100417c:	1000161e 	bne	r2,zero,10041d8 <sdhc_decode_cid+0x12b8>
 1004180:	e0bfdf17 	ldw	r2,-132(fp)
 1004184:	1085883a 	add	r2,r2,r2
 1004188:	1085883a 	add	r2,r2,r2
 100418c:	10bfff04 	addi	r2,r2,-4
 1004190:	e0ffff17 	ldw	r3,-4(fp)
 1004194:	1885883a 	add	r2,r3,r2
 1004198:	10c00017 	ldw	r3,0(r2)
 100419c:	01000804 	movi	r4,32
 10041a0:	e0bfe017 	ldw	r2,-128(fp)
 10041a4:	2089c83a 	sub	r4,r4,r2
 10041a8:	00a00034 	movhi	r2,32768
 10041ac:	108007c4 	addi	r2,r2,31
 10041b0:	2084703a 	and	r2,r4,r2
 10041b4:	1000040e 	bge	r2,zero,10041c8 <sdhc_decode_cid+0x12a8>
 10041b8:	10bfffc4 	addi	r2,r2,-1
 10041bc:	013ff804 	movi	r4,-32
 10041c0:	1104b03a 	or	r2,r2,r4
 10041c4:	10800044 	addi	r2,r2,1
 10041c8:	1884983a 	sll	r2,r3,r2
 10041cc:	e0ff9117 	ldw	r3,-444(fp)
 10041d0:	1884b03a 	or	r2,r3,r2
 10041d4:	e0bf9115 	stw	r2,-444(fp)
 10041d8:	e0ff9117 	ldw	r3,-444(fp)
 10041dc:	e0bfde17 	ldw	r2,-136(fp)
 10041e0:	1884703a 	and	r2,r3,r2
 10041e4:	1007883a 	mov	r3,r2
 10041e8:	e0bffe17 	ldw	r2,-8(fp)
 10041ec:	10c00185 	stb	r3,6(r2)
 10041f0:	00800204 	movi	r2,8
 10041f4:	e0bfe115 	stw	r2,-124(fp)
 10041f8:	e0bfe117 	ldw	r2,-124(fp)
 10041fc:	10800808 	cmpgei	r2,r2,32
 1004200:	1000051e 	bne	r2,zero,1004218 <sdhc_decode_cid+0x12f8>
 1004204:	00c00044 	movi	r3,1
 1004208:	e0bfe117 	ldw	r2,-124(fp)
 100420c:	1884983a 	sll	r2,r3,r2
 1004210:	10bfffc4 	addi	r2,r2,-1
 1004214:	00000106 	br	100421c <sdhc_decode_cid+0x12fc>
 1004218:	00bfffc4 	movi	r2,-1
 100421c:	e0bfe215 	stw	r2,-120(fp)
 1004220:	00800044 	movi	r2,1
 1004224:	e0bfe315 	stw	r2,-116(fp)
 1004228:	00800204 	movi	r2,8
 100422c:	e0bfe415 	stw	r2,-112(fp)
 1004230:	e0bfe317 	ldw	r2,-116(fp)
 1004234:	1085883a 	add	r2,r2,r2
 1004238:	1085883a 	add	r2,r2,r2
 100423c:	1007883a 	mov	r3,r2
 1004240:	e0bfff17 	ldw	r2,-4(fp)
 1004244:	10c5883a 	add	r2,r2,r3
 1004248:	10c00017 	ldw	r3,0(r2)
 100424c:	e0bfe417 	ldw	r2,-112(fp)
 1004250:	1884d83a 	srl	r2,r3,r2
 1004254:	e0bf9215 	stw	r2,-440(fp)
 1004258:	e0ffe117 	ldw	r3,-124(fp)
 100425c:	e0bfe417 	ldw	r2,-112(fp)
 1004260:	1885883a 	add	r2,r3,r2
 1004264:	10800850 	cmplti	r2,r2,33
 1004268:	1000161e 	bne	r2,zero,10042c4 <sdhc_decode_cid+0x13a4>
 100426c:	e0bfe317 	ldw	r2,-116(fp)
 1004270:	1085883a 	add	r2,r2,r2
 1004274:	1085883a 	add	r2,r2,r2
 1004278:	10bfff04 	addi	r2,r2,-4
 100427c:	e0ffff17 	ldw	r3,-4(fp)
 1004280:	1885883a 	add	r2,r3,r2
 1004284:	10c00017 	ldw	r3,0(r2)
 1004288:	01000804 	movi	r4,32
 100428c:	e0bfe417 	ldw	r2,-112(fp)
 1004290:	2089c83a 	sub	r4,r4,r2
 1004294:	00a00034 	movhi	r2,32768
 1004298:	108007c4 	addi	r2,r2,31
 100429c:	2084703a 	and	r2,r4,r2
 10042a0:	1000040e 	bge	r2,zero,10042b4 <sdhc_decode_cid+0x1394>
 10042a4:	10bfffc4 	addi	r2,r2,-1
 10042a8:	013ff804 	movi	r4,-32
 10042ac:	1104b03a 	or	r2,r2,r4
 10042b0:	10800044 	addi	r2,r2,1
 10042b4:	1884983a 	sll	r2,r3,r2
 10042b8:	e0ff9217 	ldw	r3,-440(fp)
 10042bc:	1884b03a 	or	r2,r3,r2
 10042c0:	e0bf9215 	stw	r2,-440(fp)
 10042c4:	e0ff9217 	ldw	r3,-440(fp)
 10042c8:	e0bfe217 	ldw	r2,-120(fp)
 10042cc:	1884703a 	and	r2,r3,r2
 10042d0:	1007883a 	mov	r3,r2
 10042d4:	e0bffe17 	ldw	r2,-8(fp)
 10042d8:	10c001c5 	stb	r3,7(r2)
 10042dc:	00800204 	movi	r2,8
 10042e0:	e0bfe515 	stw	r2,-108(fp)
 10042e4:	e0bfe517 	ldw	r2,-108(fp)
 10042e8:	10800808 	cmpgei	r2,r2,32
 10042ec:	1000051e 	bne	r2,zero,1004304 <sdhc_decode_cid+0x13e4>
 10042f0:	00c00044 	movi	r3,1
 10042f4:	e0bfe517 	ldw	r2,-108(fp)
 10042f8:	1884983a 	sll	r2,r3,r2
 10042fc:	10bfffc4 	addi	r2,r2,-1
 1004300:	00000106 	br	1004308 <sdhc_decode_cid+0x13e8>
 1004304:	00bfffc4 	movi	r2,-1
 1004308:	e0bfe615 	stw	r2,-104(fp)
 100430c:	00800044 	movi	r2,1
 1004310:	e0bfe715 	stw	r2,-100(fp)
 1004314:	e03fe815 	stw	zero,-96(fp)
 1004318:	e0bfe717 	ldw	r2,-100(fp)
 100431c:	1085883a 	add	r2,r2,r2
 1004320:	1085883a 	add	r2,r2,r2
 1004324:	1007883a 	mov	r3,r2
 1004328:	e0bfff17 	ldw	r2,-4(fp)
 100432c:	10c5883a 	add	r2,r2,r3
 1004330:	10c00017 	ldw	r3,0(r2)
 1004334:	e0bfe817 	ldw	r2,-96(fp)
 1004338:	1884d83a 	srl	r2,r3,r2
 100433c:	e0bf9315 	stw	r2,-436(fp)
 1004340:	e0ffe517 	ldw	r3,-108(fp)
 1004344:	e0bfe817 	ldw	r2,-96(fp)
 1004348:	1885883a 	add	r2,r3,r2
 100434c:	10800850 	cmplti	r2,r2,33
 1004350:	1000161e 	bne	r2,zero,10043ac <sdhc_decode_cid+0x148c>
 1004354:	e0bfe717 	ldw	r2,-100(fp)
 1004358:	1085883a 	add	r2,r2,r2
 100435c:	1085883a 	add	r2,r2,r2
 1004360:	10bfff04 	addi	r2,r2,-4
 1004364:	e0ffff17 	ldw	r3,-4(fp)
 1004368:	1885883a 	add	r2,r3,r2
 100436c:	10c00017 	ldw	r3,0(r2)
 1004370:	01000804 	movi	r4,32
 1004374:	e0bfe817 	ldw	r2,-96(fp)
 1004378:	2089c83a 	sub	r4,r4,r2
 100437c:	00a00034 	movhi	r2,32768
 1004380:	108007c4 	addi	r2,r2,31
 1004384:	2084703a 	and	r2,r4,r2
 1004388:	1000040e 	bge	r2,zero,100439c <sdhc_decode_cid+0x147c>
 100438c:	10bfffc4 	addi	r2,r2,-1
 1004390:	013ff804 	movi	r4,-32
 1004394:	1104b03a 	or	r2,r2,r4
 1004398:	10800044 	addi	r2,r2,1
 100439c:	1884983a 	sll	r2,r3,r2
 10043a0:	e0ff9317 	ldw	r3,-436(fp)
 10043a4:	1884b03a 	or	r2,r3,r2
 10043a8:	e0bf9315 	stw	r2,-436(fp)
 10043ac:	e0ff9317 	ldw	r3,-436(fp)
 10043b0:	e0bfe617 	ldw	r2,-104(fp)
 10043b4:	1884703a 	and	r2,r3,r2
 10043b8:	1007883a 	mov	r3,r2
 10043bc:	e0bffe17 	ldw	r2,-8(fp)
 10043c0:	10c00205 	stb	r3,8(r2)
 10043c4:	00800104 	movi	r2,4
 10043c8:	e0bfe915 	stw	r2,-92(fp)
 10043cc:	e0bfe917 	ldw	r2,-92(fp)
 10043d0:	10800808 	cmpgei	r2,r2,32
 10043d4:	1000051e 	bne	r2,zero,10043ec <sdhc_decode_cid+0x14cc>
 10043d8:	00c00044 	movi	r3,1
 10043dc:	e0bfe917 	ldw	r2,-92(fp)
 10043e0:	1884983a 	sll	r2,r3,r2
 10043e4:	10bfffc4 	addi	r2,r2,-1
 10043e8:	00000106 	br	10043f0 <sdhc_decode_cid+0x14d0>
 10043ec:	00bfffc4 	movi	r2,-1
 10043f0:	e0bfea15 	stw	r2,-88(fp)
 10043f4:	00800084 	movi	r2,2
 10043f8:	e0bfeb15 	stw	r2,-84(fp)
 10043fc:	00800704 	movi	r2,28
 1004400:	e0bfec15 	stw	r2,-80(fp)
 1004404:	e0bfeb17 	ldw	r2,-84(fp)
 1004408:	1085883a 	add	r2,r2,r2
 100440c:	1085883a 	add	r2,r2,r2
 1004410:	1007883a 	mov	r3,r2
 1004414:	e0bfff17 	ldw	r2,-4(fp)
 1004418:	10c5883a 	add	r2,r2,r3
 100441c:	10c00017 	ldw	r3,0(r2)
 1004420:	e0bfec17 	ldw	r2,-80(fp)
 1004424:	1884d83a 	srl	r2,r3,r2
 1004428:	e0bf9415 	stw	r2,-432(fp)
 100442c:	e0ffe917 	ldw	r3,-92(fp)
 1004430:	e0bfec17 	ldw	r2,-80(fp)
 1004434:	1885883a 	add	r2,r3,r2
 1004438:	10800850 	cmplti	r2,r2,33
 100443c:	1000161e 	bne	r2,zero,1004498 <sdhc_decode_cid+0x1578>
 1004440:	e0bfeb17 	ldw	r2,-84(fp)
 1004444:	1085883a 	add	r2,r2,r2
 1004448:	1085883a 	add	r2,r2,r2
 100444c:	10bfff04 	addi	r2,r2,-4
 1004450:	e0ffff17 	ldw	r3,-4(fp)
 1004454:	1885883a 	add	r2,r3,r2
 1004458:	10c00017 	ldw	r3,0(r2)
 100445c:	01000804 	movi	r4,32
 1004460:	e0bfec17 	ldw	r2,-80(fp)
 1004464:	2089c83a 	sub	r4,r4,r2
 1004468:	00a00034 	movhi	r2,32768
 100446c:	108007c4 	addi	r2,r2,31
 1004470:	2084703a 	and	r2,r4,r2
 1004474:	1000040e 	bge	r2,zero,1004488 <sdhc_decode_cid+0x1568>
 1004478:	10bfffc4 	addi	r2,r2,-1
 100447c:	013ff804 	movi	r4,-32
 1004480:	1104b03a 	or	r2,r2,r4
 1004484:	10800044 	addi	r2,r2,1
 1004488:	1884983a 	sll	r2,r3,r2
 100448c:	e0ff9417 	ldw	r3,-432(fp)
 1004490:	1884b03a 	or	r2,r3,r2
 1004494:	e0bf9415 	stw	r2,-432(fp)
 1004498:	e0ff9417 	ldw	r3,-432(fp)
 100449c:	e0bfea17 	ldw	r2,-88(fp)
 10044a0:	1884703a 	and	r2,r3,r2
 10044a4:	1007883a 	mov	r3,r2
 10044a8:	e0bffe17 	ldw	r2,-8(fp)
 10044ac:	10c00505 	stb	r3,20(r2)
 10044b0:	00800104 	movi	r2,4
 10044b4:	e0bfed15 	stw	r2,-76(fp)
 10044b8:	e0bfed17 	ldw	r2,-76(fp)
 10044bc:	10800808 	cmpgei	r2,r2,32
 10044c0:	1000051e 	bne	r2,zero,10044d8 <sdhc_decode_cid+0x15b8>
 10044c4:	00c00044 	movi	r3,1
 10044c8:	e0bfed17 	ldw	r2,-76(fp)
 10044cc:	1884983a 	sll	r2,r3,r2
 10044d0:	10bfffc4 	addi	r2,r2,-1
 10044d4:	00000106 	br	10044dc <sdhc_decode_cid+0x15bc>
 10044d8:	00bfffc4 	movi	r2,-1
 10044dc:	e0bfee15 	stw	r2,-72(fp)
 10044e0:	00800084 	movi	r2,2
 10044e4:	e0bfef15 	stw	r2,-68(fp)
 10044e8:	00800604 	movi	r2,24
 10044ec:	e0bff015 	stw	r2,-64(fp)
 10044f0:	e0bfef17 	ldw	r2,-68(fp)
 10044f4:	1085883a 	add	r2,r2,r2
 10044f8:	1085883a 	add	r2,r2,r2
 10044fc:	1007883a 	mov	r3,r2
 1004500:	e0bfff17 	ldw	r2,-4(fp)
 1004504:	10c5883a 	add	r2,r2,r3
 1004508:	10c00017 	ldw	r3,0(r2)
 100450c:	e0bff017 	ldw	r2,-64(fp)
 1004510:	1884d83a 	srl	r2,r3,r2
 1004514:	e0bf9515 	stw	r2,-428(fp)
 1004518:	e0ffed17 	ldw	r3,-76(fp)
 100451c:	e0bff017 	ldw	r2,-64(fp)
 1004520:	1885883a 	add	r2,r3,r2
 1004524:	10800850 	cmplti	r2,r2,33
 1004528:	1000161e 	bne	r2,zero,1004584 <sdhc_decode_cid+0x1664>
 100452c:	e0bfef17 	ldw	r2,-68(fp)
 1004530:	1085883a 	add	r2,r2,r2
 1004534:	1085883a 	add	r2,r2,r2
 1004538:	10bfff04 	addi	r2,r2,-4
 100453c:	e0ffff17 	ldw	r3,-4(fp)
 1004540:	1885883a 	add	r2,r3,r2
 1004544:	10c00017 	ldw	r3,0(r2)
 1004548:	01000804 	movi	r4,32
 100454c:	e0bff017 	ldw	r2,-64(fp)
 1004550:	2089c83a 	sub	r4,r4,r2
 1004554:	00a00034 	movhi	r2,32768
 1004558:	108007c4 	addi	r2,r2,31
 100455c:	2084703a 	and	r2,r4,r2
 1004560:	1000040e 	bge	r2,zero,1004574 <sdhc_decode_cid+0x1654>
 1004564:	10bfffc4 	addi	r2,r2,-1
 1004568:	013ff804 	movi	r4,-32
 100456c:	1104b03a 	or	r2,r2,r4
 1004570:	10800044 	addi	r2,r2,1
 1004574:	1884983a 	sll	r2,r3,r2
 1004578:	e0ff9517 	ldw	r3,-428(fp)
 100457c:	1884b03a 	or	r2,r3,r2
 1004580:	e0bf9515 	stw	r2,-428(fp)
 1004584:	e0ff9517 	ldw	r3,-428(fp)
 1004588:	e0bfee17 	ldw	r2,-72(fp)
 100458c:	1884703a 	and	r2,r3,r2
 1004590:	1007883a 	mov	r3,r2
 1004594:	e0bffe17 	ldw	r2,-8(fp)
 1004598:	10c00545 	stb	r3,21(r2)
 100459c:	00800804 	movi	r2,32
 10045a0:	e0bff115 	stw	r2,-60(fp)
 10045a4:	e0bff117 	ldw	r2,-60(fp)
 10045a8:	10800808 	cmpgei	r2,r2,32
 10045ac:	1000051e 	bne	r2,zero,10045c4 <sdhc_decode_cid+0x16a4>
 10045b0:	00c00044 	movi	r3,1
 10045b4:	e0bff117 	ldw	r2,-60(fp)
 10045b8:	1884983a 	sll	r2,r3,r2
 10045bc:	10bfffc4 	addi	r2,r2,-1
 10045c0:	00000106 	br	10045c8 <sdhc_decode_cid+0x16a8>
 10045c4:	00bfffc4 	movi	r2,-1
 10045c8:	e0bff215 	stw	r2,-56(fp)
 10045cc:	008000c4 	movi	r2,3
 10045d0:	e0bff315 	stw	r2,-52(fp)
 10045d4:	00800604 	movi	r2,24
 10045d8:	e0bff415 	stw	r2,-48(fp)
 10045dc:	e0bff317 	ldw	r2,-52(fp)
 10045e0:	1085883a 	add	r2,r2,r2
 10045e4:	1085883a 	add	r2,r2,r2
 10045e8:	1007883a 	mov	r3,r2
 10045ec:	e0bfff17 	ldw	r2,-4(fp)
 10045f0:	10c5883a 	add	r2,r2,r3
 10045f4:	10c00017 	ldw	r3,0(r2)
 10045f8:	e0bff417 	ldw	r2,-48(fp)
 10045fc:	1884d83a 	srl	r2,r3,r2
 1004600:	e0bf9615 	stw	r2,-424(fp)
 1004604:	e0fff117 	ldw	r3,-60(fp)
 1004608:	e0bff417 	ldw	r2,-48(fp)
 100460c:	1885883a 	add	r2,r3,r2
 1004610:	10800850 	cmplti	r2,r2,33
 1004614:	1000161e 	bne	r2,zero,1004670 <sdhc_decode_cid+0x1750>
 1004618:	e0bff317 	ldw	r2,-52(fp)
 100461c:	1085883a 	add	r2,r2,r2
 1004620:	1085883a 	add	r2,r2,r2
 1004624:	10bfff04 	addi	r2,r2,-4
 1004628:	e0ffff17 	ldw	r3,-4(fp)
 100462c:	1885883a 	add	r2,r3,r2
 1004630:	10c00017 	ldw	r3,0(r2)
 1004634:	01000804 	movi	r4,32
 1004638:	e0bff417 	ldw	r2,-48(fp)
 100463c:	2089c83a 	sub	r4,r4,r2
 1004640:	00a00034 	movhi	r2,32768
 1004644:	108007c4 	addi	r2,r2,31
 1004648:	2084703a 	and	r2,r4,r2
 100464c:	1000040e 	bge	r2,zero,1004660 <sdhc_decode_cid+0x1740>
 1004650:	10bfffc4 	addi	r2,r2,-1
 1004654:	013ff804 	movi	r4,-32
 1004658:	1104b03a 	or	r2,r2,r4
 100465c:	10800044 	addi	r2,r2,1
 1004660:	1884983a 	sll	r2,r3,r2
 1004664:	e0ff9617 	ldw	r3,-424(fp)
 1004668:	1884b03a 	or	r2,r3,r2
 100466c:	e0bf9615 	stw	r2,-424(fp)
 1004670:	e0ff9617 	ldw	r3,-424(fp)
 1004674:	e0bff217 	ldw	r2,-56(fp)
 1004678:	1886703a 	and	r3,r3,r2
 100467c:	e0bffe17 	ldw	r2,-8(fp)
 1004680:	10c00315 	stw	r3,12(r2)
 1004684:	00800204 	movi	r2,8
 1004688:	e0bff515 	stw	r2,-44(fp)
 100468c:	e0bff517 	ldw	r2,-44(fp)
 1004690:	10800808 	cmpgei	r2,r2,32
 1004694:	1000051e 	bne	r2,zero,10046ac <sdhc_decode_cid+0x178c>
 1004698:	00c00044 	movi	r3,1
 100469c:	e0bff517 	ldw	r2,-44(fp)
 10046a0:	1884983a 	sll	r2,r3,r2
 10046a4:	10bfffc4 	addi	r2,r2,-1
 10046a8:	00000106 	br	10046b0 <sdhc_decode_cid+0x1790>
 10046ac:	00bfffc4 	movi	r2,-1
 10046b0:	e0bff615 	stw	r2,-40(fp)
 10046b4:	008000c4 	movi	r2,3
 10046b8:	e0bff715 	stw	r2,-36(fp)
 10046bc:	00800304 	movi	r2,12
 10046c0:	e0bff815 	stw	r2,-32(fp)
 10046c4:	e0bff717 	ldw	r2,-36(fp)
 10046c8:	1085883a 	add	r2,r2,r2
 10046cc:	1085883a 	add	r2,r2,r2
 10046d0:	1007883a 	mov	r3,r2
 10046d4:	e0bfff17 	ldw	r2,-4(fp)
 10046d8:	10c5883a 	add	r2,r2,r3
 10046dc:	10c00017 	ldw	r3,0(r2)
 10046e0:	e0bff817 	ldw	r2,-32(fp)
 10046e4:	1884d83a 	srl	r2,r3,r2
 10046e8:	e0bf9715 	stw	r2,-420(fp)
 10046ec:	e0fff517 	ldw	r3,-44(fp)
 10046f0:	e0bff817 	ldw	r2,-32(fp)
 10046f4:	1885883a 	add	r2,r3,r2
 10046f8:	10800850 	cmplti	r2,r2,33
 10046fc:	1000161e 	bne	r2,zero,1004758 <sdhc_decode_cid+0x1838>
 1004700:	e0bff717 	ldw	r2,-36(fp)
 1004704:	1085883a 	add	r2,r2,r2
 1004708:	1085883a 	add	r2,r2,r2
 100470c:	10bfff04 	addi	r2,r2,-4
 1004710:	e0ffff17 	ldw	r3,-4(fp)
 1004714:	1885883a 	add	r2,r3,r2
 1004718:	10c00017 	ldw	r3,0(r2)
 100471c:	01000804 	movi	r4,32
 1004720:	e0bff817 	ldw	r2,-32(fp)
 1004724:	2089c83a 	sub	r4,r4,r2
 1004728:	00a00034 	movhi	r2,32768
 100472c:	108007c4 	addi	r2,r2,31
 1004730:	2084703a 	and	r2,r4,r2
 1004734:	1000040e 	bge	r2,zero,1004748 <sdhc_decode_cid+0x1828>
 1004738:	10bfffc4 	addi	r2,r2,-1
 100473c:	013ff804 	movi	r4,-32
 1004740:	1104b03a 	or	r2,r2,r4
 1004744:	10800044 	addi	r2,r2,1
 1004748:	1884983a 	sll	r2,r3,r2
 100474c:	e0ff9717 	ldw	r3,-420(fp)
 1004750:	1884b03a 	or	r2,r3,r2
 1004754:	e0bf9715 	stw	r2,-420(fp)
 1004758:	e0ff9717 	ldw	r3,-420(fp)
 100475c:	e0bff617 	ldw	r2,-40(fp)
 1004760:	1884703a 	and	r2,r3,r2
 1004764:	1007883a 	mov	r3,r2
 1004768:	e0bffe17 	ldw	r2,-8(fp)
 100476c:	10c0048d 	sth	r3,18(r2)
 1004770:	00800104 	movi	r2,4
 1004774:	e0bff915 	stw	r2,-28(fp)
 1004778:	e0bff917 	ldw	r2,-28(fp)
 100477c:	10800808 	cmpgei	r2,r2,32
 1004780:	1000051e 	bne	r2,zero,1004798 <sdhc_decode_cid+0x1878>
 1004784:	00c00044 	movi	r3,1
 1004788:	e0bff917 	ldw	r2,-28(fp)
 100478c:	1884983a 	sll	r2,r3,r2
 1004790:	10bfffc4 	addi	r2,r2,-1
 1004794:	00000106 	br	100479c <sdhc_decode_cid+0x187c>
 1004798:	00bfffc4 	movi	r2,-1
 100479c:	e0bffa15 	stw	r2,-24(fp)
 10047a0:	008000c4 	movi	r2,3
 10047a4:	e0bffb15 	stw	r2,-20(fp)
 10047a8:	00800204 	movi	r2,8
 10047ac:	e0bffc15 	stw	r2,-16(fp)
 10047b0:	e0bffb17 	ldw	r2,-20(fp)
 10047b4:	1085883a 	add	r2,r2,r2
 10047b8:	1085883a 	add	r2,r2,r2
 10047bc:	1007883a 	mov	r3,r2
 10047c0:	e0bfff17 	ldw	r2,-4(fp)
 10047c4:	10c5883a 	add	r2,r2,r3
 10047c8:	10c00017 	ldw	r3,0(r2)
 10047cc:	e0bffc17 	ldw	r2,-16(fp)
 10047d0:	1884d83a 	srl	r2,r3,r2
 10047d4:	e0bf9815 	stw	r2,-416(fp)
 10047d8:	e0fff917 	ldw	r3,-28(fp)
 10047dc:	e0bffc17 	ldw	r2,-16(fp)
 10047e0:	1885883a 	add	r2,r3,r2
 10047e4:	10800850 	cmplti	r2,r2,33
 10047e8:	1000161e 	bne	r2,zero,1004844 <sdhc_decode_cid+0x1924>
 10047ec:	e0bffb17 	ldw	r2,-20(fp)
 10047f0:	1085883a 	add	r2,r2,r2
 10047f4:	1085883a 	add	r2,r2,r2
 10047f8:	10bfff04 	addi	r2,r2,-4
 10047fc:	e0ffff17 	ldw	r3,-4(fp)
 1004800:	1885883a 	add	r2,r3,r2
 1004804:	10c00017 	ldw	r3,0(r2)
 1004808:	01000804 	movi	r4,32
 100480c:	e0bffc17 	ldw	r2,-16(fp)
 1004810:	2089c83a 	sub	r4,r4,r2
 1004814:	00a00034 	movhi	r2,32768
 1004818:	108007c4 	addi	r2,r2,31
 100481c:	2084703a 	and	r2,r4,r2
 1004820:	1000040e 	bge	r2,zero,1004834 <sdhc_decode_cid+0x1914>
 1004824:	10bfffc4 	addi	r2,r2,-1
 1004828:	013ff804 	movi	r4,-32
 100482c:	1104b03a 	or	r2,r2,r4
 1004830:	10800044 	addi	r2,r2,1
 1004834:	1884983a 	sll	r2,r3,r2
 1004838:	e0ff9817 	ldw	r3,-416(fp)
 100483c:	1884b03a 	or	r2,r3,r2
 1004840:	e0bf9815 	stw	r2,-416(fp)
 1004844:	e0ff9817 	ldw	r3,-416(fp)
 1004848:	e0bffa17 	ldw	r2,-24(fp)
 100484c:	1884703a 	and	r2,r3,r2
 1004850:	1007883a 	mov	r3,r2
 1004854:	e0bffe17 	ldw	r2,-8(fp)
 1004858:	10c00585 	stb	r3,22(r2)
 100485c:	e0bffe17 	ldw	r2,-8(fp)
 1004860:	1080048b 	ldhu	r2,18(r2)
 1004864:	1081f404 	addi	r2,r2,2000
 1004868:	1007883a 	mov	r3,r2
 100486c:	e0bffe17 	ldw	r2,-8(fp)
 1004870:	10c0048d 	sth	r3,18(r2)
 1004874:	d0a00117 	ldw	r2,-32764(gp)
 1004878:	1000061e 	bne	r2,zero,1004894 <sdhc_decode_cid+0x1974>
 100487c:	e0bffe17 	ldw	r2,-8(fp)
 1004880:	10800017 	ldw	r2,0(r2)
 1004884:	01004074 	movhi	r4,257
 1004888:	21091d04 	addi	r4,r4,9332
 100488c:	100b883a 	mov	r5,r2
 1004890:	1010a380 	call	1010a38 <printf>
 1004894:	d0a00117 	ldw	r2,-32764(gp)
 1004898:	1000071e 	bne	r2,zero,10048b8 <sdhc_decode_cid+0x1998>
 100489c:	e0bffe17 	ldw	r2,-8(fp)
 10048a0:	1080040b 	ldhu	r2,16(r2)
 10048a4:	10bfffcc 	andi	r2,r2,65535
 10048a8:	01004074 	movhi	r4,257
 10048ac:	21092504 	addi	r4,r4,9364
 10048b0:	100b883a 	mov	r5,r2
 10048b4:	1010a380 	call	1010a38 <printf>
 10048b8:	d0a00117 	ldw	r2,-32764(gp)
 10048bc:	10001e1e 	bne	r2,zero,1004938 <sdhc_decode_cid+0x1a18>
 10048c0:	e0bffe17 	ldw	r2,-8(fp)
 10048c4:	10800103 	ldbu	r2,4(r2)
 10048c8:	11403fcc 	andi	r5,r2,255
 10048cc:	2940201c 	xori	r5,r5,128
 10048d0:	297fe004 	addi	r5,r5,-128
 10048d4:	e0bffe17 	ldw	r2,-8(fp)
 10048d8:	10800143 	ldbu	r2,5(r2)
 10048dc:	11803fcc 	andi	r6,r2,255
 10048e0:	3180201c 	xori	r6,r6,128
 10048e4:	31bfe004 	addi	r6,r6,-128
 10048e8:	e0bffe17 	ldw	r2,-8(fp)
 10048ec:	10800183 	ldbu	r2,6(r2)
 10048f0:	11c03fcc 	andi	r7,r2,255
 10048f4:	39c0201c 	xori	r7,r7,128
 10048f8:	39ffe004 	addi	r7,r7,-128
 10048fc:	e0bffe17 	ldw	r2,-8(fp)
 1004900:	108001c3 	ldbu	r2,7(r2)
 1004904:	10c03fcc 	andi	r3,r2,255
 1004908:	18c0201c 	xori	r3,r3,128
 100490c:	18ffe004 	addi	r3,r3,-128
 1004910:	e0bffe17 	ldw	r2,-8(fp)
 1004914:	10800203 	ldbu	r2,8(r2)
 1004918:	10803fcc 	andi	r2,r2,255
 100491c:	1080201c 	xori	r2,r2,128
 1004920:	10bfe004 	addi	r2,r2,-128
 1004924:	d8c00015 	stw	r3,0(sp)
 1004928:	d8800115 	stw	r2,4(sp)
 100492c:	01004074 	movhi	r4,257
 1004930:	21095004 	addi	r4,r4,9536
 1004934:	1010a380 	call	1010a38 <printf>
 1004938:	d0a00117 	ldw	r2,-32764(gp)
 100493c:	10000b1e 	bne	r2,zero,100496c <sdhc_decode_cid+0x1a4c>
 1004940:	e0bffe17 	ldw	r2,-8(fp)
 1004944:	1080048b 	ldhu	r2,18(r2)
 1004948:	10ffffcc 	andi	r3,r2,65535
 100494c:	e0bffe17 	ldw	r2,-8(fp)
 1004950:	10800583 	ldbu	r2,22(r2)
 1004954:	10803fcc 	andi	r2,r2,255
 1004958:	01004074 	movhi	r4,257
 100495c:	21095904 	addi	r4,r4,9572
 1004960:	180b883a 	mov	r5,r3
 1004964:	100d883a 	mov	r6,r2
 1004968:	1010a380 	call	1010a38 <printf>
 100496c:	d0a00117 	ldw	r2,-32764(gp)
 1004970:	1000061e 	bne	r2,zero,100498c <sdhc_decode_cid+0x1a6c>
 1004974:	e0bffe17 	ldw	r2,-8(fp)
 1004978:	10800317 	ldw	r2,12(r2)
 100497c:	01004074 	movhi	r4,257
 1004980:	21094804 	addi	r4,r4,9504
 1004984:	100b883a 	mov	r5,r2
 1004988:	1010a380 	call	1010a38 <printf>
 100498c:	e037883a 	mov	sp,fp
 1004990:	dfc00117 	ldw	ra,4(sp)
 1004994:	df000017 	ldw	fp,0(sp)
 1004998:	dec00204 	addi	sp,sp,8
 100499c:	f800283a 	ret

010049a0 <sdhc_decode_csd>:
 10049a0:	deff3c04 	addi	sp,sp,-784
 10049a4:	dfc0c315 	stw	ra,780(sp)
 10049a8:	df00c215 	stw	fp,776(sp)
 10049ac:	df00c204 	addi	fp,sp,776
 10049b0:	e13ffd15 	stw	r4,-12(fp)
 10049b4:	e17ffe15 	stw	r5,-8(fp)
 10049b8:	e1bfff15 	stw	r6,-4(fp)
 10049bc:	00800084 	movi	r2,2
 10049c0:	e0bf6315 	stw	r2,-628(fp)
 10049c4:	e0bf6317 	ldw	r2,-628(fp)
 10049c8:	10800808 	cmpgei	r2,r2,32
 10049cc:	1000051e 	bne	r2,zero,10049e4 <sdhc_decode_csd+0x44>
 10049d0:	00c00044 	movi	r3,1
 10049d4:	e0bf6317 	ldw	r2,-628(fp)
 10049d8:	1884983a 	sll	r2,r3,r2
 10049dc:	10bfffc4 	addi	r2,r2,-1
 10049e0:	00000106 	br	10049e8 <sdhc_decode_csd+0x48>
 10049e4:	00bfffc4 	movi	r2,-1
 10049e8:	e0bf6415 	stw	r2,-624(fp)
 10049ec:	e03f6515 	stw	zero,-620(fp)
 10049f0:	00800784 	movi	r2,30
 10049f4:	e0bf6615 	stw	r2,-616(fp)
 10049f8:	e0bf6517 	ldw	r2,-620(fp)
 10049fc:	1085883a 	add	r2,r2,r2
 1004a00:	1085883a 	add	r2,r2,r2
 1004a04:	1007883a 	mov	r3,r2
 1004a08:	e0bfff17 	ldw	r2,-4(fp)
 1004a0c:	10c5883a 	add	r2,r2,r3
 1004a10:	10c00017 	ldw	r3,0(r2)
 1004a14:	e0bf6617 	ldw	r2,-616(fp)
 1004a18:	1884d83a 	srl	r2,r3,r2
 1004a1c:	e0bf3e15 	stw	r2,-776(fp)
 1004a20:	e0ff6317 	ldw	r3,-628(fp)
 1004a24:	e0bf6617 	ldw	r2,-616(fp)
 1004a28:	1885883a 	add	r2,r3,r2
 1004a2c:	10800850 	cmplti	r2,r2,33
 1004a30:	1000161e 	bne	r2,zero,1004a8c <sdhc_decode_csd+0xec>
 1004a34:	e0bf6517 	ldw	r2,-620(fp)
 1004a38:	1085883a 	add	r2,r2,r2
 1004a3c:	1085883a 	add	r2,r2,r2
 1004a40:	10bfff04 	addi	r2,r2,-4
 1004a44:	e0ffff17 	ldw	r3,-4(fp)
 1004a48:	1885883a 	add	r2,r3,r2
 1004a4c:	10c00017 	ldw	r3,0(r2)
 1004a50:	01000804 	movi	r4,32
 1004a54:	e0bf6617 	ldw	r2,-616(fp)
 1004a58:	2089c83a 	sub	r4,r4,r2
 1004a5c:	00a00034 	movhi	r2,32768
 1004a60:	108007c4 	addi	r2,r2,31
 1004a64:	2084703a 	and	r2,r4,r2
 1004a68:	1000040e 	bge	r2,zero,1004a7c <sdhc_decode_csd+0xdc>
 1004a6c:	10bfffc4 	addi	r2,r2,-1
 1004a70:	013ff804 	movi	r4,-32
 1004a74:	1104b03a 	or	r2,r2,r4
 1004a78:	10800044 	addi	r2,r2,1
 1004a7c:	1884983a 	sll	r2,r3,r2
 1004a80:	e0ff3e17 	ldw	r3,-776(fp)
 1004a84:	1884b03a 	or	r2,r3,r2
 1004a88:	e0bf3e15 	stw	r2,-776(fp)
 1004a8c:	e0ff3e17 	ldw	r3,-776(fp)
 1004a90:	e0bf6417 	ldw	r2,-624(fp)
 1004a94:	1884703a 	and	r2,r3,r2
 1004a98:	e0bf6715 	stw	r2,-612(fp)
 1004a9c:	e0bffd17 	ldw	r2,-12(fp)
 1004aa0:	10802617 	ldw	r2,152(r2)
 1004aa4:	108000d8 	cmpnei	r2,r2,3
 1004aa8:	10048e1e 	bne	r2,zero,1005ce4 <sdhc_decode_csd+0x1344>
 1004aac:	00800084 	movi	r2,2
 1004ab0:	e0bf6815 	stw	r2,-608(fp)
 1004ab4:	e0bf6817 	ldw	r2,-608(fp)
 1004ab8:	10800808 	cmpgei	r2,r2,32
 1004abc:	1000051e 	bne	r2,zero,1004ad4 <sdhc_decode_csd+0x134>
 1004ac0:	00c00044 	movi	r3,1
 1004ac4:	e0bf6817 	ldw	r2,-608(fp)
 1004ac8:	1884983a 	sll	r2,r3,r2
 1004acc:	10bfffc4 	addi	r2,r2,-1
 1004ad0:	00000106 	br	1004ad8 <sdhc_decode_csd+0x138>
 1004ad4:	00bfffc4 	movi	r2,-1
 1004ad8:	e0bf6915 	stw	r2,-604(fp)
 1004adc:	e03f6a15 	stw	zero,-600(fp)
 1004ae0:	00800784 	movi	r2,30
 1004ae4:	e0bf6b15 	stw	r2,-596(fp)
 1004ae8:	e0bf6a17 	ldw	r2,-600(fp)
 1004aec:	1085883a 	add	r2,r2,r2
 1004af0:	1085883a 	add	r2,r2,r2
 1004af4:	1007883a 	mov	r3,r2
 1004af8:	e0bfff17 	ldw	r2,-4(fp)
 1004afc:	10c5883a 	add	r2,r2,r3
 1004b00:	10c00017 	ldw	r3,0(r2)
 1004b04:	e0bf6b17 	ldw	r2,-596(fp)
 1004b08:	1884d83a 	srl	r2,r3,r2
 1004b0c:	e0bf3f15 	stw	r2,-772(fp)
 1004b10:	e0ff6817 	ldw	r3,-608(fp)
 1004b14:	e0bf6b17 	ldw	r2,-596(fp)
 1004b18:	1885883a 	add	r2,r3,r2
 1004b1c:	10800850 	cmplti	r2,r2,33
 1004b20:	1000161e 	bne	r2,zero,1004b7c <sdhc_decode_csd+0x1dc>
 1004b24:	e0bf6a17 	ldw	r2,-600(fp)
 1004b28:	1085883a 	add	r2,r2,r2
 1004b2c:	1085883a 	add	r2,r2,r2
 1004b30:	10bfff04 	addi	r2,r2,-4
 1004b34:	e0ffff17 	ldw	r3,-4(fp)
 1004b38:	1885883a 	add	r2,r3,r2
 1004b3c:	10c00017 	ldw	r3,0(r2)
 1004b40:	01000804 	movi	r4,32
 1004b44:	e0bf6b17 	ldw	r2,-596(fp)
 1004b48:	2089c83a 	sub	r4,r4,r2
 1004b4c:	00a00034 	movhi	r2,32768
 1004b50:	108007c4 	addi	r2,r2,31
 1004b54:	2084703a 	and	r2,r4,r2
 1004b58:	1000040e 	bge	r2,zero,1004b6c <sdhc_decode_csd+0x1cc>
 1004b5c:	10bfffc4 	addi	r2,r2,-1
 1004b60:	013ff804 	movi	r4,-32
 1004b64:	1104b03a 	or	r2,r2,r4
 1004b68:	10800044 	addi	r2,r2,1
 1004b6c:	1884983a 	sll	r2,r3,r2
 1004b70:	e0ff3f17 	ldw	r3,-772(fp)
 1004b74:	1884b03a 	or	r2,r3,r2
 1004b78:	e0bf3f15 	stw	r2,-772(fp)
 1004b7c:	e0ff3f17 	ldw	r3,-772(fp)
 1004b80:	e0bf6917 	ldw	r2,-604(fp)
 1004b84:	1884703a 	and	r2,r3,r2
 1004b88:	e0bf6715 	stw	r2,-612(fp)
 1004b8c:	00800104 	movi	r2,4
 1004b90:	e0bf6c15 	stw	r2,-592(fp)
 1004b94:	e0bf6c17 	ldw	r2,-592(fp)
 1004b98:	10800808 	cmpgei	r2,r2,32
 1004b9c:	1000051e 	bne	r2,zero,1004bb4 <sdhc_decode_csd+0x214>
 1004ba0:	00c00044 	movi	r3,1
 1004ba4:	e0bf6c17 	ldw	r2,-592(fp)
 1004ba8:	1884983a 	sll	r2,r3,r2
 1004bac:	10bfffc4 	addi	r2,r2,-1
 1004bb0:	00000106 	br	1004bb8 <sdhc_decode_csd+0x218>
 1004bb4:	00bfffc4 	movi	r2,-1
 1004bb8:	e0bf6d15 	stw	r2,-588(fp)
 1004bbc:	e03f6e15 	stw	zero,-584(fp)
 1004bc0:	00800684 	movi	r2,26
 1004bc4:	e0bf6f15 	stw	r2,-580(fp)
 1004bc8:	e0bf6e17 	ldw	r2,-584(fp)
 1004bcc:	1085883a 	add	r2,r2,r2
 1004bd0:	1085883a 	add	r2,r2,r2
 1004bd4:	1007883a 	mov	r3,r2
 1004bd8:	e0bfff17 	ldw	r2,-4(fp)
 1004bdc:	10c5883a 	add	r2,r2,r3
 1004be0:	10c00017 	ldw	r3,0(r2)
 1004be4:	e0bf6f17 	ldw	r2,-580(fp)
 1004be8:	1884d83a 	srl	r2,r3,r2
 1004bec:	e0bf4015 	stw	r2,-768(fp)
 1004bf0:	e0ff6c17 	ldw	r3,-592(fp)
 1004bf4:	e0bf6f17 	ldw	r2,-580(fp)
 1004bf8:	1885883a 	add	r2,r3,r2
 1004bfc:	10800850 	cmplti	r2,r2,33
 1004c00:	1000161e 	bne	r2,zero,1004c5c <sdhc_decode_csd+0x2bc>
 1004c04:	e0bf6e17 	ldw	r2,-584(fp)
 1004c08:	1085883a 	add	r2,r2,r2
 1004c0c:	1085883a 	add	r2,r2,r2
 1004c10:	10bfff04 	addi	r2,r2,-4
 1004c14:	e0ffff17 	ldw	r3,-4(fp)
 1004c18:	1885883a 	add	r2,r3,r2
 1004c1c:	10c00017 	ldw	r3,0(r2)
 1004c20:	01000804 	movi	r4,32
 1004c24:	e0bf6f17 	ldw	r2,-580(fp)
 1004c28:	2089c83a 	sub	r4,r4,r2
 1004c2c:	00a00034 	movhi	r2,32768
 1004c30:	108007c4 	addi	r2,r2,31
 1004c34:	2084703a 	and	r2,r4,r2
 1004c38:	1000040e 	bge	r2,zero,1004c4c <sdhc_decode_csd+0x2ac>
 1004c3c:	10bfffc4 	addi	r2,r2,-1
 1004c40:	013ff804 	movi	r4,-32
 1004c44:	1104b03a 	or	r2,r2,r4
 1004c48:	10800044 	addi	r2,r2,1
 1004c4c:	1884983a 	sll	r2,r3,r2
 1004c50:	e0ff4017 	ldw	r3,-768(fp)
 1004c54:	1884b03a 	or	r2,r3,r2
 1004c58:	e0bf4015 	stw	r2,-768(fp)
 1004c5c:	e0ff4017 	ldw	r3,-768(fp)
 1004c60:	e0bf6d17 	ldw	r2,-588(fp)
 1004c64:	1884703a 	and	r2,r3,r2
 1004c68:	1007883a 	mov	r3,r2
 1004c6c:	e0bffe17 	ldw	r2,-8(fp)
 1004c70:	10c00005 	stb	r3,0(r2)
 1004c74:	00800104 	movi	r2,4
 1004c78:	e0bf7015 	stw	r2,-576(fp)
 1004c7c:	e0bf7017 	ldw	r2,-576(fp)
 1004c80:	10800808 	cmpgei	r2,r2,32
 1004c84:	1000051e 	bne	r2,zero,1004c9c <sdhc_decode_csd+0x2fc>
 1004c88:	00c00044 	movi	r3,1
 1004c8c:	e0bf7017 	ldw	r2,-576(fp)
 1004c90:	1884983a 	sll	r2,r3,r2
 1004c94:	10bfffc4 	addi	r2,r2,-1
 1004c98:	00000106 	br	1004ca0 <sdhc_decode_csd+0x300>
 1004c9c:	00bfffc4 	movi	r2,-1
 1004ca0:	e0bf7115 	stw	r2,-572(fp)
 1004ca4:	e03f7215 	stw	zero,-568(fp)
 1004ca8:	008004c4 	movi	r2,19
 1004cac:	e0bf7315 	stw	r2,-564(fp)
 1004cb0:	e0bf7217 	ldw	r2,-568(fp)
 1004cb4:	1085883a 	add	r2,r2,r2
 1004cb8:	1085883a 	add	r2,r2,r2
 1004cbc:	1007883a 	mov	r3,r2
 1004cc0:	e0bfff17 	ldw	r2,-4(fp)
 1004cc4:	10c5883a 	add	r2,r2,r3
 1004cc8:	10c00017 	ldw	r3,0(r2)
 1004ccc:	e0bf7317 	ldw	r2,-564(fp)
 1004cd0:	1884d83a 	srl	r2,r3,r2
 1004cd4:	e0bf4115 	stw	r2,-764(fp)
 1004cd8:	e0ff7017 	ldw	r3,-576(fp)
 1004cdc:	e0bf7317 	ldw	r2,-564(fp)
 1004ce0:	1885883a 	add	r2,r3,r2
 1004ce4:	10800850 	cmplti	r2,r2,33
 1004ce8:	1000161e 	bne	r2,zero,1004d44 <sdhc_decode_csd+0x3a4>
 1004cec:	e0bf7217 	ldw	r2,-568(fp)
 1004cf0:	1085883a 	add	r2,r2,r2
 1004cf4:	1085883a 	add	r2,r2,r2
 1004cf8:	10bfff04 	addi	r2,r2,-4
 1004cfc:	e0ffff17 	ldw	r3,-4(fp)
 1004d00:	1885883a 	add	r2,r3,r2
 1004d04:	10c00017 	ldw	r3,0(r2)
 1004d08:	01000804 	movi	r4,32
 1004d0c:	e0bf7317 	ldw	r2,-564(fp)
 1004d10:	2089c83a 	sub	r4,r4,r2
 1004d14:	00a00034 	movhi	r2,32768
 1004d18:	108007c4 	addi	r2,r2,31
 1004d1c:	2084703a 	and	r2,r4,r2
 1004d20:	1000040e 	bge	r2,zero,1004d34 <sdhc_decode_csd+0x394>
 1004d24:	10bfffc4 	addi	r2,r2,-1
 1004d28:	013ff804 	movi	r4,-32
 1004d2c:	1104b03a 	or	r2,r2,r4
 1004d30:	10800044 	addi	r2,r2,1
 1004d34:	1884983a 	sll	r2,r3,r2
 1004d38:	e0ff4117 	ldw	r3,-764(fp)
 1004d3c:	1884b03a 	or	r2,r3,r2
 1004d40:	e0bf4115 	stw	r2,-764(fp)
 1004d44:	e0ff4117 	ldw	r3,-764(fp)
 1004d48:	e0bf7117 	ldw	r2,-572(fp)
 1004d4c:	1884703a 	and	r2,r3,r2
 1004d50:	e0bf7415 	stw	r2,-560(fp)
 1004d54:	008000c4 	movi	r2,3
 1004d58:	e0bf7515 	stw	r2,-556(fp)
 1004d5c:	e0bf7517 	ldw	r2,-556(fp)
 1004d60:	10800808 	cmpgei	r2,r2,32
 1004d64:	1000051e 	bne	r2,zero,1004d7c <sdhc_decode_csd+0x3dc>
 1004d68:	00c00044 	movi	r3,1
 1004d6c:	e0bf7517 	ldw	r2,-556(fp)
 1004d70:	1884983a 	sll	r2,r3,r2
 1004d74:	10bfffc4 	addi	r2,r2,-1
 1004d78:	00000106 	br	1004d80 <sdhc_decode_csd+0x3e0>
 1004d7c:	00bfffc4 	movi	r2,-1
 1004d80:	e0bf7615 	stw	r2,-552(fp)
 1004d84:	e03f7715 	stw	zero,-548(fp)
 1004d88:	00800404 	movi	r2,16
 1004d8c:	e0bf7815 	stw	r2,-544(fp)
 1004d90:	e0bf7717 	ldw	r2,-548(fp)
 1004d94:	1085883a 	add	r2,r2,r2
 1004d98:	1085883a 	add	r2,r2,r2
 1004d9c:	1007883a 	mov	r3,r2
 1004da0:	e0bfff17 	ldw	r2,-4(fp)
 1004da4:	10c5883a 	add	r2,r2,r3
 1004da8:	10c00017 	ldw	r3,0(r2)
 1004dac:	e0bf7817 	ldw	r2,-544(fp)
 1004db0:	1884d83a 	srl	r2,r3,r2
 1004db4:	e0bf4215 	stw	r2,-760(fp)
 1004db8:	e0ff7517 	ldw	r3,-556(fp)
 1004dbc:	e0bf7817 	ldw	r2,-544(fp)
 1004dc0:	1885883a 	add	r2,r3,r2
 1004dc4:	10800850 	cmplti	r2,r2,33
 1004dc8:	1000161e 	bne	r2,zero,1004e24 <sdhc_decode_csd+0x484>
 1004dcc:	e0bf7717 	ldw	r2,-548(fp)
 1004dd0:	1085883a 	add	r2,r2,r2
 1004dd4:	1085883a 	add	r2,r2,r2
 1004dd8:	10bfff04 	addi	r2,r2,-4
 1004ddc:	e0ffff17 	ldw	r3,-4(fp)
 1004de0:	1885883a 	add	r2,r3,r2
 1004de4:	10c00017 	ldw	r3,0(r2)
 1004de8:	01000804 	movi	r4,32
 1004dec:	e0bf7817 	ldw	r2,-544(fp)
 1004df0:	2089c83a 	sub	r4,r4,r2
 1004df4:	00a00034 	movhi	r2,32768
 1004df8:	108007c4 	addi	r2,r2,31
 1004dfc:	2084703a 	and	r2,r4,r2
 1004e00:	1000040e 	bge	r2,zero,1004e14 <sdhc_decode_csd+0x474>
 1004e04:	10bfffc4 	addi	r2,r2,-1
 1004e08:	013ff804 	movi	r4,-32
 1004e0c:	1104b03a 	or	r2,r2,r4
 1004e10:	10800044 	addi	r2,r2,1
 1004e14:	1884983a 	sll	r2,r3,r2
 1004e18:	e0ff4217 	ldw	r3,-760(fp)
 1004e1c:	1884b03a 	or	r2,r3,r2
 1004e20:	e0bf4215 	stw	r2,-760(fp)
 1004e24:	e0ff4217 	ldw	r3,-760(fp)
 1004e28:	e0bf7617 	ldw	r2,-552(fp)
 1004e2c:	1884703a 	and	r2,r3,r2
 1004e30:	e0bf7915 	stw	r2,-540(fp)
 1004e34:	00804074 	movhi	r2,257
 1004e38:	10890504 	addi	r2,r2,9236
 1004e3c:	e0ff7917 	ldw	r3,-540(fp)
 1004e40:	18c7883a 	add	r3,r3,r3
 1004e44:	18c7883a 	add	r3,r3,r3
 1004e48:	10c5883a 	add	r2,r2,r3
 1004e4c:	11000017 	ldw	r4,0(r2)
 1004e50:	00804074 	movhi	r2,257
 1004e54:	10890d04 	addi	r2,r2,9268
 1004e58:	e0ff7417 	ldw	r3,-560(fp)
 1004e5c:	18c7883a 	add	r3,r3,r3
 1004e60:	18c7883a 	add	r3,r3,r3
 1004e64:	10c5883a 	add	r2,r2,r3
 1004e68:	10800017 	ldw	r2,0(r2)
 1004e6c:	2085383a 	mul	r2,r4,r2
 1004e70:	10800244 	addi	r2,r2,9
 1004e74:	1009883a 	mov	r4,r2
 1004e78:	01400284 	movi	r5,10
 1004e7c:	100f7c40 	call	100f7c4 <__udivsi3>
 1004e80:	1007883a 	mov	r3,r2
 1004e84:	e0bffe17 	ldw	r2,-8(fp)
 1004e88:	10c00215 	stw	r3,8(r2)
 1004e8c:	00800204 	movi	r2,8
 1004e90:	e0bf7a15 	stw	r2,-536(fp)
 1004e94:	e0bf7a17 	ldw	r2,-536(fp)
 1004e98:	10800808 	cmpgei	r2,r2,32
 1004e9c:	1000051e 	bne	r2,zero,1004eb4 <sdhc_decode_csd+0x514>
 1004ea0:	00c00044 	movi	r3,1
 1004ea4:	e0bf7a17 	ldw	r2,-536(fp)
 1004ea8:	1884983a 	sll	r2,r3,r2
 1004eac:	10bfffc4 	addi	r2,r2,-1
 1004eb0:	00000106 	br	1004eb8 <sdhc_decode_csd+0x518>
 1004eb4:	00bfffc4 	movi	r2,-1
 1004eb8:	e0bf7b15 	stw	r2,-532(fp)
 1004ebc:	e03f7c15 	stw	zero,-528(fp)
 1004ec0:	00800204 	movi	r2,8
 1004ec4:	e0bf7d15 	stw	r2,-524(fp)
 1004ec8:	e0bf7c17 	ldw	r2,-528(fp)
 1004ecc:	1085883a 	add	r2,r2,r2
 1004ed0:	1085883a 	add	r2,r2,r2
 1004ed4:	1007883a 	mov	r3,r2
 1004ed8:	e0bfff17 	ldw	r2,-4(fp)
 1004edc:	10c5883a 	add	r2,r2,r3
 1004ee0:	10c00017 	ldw	r3,0(r2)
 1004ee4:	e0bf7d17 	ldw	r2,-524(fp)
 1004ee8:	1884d83a 	srl	r2,r3,r2
 1004eec:	e0bf4315 	stw	r2,-756(fp)
 1004ef0:	e0ff7a17 	ldw	r3,-536(fp)
 1004ef4:	e0bf7d17 	ldw	r2,-524(fp)
 1004ef8:	1885883a 	add	r2,r3,r2
 1004efc:	10800850 	cmplti	r2,r2,33
 1004f00:	1000161e 	bne	r2,zero,1004f5c <sdhc_decode_csd+0x5bc>
 1004f04:	e0bf7c17 	ldw	r2,-528(fp)
 1004f08:	1085883a 	add	r2,r2,r2
 1004f0c:	1085883a 	add	r2,r2,r2
 1004f10:	10bfff04 	addi	r2,r2,-4
 1004f14:	e0ffff17 	ldw	r3,-4(fp)
 1004f18:	1885883a 	add	r2,r3,r2
 1004f1c:	10c00017 	ldw	r3,0(r2)
 1004f20:	01000804 	movi	r4,32
 1004f24:	e0bf7d17 	ldw	r2,-524(fp)
 1004f28:	2089c83a 	sub	r4,r4,r2
 1004f2c:	00a00034 	movhi	r2,32768
 1004f30:	108007c4 	addi	r2,r2,31
 1004f34:	2084703a 	and	r2,r4,r2
 1004f38:	1000040e 	bge	r2,zero,1004f4c <sdhc_decode_csd+0x5ac>
 1004f3c:	10bfffc4 	addi	r2,r2,-1
 1004f40:	013ff804 	movi	r4,-32
 1004f44:	1104b03a 	or	r2,r2,r4
 1004f48:	10800044 	addi	r2,r2,1
 1004f4c:	1884983a 	sll	r2,r3,r2
 1004f50:	e0ff4317 	ldw	r3,-756(fp)
 1004f54:	1884b03a 	or	r2,r3,r2
 1004f58:	e0bf4315 	stw	r2,-756(fp)
 1004f5c:	e0ff4317 	ldw	r3,-756(fp)
 1004f60:	e0bf7b17 	ldw	r2,-532(fp)
 1004f64:	1884703a 	and	r2,r3,r2
 1004f68:	10801924 	muli	r2,r2,100
 1004f6c:	1007883a 	mov	r3,r2
 1004f70:	e0bffe17 	ldw	r2,-8(fp)
 1004f74:	10c0010d 	sth	r3,4(r2)
 1004f78:	00800104 	movi	r2,4
 1004f7c:	e0bf7e15 	stw	r2,-520(fp)
 1004f80:	e0bf7e17 	ldw	r2,-520(fp)
 1004f84:	10800808 	cmpgei	r2,r2,32
 1004f88:	1000051e 	bne	r2,zero,1004fa0 <sdhc_decode_csd+0x600>
 1004f8c:	00c00044 	movi	r3,1
 1004f90:	e0bf7e17 	ldw	r2,-520(fp)
 1004f94:	1884983a 	sll	r2,r3,r2
 1004f98:	10bfffc4 	addi	r2,r2,-1
 1004f9c:	00000106 	br	1004fa4 <sdhc_decode_csd+0x604>
 1004fa0:	00bfffc4 	movi	r2,-1
 1004fa4:	e0bf7f15 	stw	r2,-516(fp)
 1004fa8:	e03f8015 	stw	zero,-512(fp)
 1004fac:	008000c4 	movi	r2,3
 1004fb0:	e0bf8115 	stw	r2,-508(fp)
 1004fb4:	e0bf8017 	ldw	r2,-512(fp)
 1004fb8:	1085883a 	add	r2,r2,r2
 1004fbc:	1085883a 	add	r2,r2,r2
 1004fc0:	1007883a 	mov	r3,r2
 1004fc4:	e0bfff17 	ldw	r2,-4(fp)
 1004fc8:	10c5883a 	add	r2,r2,r3
 1004fcc:	10c00017 	ldw	r3,0(r2)
 1004fd0:	e0bf8117 	ldw	r2,-508(fp)
 1004fd4:	1884d83a 	srl	r2,r3,r2
 1004fd8:	e0bf4415 	stw	r2,-752(fp)
 1004fdc:	e0ff7e17 	ldw	r3,-520(fp)
 1004fe0:	e0bf8117 	ldw	r2,-508(fp)
 1004fe4:	1885883a 	add	r2,r3,r2
 1004fe8:	10800850 	cmplti	r2,r2,33
 1004fec:	1000161e 	bne	r2,zero,1005048 <sdhc_decode_csd+0x6a8>
 1004ff0:	e0bf8017 	ldw	r2,-512(fp)
 1004ff4:	1085883a 	add	r2,r2,r2
 1004ff8:	1085883a 	add	r2,r2,r2
 1004ffc:	10bfff04 	addi	r2,r2,-4
 1005000:	e0ffff17 	ldw	r3,-4(fp)
 1005004:	1885883a 	add	r2,r3,r2
 1005008:	10c00017 	ldw	r3,0(r2)
 100500c:	01000804 	movi	r4,32
 1005010:	e0bf8117 	ldw	r2,-508(fp)
 1005014:	2089c83a 	sub	r4,r4,r2
 1005018:	00a00034 	movhi	r2,32768
 100501c:	108007c4 	addi	r2,r2,31
 1005020:	2084703a 	and	r2,r4,r2
 1005024:	1000040e 	bge	r2,zero,1005038 <sdhc_decode_csd+0x698>
 1005028:	10bfffc4 	addi	r2,r2,-1
 100502c:	013ff804 	movi	r4,-32
 1005030:	1104b03a 	or	r2,r2,r4
 1005034:	10800044 	addi	r2,r2,1
 1005038:	1884983a 	sll	r2,r3,r2
 100503c:	e0ff4417 	ldw	r3,-752(fp)
 1005040:	1884b03a 	or	r2,r3,r2
 1005044:	e0bf4415 	stw	r2,-752(fp)
 1005048:	e0ff4417 	ldw	r3,-752(fp)
 100504c:	e0bf7f17 	ldw	r2,-516(fp)
 1005050:	1884703a 	and	r2,r3,r2
 1005054:	e0bf7415 	stw	r2,-560(fp)
 1005058:	008000c4 	movi	r2,3
 100505c:	e0bf8215 	stw	r2,-504(fp)
 1005060:	e0bf8217 	ldw	r2,-504(fp)
 1005064:	10800808 	cmpgei	r2,r2,32
 1005068:	1000051e 	bne	r2,zero,1005080 <sdhc_decode_csd+0x6e0>
 100506c:	00c00044 	movi	r3,1
 1005070:	e0bf8217 	ldw	r2,-504(fp)
 1005074:	1884983a 	sll	r2,r3,r2
 1005078:	10bfffc4 	addi	r2,r2,-1
 100507c:	00000106 	br	1005084 <sdhc_decode_csd+0x6e4>
 1005080:	00bfffc4 	movi	r2,-1
 1005084:	e0bf8315 	stw	r2,-500(fp)
 1005088:	e03f8415 	stw	zero,-496(fp)
 100508c:	e03f8515 	stw	zero,-492(fp)
 1005090:	e0bf8417 	ldw	r2,-496(fp)
 1005094:	1085883a 	add	r2,r2,r2
 1005098:	1085883a 	add	r2,r2,r2
 100509c:	1007883a 	mov	r3,r2
 10050a0:	e0bfff17 	ldw	r2,-4(fp)
 10050a4:	10c5883a 	add	r2,r2,r3
 10050a8:	10c00017 	ldw	r3,0(r2)
 10050ac:	e0bf8517 	ldw	r2,-492(fp)
 10050b0:	1884d83a 	srl	r2,r3,r2
 10050b4:	e0bf4515 	stw	r2,-748(fp)
 10050b8:	e0ff8217 	ldw	r3,-504(fp)
 10050bc:	e0bf8517 	ldw	r2,-492(fp)
 10050c0:	1885883a 	add	r2,r3,r2
 10050c4:	10800850 	cmplti	r2,r2,33
 10050c8:	1000161e 	bne	r2,zero,1005124 <sdhc_decode_csd+0x784>
 10050cc:	e0bf8417 	ldw	r2,-496(fp)
 10050d0:	1085883a 	add	r2,r2,r2
 10050d4:	1085883a 	add	r2,r2,r2
 10050d8:	10bfff04 	addi	r2,r2,-4
 10050dc:	e0ffff17 	ldw	r3,-4(fp)
 10050e0:	1885883a 	add	r2,r3,r2
 10050e4:	10c00017 	ldw	r3,0(r2)
 10050e8:	01000804 	movi	r4,32
 10050ec:	e0bf8517 	ldw	r2,-492(fp)
 10050f0:	2089c83a 	sub	r4,r4,r2
 10050f4:	00a00034 	movhi	r2,32768
 10050f8:	108007c4 	addi	r2,r2,31
 10050fc:	2084703a 	and	r2,r4,r2
 1005100:	1000040e 	bge	r2,zero,1005114 <sdhc_decode_csd+0x774>
 1005104:	10bfffc4 	addi	r2,r2,-1
 1005108:	013ff804 	movi	r4,-32
 100510c:	1104b03a 	or	r2,r2,r4
 1005110:	10800044 	addi	r2,r2,1
 1005114:	1884983a 	sll	r2,r3,r2
 1005118:	e0ff4517 	ldw	r3,-748(fp)
 100511c:	1884b03a 	or	r2,r3,r2
 1005120:	e0bf4515 	stw	r2,-748(fp)
 1005124:	e0ff4517 	ldw	r3,-748(fp)
 1005128:	e0bf8317 	ldw	r2,-500(fp)
 100512c:	1884703a 	and	r2,r3,r2
 1005130:	e0bf7915 	stw	r2,-540(fp)
 1005134:	00804074 	movhi	r2,257
 1005138:	1088f504 	addi	r2,r2,9172
 100513c:	e0ff7917 	ldw	r3,-540(fp)
 1005140:	18c7883a 	add	r3,r3,r3
 1005144:	18c7883a 	add	r3,r3,r3
 1005148:	10c5883a 	add	r2,r2,r3
 100514c:	10c00017 	ldw	r3,0(r2)
 1005150:	00804074 	movhi	r2,257
 1005154:	10890104 	addi	r2,r2,9220
 1005158:	e13f7417 	ldw	r4,-560(fp)
 100515c:	1105883a 	add	r2,r2,r4
 1005160:	10800003 	ldbu	r2,0(r2)
 1005164:	10803fcc 	andi	r2,r2,255
 1005168:	1887383a 	mul	r3,r3,r2
 100516c:	e0bffe17 	ldw	r2,-8(fp)
 1005170:	10c00415 	stw	r3,16(r2)
 1005174:	00800304 	movi	r2,12
 1005178:	e0bf8615 	stw	r2,-488(fp)
 100517c:	e0bf8617 	ldw	r2,-488(fp)
 1005180:	10800808 	cmpgei	r2,r2,32
 1005184:	1000051e 	bne	r2,zero,100519c <sdhc_decode_csd+0x7fc>
 1005188:	00c00044 	movi	r3,1
 100518c:	e0bf8617 	ldw	r2,-488(fp)
 1005190:	1884983a 	sll	r2,r3,r2
 1005194:	10bfffc4 	addi	r2,r2,-1
 1005198:	00000106 	br	10051a0 <sdhc_decode_csd+0x800>
 100519c:	00bfffc4 	movi	r2,-1
 10051a0:	e0bf8715 	stw	r2,-484(fp)
 10051a4:	00800044 	movi	r2,1
 10051a8:	e0bf8815 	stw	r2,-480(fp)
 10051ac:	00800504 	movi	r2,20
 10051b0:	e0bf8915 	stw	r2,-476(fp)
 10051b4:	e0bf8817 	ldw	r2,-480(fp)
 10051b8:	1085883a 	add	r2,r2,r2
 10051bc:	1085883a 	add	r2,r2,r2
 10051c0:	1007883a 	mov	r3,r2
 10051c4:	e0bfff17 	ldw	r2,-4(fp)
 10051c8:	10c5883a 	add	r2,r2,r3
 10051cc:	10c00017 	ldw	r3,0(r2)
 10051d0:	e0bf8917 	ldw	r2,-476(fp)
 10051d4:	1884d83a 	srl	r2,r3,r2
 10051d8:	e0bf4615 	stw	r2,-744(fp)
 10051dc:	e0ff8617 	ldw	r3,-488(fp)
 10051e0:	e0bf8917 	ldw	r2,-476(fp)
 10051e4:	1885883a 	add	r2,r3,r2
 10051e8:	10800850 	cmplti	r2,r2,33
 10051ec:	1000161e 	bne	r2,zero,1005248 <sdhc_decode_csd+0x8a8>
 10051f0:	e0bf8817 	ldw	r2,-480(fp)
 10051f4:	1085883a 	add	r2,r2,r2
 10051f8:	1085883a 	add	r2,r2,r2
 10051fc:	10bfff04 	addi	r2,r2,-4
 1005200:	e0ffff17 	ldw	r3,-4(fp)
 1005204:	1885883a 	add	r2,r3,r2
 1005208:	10c00017 	ldw	r3,0(r2)
 100520c:	01000804 	movi	r4,32
 1005210:	e0bf8917 	ldw	r2,-476(fp)
 1005214:	2089c83a 	sub	r4,r4,r2
 1005218:	00a00034 	movhi	r2,32768
 100521c:	108007c4 	addi	r2,r2,31
 1005220:	2084703a 	and	r2,r4,r2
 1005224:	1000040e 	bge	r2,zero,1005238 <sdhc_decode_csd+0x898>
 1005228:	10bfffc4 	addi	r2,r2,-1
 100522c:	013ff804 	movi	r4,-32
 1005230:	1104b03a 	or	r2,r2,r4
 1005234:	10800044 	addi	r2,r2,1
 1005238:	1884983a 	sll	r2,r3,r2
 100523c:	e0ff4617 	ldw	r3,-744(fp)
 1005240:	1884b03a 	or	r2,r3,r2
 1005244:	e0bf4615 	stw	r2,-744(fp)
 1005248:	e0ff4617 	ldw	r3,-744(fp)
 100524c:	e0bf8717 	ldw	r2,-484(fp)
 1005250:	1884703a 	and	r2,r3,r2
 1005254:	1007883a 	mov	r3,r2
 1005258:	e0bffe17 	ldw	r2,-8(fp)
 100525c:	10c0008d 	sth	r3,2(r2)
 1005260:	008000c4 	movi	r2,3
 1005264:	e0bf8a15 	stw	r2,-472(fp)
 1005268:	e0bf8a17 	ldw	r2,-472(fp)
 100526c:	10800808 	cmpgei	r2,r2,32
 1005270:	1000051e 	bne	r2,zero,1005288 <sdhc_decode_csd+0x8e8>
 1005274:	00c00044 	movi	r3,1
 1005278:	e0bf8a17 	ldw	r2,-472(fp)
 100527c:	1884983a 	sll	r2,r3,r2
 1005280:	10bfffc4 	addi	r2,r2,-1
 1005284:	00000106 	br	100528c <sdhc_decode_csd+0x8ec>
 1005288:	00bfffc4 	movi	r2,-1
 100528c:	e0bf8b15 	stw	r2,-468(fp)
 1005290:	00800084 	movi	r2,2
 1005294:	e0bf8c15 	stw	r2,-464(fp)
 1005298:	008003c4 	movi	r2,15
 100529c:	e0bf8d15 	stw	r2,-460(fp)
 10052a0:	e0bf8c17 	ldw	r2,-464(fp)
 10052a4:	1085883a 	add	r2,r2,r2
 10052a8:	1085883a 	add	r2,r2,r2
 10052ac:	1007883a 	mov	r3,r2
 10052b0:	e0bfff17 	ldw	r2,-4(fp)
 10052b4:	10c5883a 	add	r2,r2,r3
 10052b8:	10c00017 	ldw	r3,0(r2)
 10052bc:	e0bf8d17 	ldw	r2,-460(fp)
 10052c0:	1884d83a 	srl	r2,r3,r2
 10052c4:	e0bf4715 	stw	r2,-740(fp)
 10052c8:	e0ff8a17 	ldw	r3,-472(fp)
 10052cc:	e0bf8d17 	ldw	r2,-460(fp)
 10052d0:	1885883a 	add	r2,r3,r2
 10052d4:	10800850 	cmplti	r2,r2,33
 10052d8:	1000161e 	bne	r2,zero,1005334 <sdhc_decode_csd+0x994>
 10052dc:	e0bf8c17 	ldw	r2,-464(fp)
 10052e0:	1085883a 	add	r2,r2,r2
 10052e4:	1085883a 	add	r2,r2,r2
 10052e8:	10bfff04 	addi	r2,r2,-4
 10052ec:	e0ffff17 	ldw	r3,-4(fp)
 10052f0:	1885883a 	add	r2,r3,r2
 10052f4:	10c00017 	ldw	r3,0(r2)
 10052f8:	01000804 	movi	r4,32
 10052fc:	e0bf8d17 	ldw	r2,-460(fp)
 1005300:	2089c83a 	sub	r4,r4,r2
 1005304:	00a00034 	movhi	r2,32768
 1005308:	108007c4 	addi	r2,r2,31
 100530c:	2084703a 	and	r2,r4,r2
 1005310:	1000040e 	bge	r2,zero,1005324 <sdhc_decode_csd+0x984>
 1005314:	10bfffc4 	addi	r2,r2,-1
 1005318:	013ff804 	movi	r4,-32
 100531c:	1104b03a 	or	r2,r2,r4
 1005320:	10800044 	addi	r2,r2,1
 1005324:	1884983a 	sll	r2,r3,r2
 1005328:	e0ff4717 	ldw	r3,-740(fp)
 100532c:	1884b03a 	or	r2,r3,r2
 1005330:	e0bf4715 	stw	r2,-740(fp)
 1005334:	e0ff4717 	ldw	r3,-740(fp)
 1005338:	e0bf8b17 	ldw	r2,-468(fp)
 100533c:	1884703a 	and	r2,r3,r2
 1005340:	e0bf7915 	stw	r2,-540(fp)
 1005344:	00800304 	movi	r2,12
 1005348:	e0bf8e15 	stw	r2,-456(fp)
 100534c:	e0bf8e17 	ldw	r2,-456(fp)
 1005350:	10800808 	cmpgei	r2,r2,32
 1005354:	1000051e 	bne	r2,zero,100536c <sdhc_decode_csd+0x9cc>
 1005358:	00c00044 	movi	r3,1
 100535c:	e0bf8e17 	ldw	r2,-456(fp)
 1005360:	1884983a 	sll	r2,r3,r2
 1005364:	10bfffc4 	addi	r2,r2,-1
 1005368:	00000106 	br	1005370 <sdhc_decode_csd+0x9d0>
 100536c:	00bfffc4 	movi	r2,-1
 1005370:	e0bf8f15 	stw	r2,-452(fp)
 1005374:	00800084 	movi	r2,2
 1005378:	e0bf9015 	stw	r2,-448(fp)
 100537c:	00800784 	movi	r2,30
 1005380:	e0bf9115 	stw	r2,-444(fp)
 1005384:	e0bf9017 	ldw	r2,-448(fp)
 1005388:	1085883a 	add	r2,r2,r2
 100538c:	1085883a 	add	r2,r2,r2
 1005390:	1007883a 	mov	r3,r2
 1005394:	e0bfff17 	ldw	r2,-4(fp)
 1005398:	10c5883a 	add	r2,r2,r3
 100539c:	10c00017 	ldw	r3,0(r2)
 10053a0:	e0bf9117 	ldw	r2,-444(fp)
 10053a4:	1884d83a 	srl	r2,r3,r2
 10053a8:	e0bf4815 	stw	r2,-736(fp)
 10053ac:	e0ff8e17 	ldw	r3,-456(fp)
 10053b0:	e0bf9117 	ldw	r2,-444(fp)
 10053b4:	1885883a 	add	r2,r3,r2
 10053b8:	10800850 	cmplti	r2,r2,33
 10053bc:	1000161e 	bne	r2,zero,1005418 <sdhc_decode_csd+0xa78>
 10053c0:	e0bf9017 	ldw	r2,-448(fp)
 10053c4:	1085883a 	add	r2,r2,r2
 10053c8:	1085883a 	add	r2,r2,r2
 10053cc:	10bfff04 	addi	r2,r2,-4
 10053d0:	e0ffff17 	ldw	r3,-4(fp)
 10053d4:	1885883a 	add	r2,r3,r2
 10053d8:	10c00017 	ldw	r3,0(r2)
 10053dc:	01000804 	movi	r4,32
 10053e0:	e0bf9117 	ldw	r2,-444(fp)
 10053e4:	2089c83a 	sub	r4,r4,r2
 10053e8:	00a00034 	movhi	r2,32768
 10053ec:	108007c4 	addi	r2,r2,31
 10053f0:	2084703a 	and	r2,r4,r2
 10053f4:	1000040e 	bge	r2,zero,1005408 <sdhc_decode_csd+0xa68>
 10053f8:	10bfffc4 	addi	r2,r2,-1
 10053fc:	013ff804 	movi	r4,-32
 1005400:	1104b03a 	or	r2,r2,r4
 1005404:	10800044 	addi	r2,r2,1
 1005408:	1884983a 	sll	r2,r3,r2
 100540c:	e0ff4817 	ldw	r3,-736(fp)
 1005410:	1884b03a 	or	r2,r3,r2
 1005414:	e0bf4815 	stw	r2,-736(fp)
 1005418:	e0ff4817 	ldw	r3,-736(fp)
 100541c:	e0bf8f17 	ldw	r2,-452(fp)
 1005420:	1884703a 	and	r2,r3,r2
 1005424:	e0bf7415 	stw	r2,-560(fp)
 1005428:	e0bf7417 	ldw	r2,-560(fp)
 100542c:	e0bf9215 	stw	r2,-440(fp)
 1005430:	e0bf7417 	ldw	r2,-560(fp)
 1005434:	10800044 	addi	r2,r2,1
 1005438:	e0ff7917 	ldw	r3,-540(fp)
 100543c:	18c00084 	addi	r3,r3,2
 1005440:	10c4983a 	sll	r2,r2,r3
 1005444:	e0bf9315 	stw	r2,-436(fp)
 1005448:	e0bf9217 	ldw	r2,-440(fp)
 100544c:	1083ffd8 	cmpnei	r2,r2,4095
 1005450:	1000041e 	bne	r2,zero,1005464 <sdhc_decode_csd+0xac4>
 1005454:	e0bffe17 	ldw	r2,-8(fp)
 1005458:	00c3ffc4 	movi	r3,4095
 100545c:	10c00715 	stw	r3,28(r2)
 1005460:	00000706 	br	1005480 <sdhc_decode_csd+0xae0>
 1005464:	e0bf7417 	ldw	r2,-560(fp)
 1005468:	10800044 	addi	r2,r2,1
 100546c:	e0ff7917 	ldw	r3,-540(fp)
 1005470:	18c00084 	addi	r3,r3,2
 1005474:	10c6983a 	sll	r3,r2,r3
 1005478:	e0bffe17 	ldw	r2,-8(fp)
 100547c:	10c00715 	stw	r3,28(r2)
 1005480:	00800104 	movi	r2,4
 1005484:	e0bf9415 	stw	r2,-432(fp)
 1005488:	e0bf9417 	ldw	r2,-432(fp)
 100548c:	10800808 	cmpgei	r2,r2,32
 1005490:	1000051e 	bne	r2,zero,10054a8 <sdhc_decode_csd+0xb08>
 1005494:	00c00044 	movi	r3,1
 1005498:	e0bf9417 	ldw	r2,-432(fp)
 100549c:	1884983a 	sll	r2,r3,r2
 10054a0:	10bfffc4 	addi	r2,r2,-1
 10054a4:	00000106 	br	10054ac <sdhc_decode_csd+0xb0c>
 10054a8:	00bfffc4 	movi	r2,-1
 10054ac:	e0bf9515 	stw	r2,-428(fp)
 10054b0:	00800044 	movi	r2,1
 10054b4:	e0bf9615 	stw	r2,-424(fp)
 10054b8:	00800404 	movi	r2,16
 10054bc:	e0bf9715 	stw	r2,-420(fp)
 10054c0:	e0bf9617 	ldw	r2,-424(fp)
 10054c4:	1085883a 	add	r2,r2,r2
 10054c8:	1085883a 	add	r2,r2,r2
 10054cc:	1007883a 	mov	r3,r2
 10054d0:	e0bfff17 	ldw	r2,-4(fp)
 10054d4:	10c5883a 	add	r2,r2,r3
 10054d8:	10c00017 	ldw	r3,0(r2)
 10054dc:	e0bf9717 	ldw	r2,-420(fp)
 10054e0:	1884d83a 	srl	r2,r3,r2
 10054e4:	e0bf4915 	stw	r2,-732(fp)
 10054e8:	e0ff9417 	ldw	r3,-432(fp)
 10054ec:	e0bf9717 	ldw	r2,-420(fp)
 10054f0:	1885883a 	add	r2,r3,r2
 10054f4:	10800850 	cmplti	r2,r2,33
 10054f8:	1000161e 	bne	r2,zero,1005554 <sdhc_decode_csd+0xbb4>
 10054fc:	e0bf9617 	ldw	r2,-424(fp)
 1005500:	1085883a 	add	r2,r2,r2
 1005504:	1085883a 	add	r2,r2,r2
 1005508:	10bfff04 	addi	r2,r2,-4
 100550c:	e0ffff17 	ldw	r3,-4(fp)
 1005510:	1885883a 	add	r2,r3,r2
 1005514:	10c00017 	ldw	r3,0(r2)
 1005518:	01000804 	movi	r4,32
 100551c:	e0bf9717 	ldw	r2,-420(fp)
 1005520:	2089c83a 	sub	r4,r4,r2
 1005524:	00a00034 	movhi	r2,32768
 1005528:	108007c4 	addi	r2,r2,31
 100552c:	2084703a 	and	r2,r4,r2
 1005530:	1000040e 	bge	r2,zero,1005544 <sdhc_decode_csd+0xba4>
 1005534:	10bfffc4 	addi	r2,r2,-1
 1005538:	013ff804 	movi	r4,-32
 100553c:	1104b03a 	or	r2,r2,r4
 1005540:	10800044 	addi	r2,r2,1
 1005544:	1884983a 	sll	r2,r3,r2
 1005548:	e0ff4917 	ldw	r3,-732(fp)
 100554c:	1884b03a 	or	r2,r3,r2
 1005550:	e0bf4915 	stw	r2,-732(fp)
 1005554:	e0ff4917 	ldw	r3,-732(fp)
 1005558:	e0bf9517 	ldw	r2,-428(fp)
 100555c:	1886703a 	and	r3,r3,r2
 1005560:	e0bffe17 	ldw	r2,-8(fp)
 1005564:	10c00515 	stw	r3,20(r2)
 1005568:	00800044 	movi	r2,1
 100556c:	e0bf9815 	stw	r2,-416(fp)
 1005570:	e0bf9817 	ldw	r2,-416(fp)
 1005574:	10800808 	cmpgei	r2,r2,32
 1005578:	1000051e 	bne	r2,zero,1005590 <sdhc_decode_csd+0xbf0>
 100557c:	00c00044 	movi	r3,1
 1005580:	e0bf9817 	ldw	r2,-416(fp)
 1005584:	1884983a 	sll	r2,r3,r2
 1005588:	10bfffc4 	addi	r2,r2,-1
 100558c:	00000106 	br	1005594 <sdhc_decode_csd+0xbf4>
 1005590:	00bfffc4 	movi	r2,-1
 1005594:	e0bf9915 	stw	r2,-412(fp)
 1005598:	00800044 	movi	r2,1
 100559c:	e0bf9a15 	stw	r2,-408(fp)
 10055a0:	008003c4 	movi	r2,15
 10055a4:	e0bf9b15 	stw	r2,-404(fp)
 10055a8:	e0bf9a17 	ldw	r2,-408(fp)
 10055ac:	1085883a 	add	r2,r2,r2
 10055b0:	1085883a 	add	r2,r2,r2
 10055b4:	1007883a 	mov	r3,r2
 10055b8:	e0bfff17 	ldw	r2,-4(fp)
 10055bc:	10c5883a 	add	r2,r2,r3
 10055c0:	10c00017 	ldw	r3,0(r2)
 10055c4:	e0bf9b17 	ldw	r2,-404(fp)
 10055c8:	1884d83a 	srl	r2,r3,r2
 10055cc:	e0bf4a15 	stw	r2,-728(fp)
 10055d0:	e0ff9817 	ldw	r3,-416(fp)
 10055d4:	e0bf9b17 	ldw	r2,-404(fp)
 10055d8:	1885883a 	add	r2,r3,r2
 10055dc:	10800850 	cmplti	r2,r2,33
 10055e0:	1000161e 	bne	r2,zero,100563c <sdhc_decode_csd+0xc9c>
 10055e4:	e0bf9a17 	ldw	r2,-408(fp)
 10055e8:	1085883a 	add	r2,r2,r2
 10055ec:	1085883a 	add	r2,r2,r2
 10055f0:	10bfff04 	addi	r2,r2,-4
 10055f4:	e0ffff17 	ldw	r3,-4(fp)
 10055f8:	1885883a 	add	r2,r3,r2
 10055fc:	10c00017 	ldw	r3,0(r2)
 1005600:	01000804 	movi	r4,32
 1005604:	e0bf9b17 	ldw	r2,-404(fp)
 1005608:	2089c83a 	sub	r4,r4,r2
 100560c:	00a00034 	movhi	r2,32768
 1005610:	108007c4 	addi	r2,r2,31
 1005614:	2084703a 	and	r2,r4,r2
 1005618:	1000040e 	bge	r2,zero,100562c <sdhc_decode_csd+0xc8c>
 100561c:	10bfffc4 	addi	r2,r2,-1
 1005620:	013ff804 	movi	r4,-32
 1005624:	1104b03a 	or	r2,r2,r4
 1005628:	10800044 	addi	r2,r2,1
 100562c:	1884983a 	sll	r2,r3,r2
 1005630:	e0ff4a17 	ldw	r3,-728(fp)
 1005634:	1884b03a 	or	r2,r3,r2
 1005638:	e0bf4a15 	stw	r2,-728(fp)
 100563c:	e0ff4a17 	ldw	r3,-728(fp)
 1005640:	e0bf9917 	ldw	r2,-412(fp)
 1005644:	1884703a 	and	r2,r3,r2
 1005648:	1080004c 	andi	r2,r2,1
 100564c:	1007883a 	mov	r3,r2
 1005650:	e0bffe17 	ldw	r2,-8(fp)
 1005654:	1940004c 	andi	r5,r3,1
 1005658:	11000803 	ldbu	r4,32(r2)
 100565c:	00ffff84 	movi	r3,-2
 1005660:	20c6703a 	and	r3,r4,r3
 1005664:	1809883a 	mov	r4,r3
 1005668:	2807883a 	mov	r3,r5
 100566c:	20c6b03a 	or	r3,r4,r3
 1005670:	10c00805 	stb	r3,32(r2)
 1005674:	00800044 	movi	r2,1
 1005678:	e0bf9c15 	stw	r2,-400(fp)
 100567c:	e0bf9c17 	ldw	r2,-400(fp)
 1005680:	10800808 	cmpgei	r2,r2,32
 1005684:	1000051e 	bne	r2,zero,100569c <sdhc_decode_csd+0xcfc>
 1005688:	00c00044 	movi	r3,1
 100568c:	e0bf9c17 	ldw	r2,-400(fp)
 1005690:	1884983a 	sll	r2,r3,r2
 1005694:	10bfffc4 	addi	r2,r2,-1
 1005698:	00000106 	br	10056a0 <sdhc_decode_csd+0xd00>
 100569c:	00bfffc4 	movi	r2,-1
 10056a0:	e0bf9d15 	stw	r2,-396(fp)
 10056a4:	00800044 	movi	r2,1
 10056a8:	e0bf9e15 	stw	r2,-392(fp)
 10056ac:	00800384 	movi	r2,14
 10056b0:	e0bf9f15 	stw	r2,-388(fp)
 10056b4:	e0bf9e17 	ldw	r2,-392(fp)
 10056b8:	1085883a 	add	r2,r2,r2
 10056bc:	1085883a 	add	r2,r2,r2
 10056c0:	1007883a 	mov	r3,r2
 10056c4:	e0bfff17 	ldw	r2,-4(fp)
 10056c8:	10c5883a 	add	r2,r2,r3
 10056cc:	10c00017 	ldw	r3,0(r2)
 10056d0:	e0bf9f17 	ldw	r2,-388(fp)
 10056d4:	1884d83a 	srl	r2,r3,r2
 10056d8:	e0bf4b15 	stw	r2,-724(fp)
 10056dc:	e0ff9c17 	ldw	r3,-400(fp)
 10056e0:	e0bf9f17 	ldw	r2,-388(fp)
 10056e4:	1885883a 	add	r2,r3,r2
 10056e8:	10800850 	cmplti	r2,r2,33
 10056ec:	1000161e 	bne	r2,zero,1005748 <sdhc_decode_csd+0xda8>
 10056f0:	e0bf9e17 	ldw	r2,-392(fp)
 10056f4:	1085883a 	add	r2,r2,r2
 10056f8:	1085883a 	add	r2,r2,r2
 10056fc:	10bfff04 	addi	r2,r2,-4
 1005700:	e0ffff17 	ldw	r3,-4(fp)
 1005704:	1885883a 	add	r2,r3,r2
 1005708:	10c00017 	ldw	r3,0(r2)
 100570c:	01000804 	movi	r4,32
 1005710:	e0bf9f17 	ldw	r2,-388(fp)
 1005714:	2089c83a 	sub	r4,r4,r2
 1005718:	00a00034 	movhi	r2,32768
 100571c:	108007c4 	addi	r2,r2,31
 1005720:	2084703a 	and	r2,r4,r2
 1005724:	1000040e 	bge	r2,zero,1005738 <sdhc_decode_csd+0xd98>
 1005728:	10bfffc4 	addi	r2,r2,-1
 100572c:	013ff804 	movi	r4,-32
 1005730:	1104b03a 	or	r2,r2,r4
 1005734:	10800044 	addi	r2,r2,1
 1005738:	1884983a 	sll	r2,r3,r2
 100573c:	e0ff4b17 	ldw	r3,-724(fp)
 1005740:	1884b03a 	or	r2,r3,r2
 1005744:	e0bf4b15 	stw	r2,-724(fp)
 1005748:	e0ff4b17 	ldw	r3,-724(fp)
 100574c:	e0bf9d17 	ldw	r2,-396(fp)
 1005750:	1884703a 	and	r2,r3,r2
 1005754:	1080004c 	andi	r2,r2,1
 1005758:	1007883a 	mov	r3,r2
 100575c:	e0bffe17 	ldw	r2,-8(fp)
 1005760:	18c0004c 	andi	r3,r3,1
 1005764:	180a90fa 	slli	r5,r3,3
 1005768:	11000803 	ldbu	r4,32(r2)
 100576c:	00fffdc4 	movi	r3,-9
 1005770:	20c6703a 	and	r3,r4,r3
 1005774:	1809883a 	mov	r4,r3
 1005778:	2807883a 	mov	r3,r5
 100577c:	20c6b03a 	or	r3,r4,r3
 1005780:	10c00805 	stb	r3,32(r2)
 1005784:	00800044 	movi	r2,1
 1005788:	e0bfa015 	stw	r2,-384(fp)
 100578c:	e0bfa017 	ldw	r2,-384(fp)
 1005790:	10800808 	cmpgei	r2,r2,32
 1005794:	1000051e 	bne	r2,zero,10057ac <sdhc_decode_csd+0xe0c>
 1005798:	00c00044 	movi	r3,1
 100579c:	e0bfa017 	ldw	r2,-384(fp)
 10057a0:	1884983a 	sll	r2,r3,r2
 10057a4:	10bfffc4 	addi	r2,r2,-1
 10057a8:	00000106 	br	10057b0 <sdhc_decode_csd+0xe10>
 10057ac:	00bfffc4 	movi	r2,-1
 10057b0:	e0bfa115 	stw	r2,-380(fp)
 10057b4:	00800044 	movi	r2,1
 10057b8:	e0bfa215 	stw	r2,-376(fp)
 10057bc:	00800344 	movi	r2,13
 10057c0:	e0bfa315 	stw	r2,-372(fp)
 10057c4:	e0bfa217 	ldw	r2,-376(fp)
 10057c8:	1085883a 	add	r2,r2,r2
 10057cc:	1085883a 	add	r2,r2,r2
 10057d0:	1007883a 	mov	r3,r2
 10057d4:	e0bfff17 	ldw	r2,-4(fp)
 10057d8:	10c5883a 	add	r2,r2,r3
 10057dc:	10c00017 	ldw	r3,0(r2)
 10057e0:	e0bfa317 	ldw	r2,-372(fp)
 10057e4:	1884d83a 	srl	r2,r3,r2
 10057e8:	e0bf4c15 	stw	r2,-720(fp)
 10057ec:	e0ffa017 	ldw	r3,-384(fp)
 10057f0:	e0bfa317 	ldw	r2,-372(fp)
 10057f4:	1885883a 	add	r2,r3,r2
 10057f8:	10800850 	cmplti	r2,r2,33
 10057fc:	1000161e 	bne	r2,zero,1005858 <sdhc_decode_csd+0xeb8>
 1005800:	e0bfa217 	ldw	r2,-376(fp)
 1005804:	1085883a 	add	r2,r2,r2
 1005808:	1085883a 	add	r2,r2,r2
 100580c:	10bfff04 	addi	r2,r2,-4
 1005810:	e0ffff17 	ldw	r3,-4(fp)
 1005814:	1885883a 	add	r2,r3,r2
 1005818:	10c00017 	ldw	r3,0(r2)
 100581c:	01000804 	movi	r4,32
 1005820:	e0bfa317 	ldw	r2,-372(fp)
 1005824:	2089c83a 	sub	r4,r4,r2
 1005828:	00a00034 	movhi	r2,32768
 100582c:	108007c4 	addi	r2,r2,31
 1005830:	2084703a 	and	r2,r4,r2
 1005834:	1000040e 	bge	r2,zero,1005848 <sdhc_decode_csd+0xea8>
 1005838:	10bfffc4 	addi	r2,r2,-1
 100583c:	013ff804 	movi	r4,-32
 1005840:	1104b03a 	or	r2,r2,r4
 1005844:	10800044 	addi	r2,r2,1
 1005848:	1884983a 	sll	r2,r3,r2
 100584c:	e0ff4c17 	ldw	r3,-720(fp)
 1005850:	1884b03a 	or	r2,r3,r2
 1005854:	e0bf4c15 	stw	r2,-720(fp)
 1005858:	e0ff4c17 	ldw	r3,-720(fp)
 100585c:	e0bfa117 	ldw	r2,-380(fp)
 1005860:	1884703a 	and	r2,r3,r2
 1005864:	1080004c 	andi	r2,r2,1
 1005868:	1007883a 	mov	r3,r2
 100586c:	e0bffe17 	ldw	r2,-8(fp)
 1005870:	18c0004c 	andi	r3,r3,1
 1005874:	18cb883a 	add	r5,r3,r3
 1005878:	11000803 	ldbu	r4,32(r2)
 100587c:	00ffff44 	movi	r3,-3
 1005880:	20c6703a 	and	r3,r4,r3
 1005884:	1809883a 	mov	r4,r3
 1005888:	2807883a 	mov	r3,r5
 100588c:	20c6b03a 	or	r3,r4,r3
 1005890:	10c00805 	stb	r3,32(r2)
 1005894:	008000c4 	movi	r2,3
 1005898:	e0bfa415 	stw	r2,-368(fp)
 100589c:	e0bfa417 	ldw	r2,-368(fp)
 10058a0:	10800808 	cmpgei	r2,r2,32
 10058a4:	1000051e 	bne	r2,zero,10058bc <sdhc_decode_csd+0xf1c>
 10058a8:	00c00044 	movi	r3,1
 10058ac:	e0bfa417 	ldw	r2,-368(fp)
 10058b0:	1884983a 	sll	r2,r3,r2
 10058b4:	10bfffc4 	addi	r2,r2,-1
 10058b8:	00000106 	br	10058c0 <sdhc_decode_csd+0xf20>
 10058bc:	00bfffc4 	movi	r2,-1
 10058c0:	e0bfa515 	stw	r2,-364(fp)
 10058c4:	008000c4 	movi	r2,3
 10058c8:	e0bfa615 	stw	r2,-360(fp)
 10058cc:	00800684 	movi	r2,26
 10058d0:	e0bfa715 	stw	r2,-356(fp)
 10058d4:	e0bfa617 	ldw	r2,-360(fp)
 10058d8:	1085883a 	add	r2,r2,r2
 10058dc:	1085883a 	add	r2,r2,r2
 10058e0:	1007883a 	mov	r3,r2
 10058e4:	e0bfff17 	ldw	r2,-4(fp)
 10058e8:	10c5883a 	add	r2,r2,r3
 10058ec:	10c00017 	ldw	r3,0(r2)
 10058f0:	e0bfa717 	ldw	r2,-356(fp)
 10058f4:	1884d83a 	srl	r2,r3,r2
 10058f8:	e0bf4d15 	stw	r2,-716(fp)
 10058fc:	e0ffa417 	ldw	r3,-368(fp)
 1005900:	e0bfa717 	ldw	r2,-356(fp)
 1005904:	1885883a 	add	r2,r3,r2
 1005908:	10800850 	cmplti	r2,r2,33
 100590c:	1000161e 	bne	r2,zero,1005968 <sdhc_decode_csd+0xfc8>
 1005910:	e0bfa617 	ldw	r2,-360(fp)
 1005914:	1085883a 	add	r2,r2,r2
 1005918:	1085883a 	add	r2,r2,r2
 100591c:	10bfff04 	addi	r2,r2,-4
 1005920:	e0ffff17 	ldw	r3,-4(fp)
 1005924:	1885883a 	add	r2,r3,r2
 1005928:	10c00017 	ldw	r3,0(r2)
 100592c:	01000804 	movi	r4,32
 1005930:	e0bfa717 	ldw	r2,-356(fp)
 1005934:	2089c83a 	sub	r4,r4,r2
 1005938:	00a00034 	movhi	r2,32768
 100593c:	108007c4 	addi	r2,r2,31
 1005940:	2084703a 	and	r2,r4,r2
 1005944:	1000040e 	bge	r2,zero,1005958 <sdhc_decode_csd+0xfb8>
 1005948:	10bfffc4 	addi	r2,r2,-1
 100594c:	013ff804 	movi	r4,-32
 1005950:	1104b03a 	or	r2,r2,r4
 1005954:	10800044 	addi	r2,r2,1
 1005958:	1884983a 	sll	r2,r3,r2
 100595c:	e0ff4d17 	ldw	r3,-716(fp)
 1005960:	1884b03a 	or	r2,r3,r2
 1005964:	e0bf4d15 	stw	r2,-716(fp)
 1005968:	e0ff4d17 	ldw	r3,-716(fp)
 100596c:	e0bfa517 	ldw	r2,-364(fp)
 1005970:	1886703a 	and	r3,r3,r2
 1005974:	e0bffe17 	ldw	r2,-8(fp)
 1005978:	10c00315 	stw	r3,12(r2)
 100597c:	00800104 	movi	r2,4
 1005980:	e0bfa815 	stw	r2,-352(fp)
 1005984:	e0bfa817 	ldw	r2,-352(fp)
 1005988:	10800808 	cmpgei	r2,r2,32
 100598c:	1000051e 	bne	r2,zero,10059a4 <sdhc_decode_csd+0x1004>
 1005990:	00c00044 	movi	r3,1
 1005994:	e0bfa817 	ldw	r2,-352(fp)
 1005998:	1884983a 	sll	r2,r3,r2
 100599c:	10bfffc4 	addi	r2,r2,-1
 10059a0:	00000106 	br	10059a8 <sdhc_decode_csd+0x1008>
 10059a4:	00bfffc4 	movi	r2,-1
 10059a8:	e0bfa915 	stw	r2,-348(fp)
 10059ac:	008000c4 	movi	r2,3
 10059b0:	e0bfaa15 	stw	r2,-344(fp)
 10059b4:	00800584 	movi	r2,22
 10059b8:	e0bfab15 	stw	r2,-340(fp)
 10059bc:	e0bfaa17 	ldw	r2,-344(fp)
 10059c0:	1085883a 	add	r2,r2,r2
 10059c4:	1085883a 	add	r2,r2,r2
 10059c8:	1007883a 	mov	r3,r2
 10059cc:	e0bfff17 	ldw	r2,-4(fp)
 10059d0:	10c5883a 	add	r2,r2,r3
 10059d4:	10c00017 	ldw	r3,0(r2)
 10059d8:	e0bfab17 	ldw	r2,-340(fp)
 10059dc:	1884d83a 	srl	r2,r3,r2
 10059e0:	e0bf4e15 	stw	r2,-712(fp)
 10059e4:	e0ffa817 	ldw	r3,-352(fp)
 10059e8:	e0bfab17 	ldw	r2,-340(fp)
 10059ec:	1885883a 	add	r2,r3,r2
 10059f0:	10800850 	cmplti	r2,r2,33
 10059f4:	1000161e 	bne	r2,zero,1005a50 <sdhc_decode_csd+0x10b0>
 10059f8:	e0bfaa17 	ldw	r2,-344(fp)
 10059fc:	1085883a 	add	r2,r2,r2
 1005a00:	1085883a 	add	r2,r2,r2
 1005a04:	10bfff04 	addi	r2,r2,-4
 1005a08:	e0ffff17 	ldw	r3,-4(fp)
 1005a0c:	1885883a 	add	r2,r3,r2
 1005a10:	10c00017 	ldw	r3,0(r2)
 1005a14:	01000804 	movi	r4,32
 1005a18:	e0bfab17 	ldw	r2,-340(fp)
 1005a1c:	2089c83a 	sub	r4,r4,r2
 1005a20:	00a00034 	movhi	r2,32768
 1005a24:	108007c4 	addi	r2,r2,31
 1005a28:	2084703a 	and	r2,r4,r2
 1005a2c:	1000040e 	bge	r2,zero,1005a40 <sdhc_decode_csd+0x10a0>
 1005a30:	10bfffc4 	addi	r2,r2,-1
 1005a34:	013ff804 	movi	r4,-32
 1005a38:	1104b03a 	or	r2,r2,r4
 1005a3c:	10800044 	addi	r2,r2,1
 1005a40:	1884983a 	sll	r2,r3,r2
 1005a44:	e0ff4e17 	ldw	r3,-712(fp)
 1005a48:	1884b03a 	or	r2,r3,r2
 1005a4c:	e0bf4e15 	stw	r2,-712(fp)
 1005a50:	e0ff4e17 	ldw	r3,-712(fp)
 1005a54:	e0bfa917 	ldw	r2,-348(fp)
 1005a58:	1886703a 	and	r3,r3,r2
 1005a5c:	e0bffe17 	ldw	r2,-8(fp)
 1005a60:	10c00615 	stw	r3,24(r2)
 1005a64:	00800044 	movi	r2,1
 1005a68:	e0bfac15 	stw	r2,-336(fp)
 1005a6c:	e0bfac17 	ldw	r2,-336(fp)
 1005a70:	10800808 	cmpgei	r2,r2,32
 1005a74:	1000051e 	bne	r2,zero,1005a8c <sdhc_decode_csd+0x10ec>
 1005a78:	00c00044 	movi	r3,1
 1005a7c:	e0bfac17 	ldw	r2,-336(fp)
 1005a80:	1884983a 	sll	r2,r3,r2
 1005a84:	10bfffc4 	addi	r2,r2,-1
 1005a88:	00000106 	br	1005a90 <sdhc_decode_csd+0x10f0>
 1005a8c:	00bfffc4 	movi	r2,-1
 1005a90:	e0bfad15 	stw	r2,-332(fp)
 1005a94:	008000c4 	movi	r2,3
 1005a98:	e0bfae15 	stw	r2,-328(fp)
 1005a9c:	00800544 	movi	r2,21
 1005aa0:	e0bfaf15 	stw	r2,-324(fp)
 1005aa4:	e0bfae17 	ldw	r2,-328(fp)
 1005aa8:	1085883a 	add	r2,r2,r2
 1005aac:	1085883a 	add	r2,r2,r2
 1005ab0:	1007883a 	mov	r3,r2
 1005ab4:	e0bfff17 	ldw	r2,-4(fp)
 1005ab8:	10c5883a 	add	r2,r2,r3
 1005abc:	10c00017 	ldw	r3,0(r2)
 1005ac0:	e0bfaf17 	ldw	r2,-324(fp)
 1005ac4:	1884d83a 	srl	r2,r3,r2
 1005ac8:	e0bf4f15 	stw	r2,-708(fp)
 1005acc:	e0ffac17 	ldw	r3,-336(fp)
 1005ad0:	e0bfaf17 	ldw	r2,-324(fp)
 1005ad4:	1885883a 	add	r2,r3,r2
 1005ad8:	10800850 	cmplti	r2,r2,33
 1005adc:	1000161e 	bne	r2,zero,1005b38 <sdhc_decode_csd+0x1198>
 1005ae0:	e0bfae17 	ldw	r2,-328(fp)
 1005ae4:	1085883a 	add	r2,r2,r2
 1005ae8:	1085883a 	add	r2,r2,r2
 1005aec:	10bfff04 	addi	r2,r2,-4
 1005af0:	e0ffff17 	ldw	r3,-4(fp)
 1005af4:	1885883a 	add	r2,r3,r2
 1005af8:	10c00017 	ldw	r3,0(r2)
 1005afc:	01000804 	movi	r4,32
 1005b00:	e0bfaf17 	ldw	r2,-324(fp)
 1005b04:	2089c83a 	sub	r4,r4,r2
 1005b08:	00a00034 	movhi	r2,32768
 1005b0c:	108007c4 	addi	r2,r2,31
 1005b10:	2084703a 	and	r2,r4,r2
 1005b14:	1000040e 	bge	r2,zero,1005b28 <sdhc_decode_csd+0x1188>
 1005b18:	10bfffc4 	addi	r2,r2,-1
 1005b1c:	013ff804 	movi	r4,-32
 1005b20:	1104b03a 	or	r2,r2,r4
 1005b24:	10800044 	addi	r2,r2,1
 1005b28:	1884983a 	sll	r2,r3,r2
 1005b2c:	e0ff4f17 	ldw	r3,-708(fp)
 1005b30:	1884b03a 	or	r2,r3,r2
 1005b34:	e0bf4f15 	stw	r2,-708(fp)
 1005b38:	e0ff4f17 	ldw	r3,-708(fp)
 1005b3c:	e0bfad17 	ldw	r2,-332(fp)
 1005b40:	1884703a 	and	r2,r3,r2
 1005b44:	1080004c 	andi	r2,r2,1
 1005b48:	1007883a 	mov	r3,r2
 1005b4c:	e0bffe17 	ldw	r2,-8(fp)
 1005b50:	18c0004c 	andi	r3,r3,1
 1005b54:	18c7883a 	add	r3,r3,r3
 1005b58:	18cb883a 	add	r5,r3,r3
 1005b5c:	11000803 	ldbu	r4,32(r2)
 1005b60:	00fffec4 	movi	r3,-5
 1005b64:	20c6703a 	and	r3,r4,r3
 1005b68:	1809883a 	mov	r4,r3
 1005b6c:	2807883a 	mov	r3,r5
 1005b70:	20c6b03a 	or	r3,r4,r3
 1005b74:	10c00805 	stb	r3,32(r2)
 1005b78:	e0bf9217 	ldw	r2,-440(fp)
 1005b7c:	1083ffe0 	cmpeqi	r2,r2,4095
 1005b80:	1000081e 	bne	r2,zero,1005ba4 <sdhc_decode_csd+0x1204>
 1005b84:	d0a00117 	ldw	r2,-32764(gp)
 1005b88:	1000061e 	bne	r2,zero,1005ba4 <sdhc_decode_csd+0x1204>
 1005b8c:	e0bffe17 	ldw	r2,-8(fp)
 1005b90:	10800717 	ldw	r2,28(r2)
 1005b94:	01004074 	movhi	r4,257
 1005b98:	21096204 	addi	r4,r4,9608
 1005b9c:	100b883a 	mov	r5,r2
 1005ba0:	1010a380 	call	1010a38 <printf>
 1005ba4:	e0bffe17 	ldw	r2,-8(fp)
 1005ba8:	10800717 	ldw	r2,28(r2)
 1005bac:	e0fffe17 	ldw	r3,-8(fp)
 1005bb0:	18c00517 	ldw	r3,20(r3)
 1005bb4:	10c6983a 	sll	r3,r2,r3
 1005bb8:	e0bffe17 	ldw	r2,-8(fp)
 1005bbc:	10c00715 	stw	r3,28(r2)
 1005bc0:	e0bffe17 	ldw	r2,-8(fp)
 1005bc4:	10800717 	ldw	r2,28(r2)
 1005bc8:	1009883a 	mov	r4,r2
 1005bcc:	10107300 	call	1010730 <__floatunsisf>
 1005bd0:	1007883a 	mov	r3,r2
 1005bd4:	e0ffb015 	stw	r3,-320(fp)
 1005bd8:	e13fb017 	ldw	r4,-320(fp)
 1005bdc:	0153a034 	movhi	r5,20096
 1005be0:	100fcb40 	call	100fcb4 <__divsf3>
 1005be4:	1007883a 	mov	r3,r2
 1005be8:	e0ffb015 	stw	r3,-320(fp)
 1005bec:	d0a00117 	ldw	r2,-32764(gp)
 1005bf0:	1000071e 	bne	r2,zero,1005c10 <sdhc_decode_csd+0x1270>
 1005bf4:	e0bffe17 	ldw	r2,-8(fp)
 1005bf8:	10800003 	ldbu	r2,0(r2)
 1005bfc:	10803fcc 	andi	r2,r2,255
 1005c00:	01004074 	movhi	r4,257
 1005c04:	21096b04 	addi	r4,r4,9644
 1005c08:	100b883a 	mov	r5,r2
 1005c0c:	1010a380 	call	1010a38 <printf>
 1005c10:	d0a00117 	ldw	r2,-32764(gp)
 1005c14:	1000061e 	bne	r2,zero,1005c30 <sdhc_decode_csd+0x1290>
 1005c18:	e0bffe17 	ldw	r2,-8(fp)
 1005c1c:	10800417 	ldw	r2,16(r2)
 1005c20:	01004074 	movhi	r4,257
 1005c24:	21097404 	addi	r4,r4,9680
 1005c28:	100b883a 	mov	r5,r2
 1005c2c:	1010a380 	call	1010a38 <printf>
 1005c30:	d0a00117 	ldw	r2,-32764(gp)
 1005c34:	1000091e 	bne	r2,zero,1005c5c <sdhc_decode_csd+0x12bc>
 1005c38:	e0bffe17 	ldw	r2,-8(fp)
 1005c3c:	10800517 	ldw	r2,20(r2)
 1005c40:	1007883a 	mov	r3,r2
 1005c44:	00800044 	movi	r2,1
 1005c48:	10c4983a 	sll	r2,r2,r3
 1005c4c:	01004074 	movhi	r4,257
 1005c50:	21097d04 	addi	r4,r4,9716
 1005c54:	100b883a 	mov	r5,r2
 1005c58:	1010a380 	call	1010a38 <printf>
 1005c5c:	d0a00117 	ldw	r2,-32764(gp)
 1005c60:	1000091e 	bne	r2,zero,1005c88 <sdhc_decode_csd+0x12e8>
 1005c64:	e0bffe17 	ldw	r2,-8(fp)
 1005c68:	10800617 	ldw	r2,24(r2)
 1005c6c:	1007883a 	mov	r3,r2
 1005c70:	00800044 	movi	r2,1
 1005c74:	10c4983a 	sll	r2,r2,r3
 1005c78:	01004074 	movhi	r4,257
 1005c7c:	21098604 	addi	r4,r4,9752
 1005c80:	100b883a 	mov	r5,r2
 1005c84:	1010a380 	call	1010a38 <printf>
 1005c88:	e0bf9217 	ldw	r2,-440(fp)
 1005c8c:	1083ffe0 	cmpeqi	r2,r2,4095
 1005c90:	10000f1e 	bne	r2,zero,1005cd0 <sdhc_decode_csd+0x1330>
 1005c94:	d0a00117 	ldw	r2,-32764(gp)
 1005c98:	1000091e 	bne	r2,zero,1005cc0 <sdhc_decode_csd+0x1320>
 1005c9c:	e13fb017 	ldw	r4,-320(fp)
 1005ca0:	10108400 	call	1010840 <__extendsfdf2>
 1005ca4:	100d883a 	mov	r6,r2
 1005ca8:	180f883a 	mov	r7,r3
 1005cac:	01004074 	movhi	r4,257
 1005cb0:	21098f04 	addi	r4,r4,9788
 1005cb4:	300b883a 	mov	r5,r6
 1005cb8:	380d883a 	mov	r6,r7
 1005cbc:	1010a380 	call	1010a38 <printf>
 1005cc0:	e0bffe17 	ldw	r2,-8(fp)
 1005cc4:	e0ff9317 	ldw	r3,-436(fp)
 1005cc8:	10c00715 	stw	r3,28(r2)
 1005ccc:	00000306 	br	1005cdc <sdhc_decode_csd+0x133c>
 1005cd0:	e0bffe17 	ldw	r2,-8(fp)
 1005cd4:	00c3ffc4 	movi	r3,4095
 1005cd8:	10c00715 	stw	r3,28(r2)
 1005cdc:	0005883a 	mov	r2,zero
 1005ce0:	00051c06 	br	1007154 <sdhc_decode_csd+0x27b4>
 1005ce4:	e0bf6717 	ldw	r2,-612(fp)
 1005ce8:	10000326 	beq	r2,zero,1005cf8 <sdhc_decode_csd+0x1358>
 1005cec:	10800060 	cmpeqi	r2,r2,1
 1005cf0:	1003b41e 	bne	r2,zero,1006bc4 <sdhc_decode_csd+0x2224>
 1005cf4:	0004cd06 	br	100702c <sdhc_decode_csd+0x268c>
 1005cf8:	00800104 	movi	r2,4
 1005cfc:	e0bfb115 	stw	r2,-316(fp)
 1005d00:	e0bfb117 	ldw	r2,-316(fp)
 1005d04:	10800808 	cmpgei	r2,r2,32
 1005d08:	1000051e 	bne	r2,zero,1005d20 <sdhc_decode_csd+0x1380>
 1005d0c:	00c00044 	movi	r3,1
 1005d10:	e0bfb117 	ldw	r2,-316(fp)
 1005d14:	1884983a 	sll	r2,r3,r2
 1005d18:	10bfffc4 	addi	r2,r2,-1
 1005d1c:	00000106 	br	1005d24 <sdhc_decode_csd+0x1384>
 1005d20:	00bfffc4 	movi	r2,-1
 1005d24:	e0bfb215 	stw	r2,-312(fp)
 1005d28:	e03fb315 	stw	zero,-308(fp)
 1005d2c:	008004c4 	movi	r2,19
 1005d30:	e0bfb415 	stw	r2,-304(fp)
 1005d34:	e0bfb317 	ldw	r2,-308(fp)
 1005d38:	1085883a 	add	r2,r2,r2
 1005d3c:	1085883a 	add	r2,r2,r2
 1005d40:	1007883a 	mov	r3,r2
 1005d44:	e0bfff17 	ldw	r2,-4(fp)
 1005d48:	10c5883a 	add	r2,r2,r3
 1005d4c:	10c00017 	ldw	r3,0(r2)
 1005d50:	e0bfb417 	ldw	r2,-304(fp)
 1005d54:	1884d83a 	srl	r2,r3,r2
 1005d58:	e0bf5015 	stw	r2,-704(fp)
 1005d5c:	e0ffb117 	ldw	r3,-316(fp)
 1005d60:	e0bfb417 	ldw	r2,-304(fp)
 1005d64:	1885883a 	add	r2,r3,r2
 1005d68:	10800850 	cmplti	r2,r2,33
 1005d6c:	1000161e 	bne	r2,zero,1005dc8 <sdhc_decode_csd+0x1428>
 1005d70:	e0bfb317 	ldw	r2,-308(fp)
 1005d74:	1085883a 	add	r2,r2,r2
 1005d78:	1085883a 	add	r2,r2,r2
 1005d7c:	10bfff04 	addi	r2,r2,-4
 1005d80:	e0ffff17 	ldw	r3,-4(fp)
 1005d84:	1885883a 	add	r2,r3,r2
 1005d88:	10c00017 	ldw	r3,0(r2)
 1005d8c:	01000804 	movi	r4,32
 1005d90:	e0bfb417 	ldw	r2,-304(fp)
 1005d94:	2089c83a 	sub	r4,r4,r2
 1005d98:	00a00034 	movhi	r2,32768
 1005d9c:	108007c4 	addi	r2,r2,31
 1005da0:	2084703a 	and	r2,r4,r2
 1005da4:	1000040e 	bge	r2,zero,1005db8 <sdhc_decode_csd+0x1418>
 1005da8:	10bfffc4 	addi	r2,r2,-1
 1005dac:	013ff804 	movi	r4,-32
 1005db0:	1104b03a 	or	r2,r2,r4
 1005db4:	10800044 	addi	r2,r2,1
 1005db8:	1884983a 	sll	r2,r3,r2
 1005dbc:	e0ff5017 	ldw	r3,-704(fp)
 1005dc0:	1884b03a 	or	r2,r3,r2
 1005dc4:	e0bf5015 	stw	r2,-704(fp)
 1005dc8:	e0ff5017 	ldw	r3,-704(fp)
 1005dcc:	e0bfb217 	ldw	r2,-312(fp)
 1005dd0:	1884703a 	and	r2,r3,r2
 1005dd4:	e0bf7415 	stw	r2,-560(fp)
 1005dd8:	008000c4 	movi	r2,3
 1005ddc:	e0bfb515 	stw	r2,-300(fp)
 1005de0:	e0bfb517 	ldw	r2,-300(fp)
 1005de4:	10800808 	cmpgei	r2,r2,32
 1005de8:	1000051e 	bne	r2,zero,1005e00 <sdhc_decode_csd+0x1460>
 1005dec:	00c00044 	movi	r3,1
 1005df0:	e0bfb517 	ldw	r2,-300(fp)
 1005df4:	1884983a 	sll	r2,r3,r2
 1005df8:	10bfffc4 	addi	r2,r2,-1
 1005dfc:	00000106 	br	1005e04 <sdhc_decode_csd+0x1464>
 1005e00:	00bfffc4 	movi	r2,-1
 1005e04:	e0bfb615 	stw	r2,-296(fp)
 1005e08:	e03fb715 	stw	zero,-292(fp)
 1005e0c:	00800404 	movi	r2,16
 1005e10:	e0bfb815 	stw	r2,-288(fp)
 1005e14:	e0bfb717 	ldw	r2,-292(fp)
 1005e18:	1085883a 	add	r2,r2,r2
 1005e1c:	1085883a 	add	r2,r2,r2
 1005e20:	1007883a 	mov	r3,r2
 1005e24:	e0bfff17 	ldw	r2,-4(fp)
 1005e28:	10c5883a 	add	r2,r2,r3
 1005e2c:	10c00017 	ldw	r3,0(r2)
 1005e30:	e0bfb817 	ldw	r2,-288(fp)
 1005e34:	1884d83a 	srl	r2,r3,r2
 1005e38:	e0bf5115 	stw	r2,-700(fp)
 1005e3c:	e0ffb517 	ldw	r3,-300(fp)
 1005e40:	e0bfb817 	ldw	r2,-288(fp)
 1005e44:	1885883a 	add	r2,r3,r2
 1005e48:	10800850 	cmplti	r2,r2,33
 1005e4c:	1000161e 	bne	r2,zero,1005ea8 <sdhc_decode_csd+0x1508>
 1005e50:	e0bfb717 	ldw	r2,-292(fp)
 1005e54:	1085883a 	add	r2,r2,r2
 1005e58:	1085883a 	add	r2,r2,r2
 1005e5c:	10bfff04 	addi	r2,r2,-4
 1005e60:	e0ffff17 	ldw	r3,-4(fp)
 1005e64:	1885883a 	add	r2,r3,r2
 1005e68:	10c00017 	ldw	r3,0(r2)
 1005e6c:	01000804 	movi	r4,32
 1005e70:	e0bfb817 	ldw	r2,-288(fp)
 1005e74:	2089c83a 	sub	r4,r4,r2
 1005e78:	00a00034 	movhi	r2,32768
 1005e7c:	108007c4 	addi	r2,r2,31
 1005e80:	2084703a 	and	r2,r4,r2
 1005e84:	1000040e 	bge	r2,zero,1005e98 <sdhc_decode_csd+0x14f8>
 1005e88:	10bfffc4 	addi	r2,r2,-1
 1005e8c:	013ff804 	movi	r4,-32
 1005e90:	1104b03a 	or	r2,r2,r4
 1005e94:	10800044 	addi	r2,r2,1
 1005e98:	1884983a 	sll	r2,r3,r2
 1005e9c:	e0ff5117 	ldw	r3,-700(fp)
 1005ea0:	1884b03a 	or	r2,r3,r2
 1005ea4:	e0bf5115 	stw	r2,-700(fp)
 1005ea8:	e0ff5117 	ldw	r3,-700(fp)
 1005eac:	e0bfb617 	ldw	r2,-296(fp)
 1005eb0:	1884703a 	and	r2,r3,r2
 1005eb4:	e0bf7915 	stw	r2,-540(fp)
 1005eb8:	00804074 	movhi	r2,257
 1005ebc:	10890504 	addi	r2,r2,9236
 1005ec0:	e0ff7917 	ldw	r3,-540(fp)
 1005ec4:	18c7883a 	add	r3,r3,r3
 1005ec8:	18c7883a 	add	r3,r3,r3
 1005ecc:	10c5883a 	add	r2,r2,r3
 1005ed0:	11000017 	ldw	r4,0(r2)
 1005ed4:	00804074 	movhi	r2,257
 1005ed8:	10890d04 	addi	r2,r2,9268
 1005edc:	e0ff7417 	ldw	r3,-560(fp)
 1005ee0:	18c7883a 	add	r3,r3,r3
 1005ee4:	18c7883a 	add	r3,r3,r3
 1005ee8:	10c5883a 	add	r2,r2,r3
 1005eec:	10800017 	ldw	r2,0(r2)
 1005ef0:	2085383a 	mul	r2,r4,r2
 1005ef4:	10800244 	addi	r2,r2,9
 1005ef8:	1009883a 	mov	r4,r2
 1005efc:	01400284 	movi	r5,10
 1005f00:	100f7c40 	call	100f7c4 <__udivsi3>
 1005f04:	1007883a 	mov	r3,r2
 1005f08:	e0bffe17 	ldw	r2,-8(fp)
 1005f0c:	10c00215 	stw	r3,8(r2)
 1005f10:	00800204 	movi	r2,8
 1005f14:	e0bfb915 	stw	r2,-284(fp)
 1005f18:	e0bfb917 	ldw	r2,-284(fp)
 1005f1c:	10800808 	cmpgei	r2,r2,32
 1005f20:	1000051e 	bne	r2,zero,1005f38 <sdhc_decode_csd+0x1598>
 1005f24:	00c00044 	movi	r3,1
 1005f28:	e0bfb917 	ldw	r2,-284(fp)
 1005f2c:	1884983a 	sll	r2,r3,r2
 1005f30:	10bfffc4 	addi	r2,r2,-1
 1005f34:	00000106 	br	1005f3c <sdhc_decode_csd+0x159c>
 1005f38:	00bfffc4 	movi	r2,-1
 1005f3c:	e0bfba15 	stw	r2,-280(fp)
 1005f40:	e03fbb15 	stw	zero,-276(fp)
 1005f44:	00800204 	movi	r2,8
 1005f48:	e0bfbc15 	stw	r2,-272(fp)
 1005f4c:	e0bfbb17 	ldw	r2,-276(fp)
 1005f50:	1085883a 	add	r2,r2,r2
 1005f54:	1085883a 	add	r2,r2,r2
 1005f58:	1007883a 	mov	r3,r2
 1005f5c:	e0bfff17 	ldw	r2,-4(fp)
 1005f60:	10c5883a 	add	r2,r2,r3
 1005f64:	10c00017 	ldw	r3,0(r2)
 1005f68:	e0bfbc17 	ldw	r2,-272(fp)
 1005f6c:	1884d83a 	srl	r2,r3,r2
 1005f70:	e0bf5215 	stw	r2,-696(fp)
 1005f74:	e0ffb917 	ldw	r3,-284(fp)
 1005f78:	e0bfbc17 	ldw	r2,-272(fp)
 1005f7c:	1885883a 	add	r2,r3,r2
 1005f80:	10800850 	cmplti	r2,r2,33
 1005f84:	1000161e 	bne	r2,zero,1005fe0 <sdhc_decode_csd+0x1640>
 1005f88:	e0bfbb17 	ldw	r2,-276(fp)
 1005f8c:	1085883a 	add	r2,r2,r2
 1005f90:	1085883a 	add	r2,r2,r2
 1005f94:	10bfff04 	addi	r2,r2,-4
 1005f98:	e0ffff17 	ldw	r3,-4(fp)
 1005f9c:	1885883a 	add	r2,r3,r2
 1005fa0:	10c00017 	ldw	r3,0(r2)
 1005fa4:	01000804 	movi	r4,32
 1005fa8:	e0bfbc17 	ldw	r2,-272(fp)
 1005fac:	2089c83a 	sub	r4,r4,r2
 1005fb0:	00a00034 	movhi	r2,32768
 1005fb4:	108007c4 	addi	r2,r2,31
 1005fb8:	2084703a 	and	r2,r4,r2
 1005fbc:	1000040e 	bge	r2,zero,1005fd0 <sdhc_decode_csd+0x1630>
 1005fc0:	10bfffc4 	addi	r2,r2,-1
 1005fc4:	013ff804 	movi	r4,-32
 1005fc8:	1104b03a 	or	r2,r2,r4
 1005fcc:	10800044 	addi	r2,r2,1
 1005fd0:	1884983a 	sll	r2,r3,r2
 1005fd4:	e0ff5217 	ldw	r3,-696(fp)
 1005fd8:	1884b03a 	or	r2,r3,r2
 1005fdc:	e0bf5215 	stw	r2,-696(fp)
 1005fe0:	e0ff5217 	ldw	r3,-696(fp)
 1005fe4:	e0bfba17 	ldw	r2,-280(fp)
 1005fe8:	1884703a 	and	r2,r3,r2
 1005fec:	10801924 	muli	r2,r2,100
 1005ff0:	1007883a 	mov	r3,r2
 1005ff4:	e0bffe17 	ldw	r2,-8(fp)
 1005ff8:	10c0010d 	sth	r3,4(r2)
 1005ffc:	00800104 	movi	r2,4
 1006000:	e0bfbd15 	stw	r2,-268(fp)
 1006004:	e0bfbd17 	ldw	r2,-268(fp)
 1006008:	10800808 	cmpgei	r2,r2,32
 100600c:	1000051e 	bne	r2,zero,1006024 <sdhc_decode_csd+0x1684>
 1006010:	00c00044 	movi	r3,1
 1006014:	e0bfbd17 	ldw	r2,-268(fp)
 1006018:	1884983a 	sll	r2,r3,r2
 100601c:	10bfffc4 	addi	r2,r2,-1
 1006020:	00000106 	br	1006028 <sdhc_decode_csd+0x1688>
 1006024:	00bfffc4 	movi	r2,-1
 1006028:	e0bfbe15 	stw	r2,-264(fp)
 100602c:	e03fbf15 	stw	zero,-260(fp)
 1006030:	008000c4 	movi	r2,3
 1006034:	e0bfc015 	stw	r2,-256(fp)
 1006038:	e0bfbf17 	ldw	r2,-260(fp)
 100603c:	1085883a 	add	r2,r2,r2
 1006040:	1085883a 	add	r2,r2,r2
 1006044:	1007883a 	mov	r3,r2
 1006048:	e0bfff17 	ldw	r2,-4(fp)
 100604c:	10c5883a 	add	r2,r2,r3
 1006050:	10c00017 	ldw	r3,0(r2)
 1006054:	e0bfc017 	ldw	r2,-256(fp)
 1006058:	1884d83a 	srl	r2,r3,r2
 100605c:	e0bf5315 	stw	r2,-692(fp)
 1006060:	e0ffbd17 	ldw	r3,-268(fp)
 1006064:	e0bfc017 	ldw	r2,-256(fp)
 1006068:	1885883a 	add	r2,r3,r2
 100606c:	10800850 	cmplti	r2,r2,33
 1006070:	1000161e 	bne	r2,zero,10060cc <sdhc_decode_csd+0x172c>
 1006074:	e0bfbf17 	ldw	r2,-260(fp)
 1006078:	1085883a 	add	r2,r2,r2
 100607c:	1085883a 	add	r2,r2,r2
 1006080:	10bfff04 	addi	r2,r2,-4
 1006084:	e0ffff17 	ldw	r3,-4(fp)
 1006088:	1885883a 	add	r2,r3,r2
 100608c:	10c00017 	ldw	r3,0(r2)
 1006090:	01000804 	movi	r4,32
 1006094:	e0bfc017 	ldw	r2,-256(fp)
 1006098:	2089c83a 	sub	r4,r4,r2
 100609c:	00a00034 	movhi	r2,32768
 10060a0:	108007c4 	addi	r2,r2,31
 10060a4:	2084703a 	and	r2,r4,r2
 10060a8:	1000040e 	bge	r2,zero,10060bc <sdhc_decode_csd+0x171c>
 10060ac:	10bfffc4 	addi	r2,r2,-1
 10060b0:	013ff804 	movi	r4,-32
 10060b4:	1104b03a 	or	r2,r2,r4
 10060b8:	10800044 	addi	r2,r2,1
 10060bc:	1884983a 	sll	r2,r3,r2
 10060c0:	e0ff5317 	ldw	r3,-692(fp)
 10060c4:	1884b03a 	or	r2,r3,r2
 10060c8:	e0bf5315 	stw	r2,-692(fp)
 10060cc:	e0ff5317 	ldw	r3,-692(fp)
 10060d0:	e0bfbe17 	ldw	r2,-264(fp)
 10060d4:	1884703a 	and	r2,r3,r2
 10060d8:	e0bf7415 	stw	r2,-560(fp)
 10060dc:	008000c4 	movi	r2,3
 10060e0:	e0bfc115 	stw	r2,-252(fp)
 10060e4:	e0bfc117 	ldw	r2,-252(fp)
 10060e8:	10800808 	cmpgei	r2,r2,32
 10060ec:	1000051e 	bne	r2,zero,1006104 <sdhc_decode_csd+0x1764>
 10060f0:	00c00044 	movi	r3,1
 10060f4:	e0bfc117 	ldw	r2,-252(fp)
 10060f8:	1884983a 	sll	r2,r3,r2
 10060fc:	10bfffc4 	addi	r2,r2,-1
 1006100:	00000106 	br	1006108 <sdhc_decode_csd+0x1768>
 1006104:	00bfffc4 	movi	r2,-1
 1006108:	e0bfc215 	stw	r2,-248(fp)
 100610c:	e03fc315 	stw	zero,-244(fp)
 1006110:	e03fc415 	stw	zero,-240(fp)
 1006114:	e0bfc317 	ldw	r2,-244(fp)
 1006118:	1085883a 	add	r2,r2,r2
 100611c:	1085883a 	add	r2,r2,r2
 1006120:	1007883a 	mov	r3,r2
 1006124:	e0bfff17 	ldw	r2,-4(fp)
 1006128:	10c5883a 	add	r2,r2,r3
 100612c:	10c00017 	ldw	r3,0(r2)
 1006130:	e0bfc417 	ldw	r2,-240(fp)
 1006134:	1884d83a 	srl	r2,r3,r2
 1006138:	e0bf5415 	stw	r2,-688(fp)
 100613c:	e0ffc117 	ldw	r3,-252(fp)
 1006140:	e0bfc417 	ldw	r2,-240(fp)
 1006144:	1885883a 	add	r2,r3,r2
 1006148:	10800850 	cmplti	r2,r2,33
 100614c:	1000161e 	bne	r2,zero,10061a8 <sdhc_decode_csd+0x1808>
 1006150:	e0bfc317 	ldw	r2,-244(fp)
 1006154:	1085883a 	add	r2,r2,r2
 1006158:	1085883a 	add	r2,r2,r2
 100615c:	10bfff04 	addi	r2,r2,-4
 1006160:	e0ffff17 	ldw	r3,-4(fp)
 1006164:	1885883a 	add	r2,r3,r2
 1006168:	10c00017 	ldw	r3,0(r2)
 100616c:	01000804 	movi	r4,32
 1006170:	e0bfc417 	ldw	r2,-240(fp)
 1006174:	2089c83a 	sub	r4,r4,r2
 1006178:	00a00034 	movhi	r2,32768
 100617c:	108007c4 	addi	r2,r2,31
 1006180:	2084703a 	and	r2,r4,r2
 1006184:	1000040e 	bge	r2,zero,1006198 <sdhc_decode_csd+0x17f8>
 1006188:	10bfffc4 	addi	r2,r2,-1
 100618c:	013ff804 	movi	r4,-32
 1006190:	1104b03a 	or	r2,r2,r4
 1006194:	10800044 	addi	r2,r2,1
 1006198:	1884983a 	sll	r2,r3,r2
 100619c:	e0ff5417 	ldw	r3,-688(fp)
 10061a0:	1884b03a 	or	r2,r3,r2
 10061a4:	e0bf5415 	stw	r2,-688(fp)
 10061a8:	e0ff5417 	ldw	r3,-688(fp)
 10061ac:	e0bfc217 	ldw	r2,-248(fp)
 10061b0:	1884703a 	and	r2,r3,r2
 10061b4:	e0bf7915 	stw	r2,-540(fp)
 10061b8:	00804074 	movhi	r2,257
 10061bc:	1088f504 	addi	r2,r2,9172
 10061c0:	e0ff7917 	ldw	r3,-540(fp)
 10061c4:	18c7883a 	add	r3,r3,r3
 10061c8:	18c7883a 	add	r3,r3,r3
 10061cc:	10c5883a 	add	r2,r2,r3
 10061d0:	10c00017 	ldw	r3,0(r2)
 10061d4:	00804074 	movhi	r2,257
 10061d8:	1088fd04 	addi	r2,r2,9204
 10061dc:	e13f7417 	ldw	r4,-560(fp)
 10061e0:	1105883a 	add	r2,r2,r4
 10061e4:	10800003 	ldbu	r2,0(r2)
 10061e8:	10803fcc 	andi	r2,r2,255
 10061ec:	1887383a 	mul	r3,r3,r2
 10061f0:	e0bffe17 	ldw	r2,-8(fp)
 10061f4:	10c00415 	stw	r3,16(r2)
 10061f8:	00800304 	movi	r2,12
 10061fc:	e0bfc515 	stw	r2,-236(fp)
 1006200:	e0bfc517 	ldw	r2,-236(fp)
 1006204:	10800808 	cmpgei	r2,r2,32
 1006208:	1000051e 	bne	r2,zero,1006220 <sdhc_decode_csd+0x1880>
 100620c:	00c00044 	movi	r3,1
 1006210:	e0bfc517 	ldw	r2,-236(fp)
 1006214:	1884983a 	sll	r2,r3,r2
 1006218:	10bfffc4 	addi	r2,r2,-1
 100621c:	00000106 	br	1006224 <sdhc_decode_csd+0x1884>
 1006220:	00bfffc4 	movi	r2,-1
 1006224:	e0bfc615 	stw	r2,-232(fp)
 1006228:	00800044 	movi	r2,1
 100622c:	e0bfc715 	stw	r2,-228(fp)
 1006230:	00800504 	movi	r2,20
 1006234:	e0bfc815 	stw	r2,-224(fp)
 1006238:	e0bfc717 	ldw	r2,-228(fp)
 100623c:	1085883a 	add	r2,r2,r2
 1006240:	1085883a 	add	r2,r2,r2
 1006244:	1007883a 	mov	r3,r2
 1006248:	e0bfff17 	ldw	r2,-4(fp)
 100624c:	10c5883a 	add	r2,r2,r3
 1006250:	10c00017 	ldw	r3,0(r2)
 1006254:	e0bfc817 	ldw	r2,-224(fp)
 1006258:	1884d83a 	srl	r2,r3,r2
 100625c:	e0bf5515 	stw	r2,-684(fp)
 1006260:	e0ffc517 	ldw	r3,-236(fp)
 1006264:	e0bfc817 	ldw	r2,-224(fp)
 1006268:	1885883a 	add	r2,r3,r2
 100626c:	10800850 	cmplti	r2,r2,33
 1006270:	1000161e 	bne	r2,zero,10062cc <sdhc_decode_csd+0x192c>
 1006274:	e0bfc717 	ldw	r2,-228(fp)
 1006278:	1085883a 	add	r2,r2,r2
 100627c:	1085883a 	add	r2,r2,r2
 1006280:	10bfff04 	addi	r2,r2,-4
 1006284:	e0ffff17 	ldw	r3,-4(fp)
 1006288:	1885883a 	add	r2,r3,r2
 100628c:	10c00017 	ldw	r3,0(r2)
 1006290:	01000804 	movi	r4,32
 1006294:	e0bfc817 	ldw	r2,-224(fp)
 1006298:	2089c83a 	sub	r4,r4,r2
 100629c:	00a00034 	movhi	r2,32768
 10062a0:	108007c4 	addi	r2,r2,31
 10062a4:	2084703a 	and	r2,r4,r2
 10062a8:	1000040e 	bge	r2,zero,10062bc <sdhc_decode_csd+0x191c>
 10062ac:	10bfffc4 	addi	r2,r2,-1
 10062b0:	013ff804 	movi	r4,-32
 10062b4:	1104b03a 	or	r2,r2,r4
 10062b8:	10800044 	addi	r2,r2,1
 10062bc:	1884983a 	sll	r2,r3,r2
 10062c0:	e0ff5517 	ldw	r3,-684(fp)
 10062c4:	1884b03a 	or	r2,r3,r2
 10062c8:	e0bf5515 	stw	r2,-684(fp)
 10062cc:	e0ff5517 	ldw	r3,-684(fp)
 10062d0:	e0bfc617 	ldw	r2,-232(fp)
 10062d4:	1884703a 	and	r2,r3,r2
 10062d8:	1007883a 	mov	r3,r2
 10062dc:	e0bffe17 	ldw	r2,-8(fp)
 10062e0:	10c0008d 	sth	r3,2(r2)
 10062e4:	008000c4 	movi	r2,3
 10062e8:	e0bfc915 	stw	r2,-220(fp)
 10062ec:	e0bfc917 	ldw	r2,-220(fp)
 10062f0:	10800808 	cmpgei	r2,r2,32
 10062f4:	1000051e 	bne	r2,zero,100630c <sdhc_decode_csd+0x196c>
 10062f8:	00c00044 	movi	r3,1
 10062fc:	e0bfc917 	ldw	r2,-220(fp)
 1006300:	1884983a 	sll	r2,r3,r2
 1006304:	10bfffc4 	addi	r2,r2,-1
 1006308:	00000106 	br	1006310 <sdhc_decode_csd+0x1970>
 100630c:	00bfffc4 	movi	r2,-1
 1006310:	e0bfca15 	stw	r2,-216(fp)
 1006314:	00800084 	movi	r2,2
 1006318:	e0bfcb15 	stw	r2,-212(fp)
 100631c:	008003c4 	movi	r2,15
 1006320:	e0bfcc15 	stw	r2,-208(fp)
 1006324:	e0bfcb17 	ldw	r2,-212(fp)
 1006328:	1085883a 	add	r2,r2,r2
 100632c:	1085883a 	add	r2,r2,r2
 1006330:	1007883a 	mov	r3,r2
 1006334:	e0bfff17 	ldw	r2,-4(fp)
 1006338:	10c5883a 	add	r2,r2,r3
 100633c:	10c00017 	ldw	r3,0(r2)
 1006340:	e0bfcc17 	ldw	r2,-208(fp)
 1006344:	1884d83a 	srl	r2,r3,r2
 1006348:	e0bf5615 	stw	r2,-680(fp)
 100634c:	e0ffc917 	ldw	r3,-220(fp)
 1006350:	e0bfcc17 	ldw	r2,-208(fp)
 1006354:	1885883a 	add	r2,r3,r2
 1006358:	10800850 	cmplti	r2,r2,33
 100635c:	1000161e 	bne	r2,zero,10063b8 <sdhc_decode_csd+0x1a18>
 1006360:	e0bfcb17 	ldw	r2,-212(fp)
 1006364:	1085883a 	add	r2,r2,r2
 1006368:	1085883a 	add	r2,r2,r2
 100636c:	10bfff04 	addi	r2,r2,-4
 1006370:	e0ffff17 	ldw	r3,-4(fp)
 1006374:	1885883a 	add	r2,r3,r2
 1006378:	10c00017 	ldw	r3,0(r2)
 100637c:	01000804 	movi	r4,32
 1006380:	e0bfcc17 	ldw	r2,-208(fp)
 1006384:	2089c83a 	sub	r4,r4,r2
 1006388:	00a00034 	movhi	r2,32768
 100638c:	108007c4 	addi	r2,r2,31
 1006390:	2084703a 	and	r2,r4,r2
 1006394:	1000040e 	bge	r2,zero,10063a8 <sdhc_decode_csd+0x1a08>
 1006398:	10bfffc4 	addi	r2,r2,-1
 100639c:	013ff804 	movi	r4,-32
 10063a0:	1104b03a 	or	r2,r2,r4
 10063a4:	10800044 	addi	r2,r2,1
 10063a8:	1884983a 	sll	r2,r3,r2
 10063ac:	e0ff5617 	ldw	r3,-680(fp)
 10063b0:	1884b03a 	or	r2,r3,r2
 10063b4:	e0bf5615 	stw	r2,-680(fp)
 10063b8:	e0ff5617 	ldw	r3,-680(fp)
 10063bc:	e0bfca17 	ldw	r2,-216(fp)
 10063c0:	1884703a 	and	r2,r3,r2
 10063c4:	e0bf7915 	stw	r2,-540(fp)
 10063c8:	00800304 	movi	r2,12
 10063cc:	e0bfcd15 	stw	r2,-204(fp)
 10063d0:	e0bfcd17 	ldw	r2,-204(fp)
 10063d4:	10800808 	cmpgei	r2,r2,32
 10063d8:	1000051e 	bne	r2,zero,10063f0 <sdhc_decode_csd+0x1a50>
 10063dc:	00c00044 	movi	r3,1
 10063e0:	e0bfcd17 	ldw	r2,-204(fp)
 10063e4:	1884983a 	sll	r2,r3,r2
 10063e8:	10bfffc4 	addi	r2,r2,-1
 10063ec:	00000106 	br	10063f4 <sdhc_decode_csd+0x1a54>
 10063f0:	00bfffc4 	movi	r2,-1
 10063f4:	e0bfce15 	stw	r2,-200(fp)
 10063f8:	00800084 	movi	r2,2
 10063fc:	e0bfcf15 	stw	r2,-196(fp)
 1006400:	00800784 	movi	r2,30
 1006404:	e0bfd015 	stw	r2,-192(fp)
 1006408:	e0bfcf17 	ldw	r2,-196(fp)
 100640c:	1085883a 	add	r2,r2,r2
 1006410:	1085883a 	add	r2,r2,r2
 1006414:	1007883a 	mov	r3,r2
 1006418:	e0bfff17 	ldw	r2,-4(fp)
 100641c:	10c5883a 	add	r2,r2,r3
 1006420:	10c00017 	ldw	r3,0(r2)
 1006424:	e0bfd017 	ldw	r2,-192(fp)
 1006428:	1884d83a 	srl	r2,r3,r2
 100642c:	e0bf5715 	stw	r2,-676(fp)
 1006430:	e0ffcd17 	ldw	r3,-204(fp)
 1006434:	e0bfd017 	ldw	r2,-192(fp)
 1006438:	1885883a 	add	r2,r3,r2
 100643c:	10800850 	cmplti	r2,r2,33
 1006440:	1000161e 	bne	r2,zero,100649c <sdhc_decode_csd+0x1afc>
 1006444:	e0bfcf17 	ldw	r2,-196(fp)
 1006448:	1085883a 	add	r2,r2,r2
 100644c:	1085883a 	add	r2,r2,r2
 1006450:	10bfff04 	addi	r2,r2,-4
 1006454:	e0ffff17 	ldw	r3,-4(fp)
 1006458:	1885883a 	add	r2,r3,r2
 100645c:	10c00017 	ldw	r3,0(r2)
 1006460:	01000804 	movi	r4,32
 1006464:	e0bfd017 	ldw	r2,-192(fp)
 1006468:	2089c83a 	sub	r4,r4,r2
 100646c:	00a00034 	movhi	r2,32768
 1006470:	108007c4 	addi	r2,r2,31
 1006474:	2084703a 	and	r2,r4,r2
 1006478:	1000040e 	bge	r2,zero,100648c <sdhc_decode_csd+0x1aec>
 100647c:	10bfffc4 	addi	r2,r2,-1
 1006480:	013ff804 	movi	r4,-32
 1006484:	1104b03a 	or	r2,r2,r4
 1006488:	10800044 	addi	r2,r2,1
 100648c:	1884983a 	sll	r2,r3,r2
 1006490:	e0ff5717 	ldw	r3,-676(fp)
 1006494:	1884b03a 	or	r2,r3,r2
 1006498:	e0bf5715 	stw	r2,-676(fp)
 100649c:	e0ff5717 	ldw	r3,-676(fp)
 10064a0:	e0bfce17 	ldw	r2,-200(fp)
 10064a4:	1884703a 	and	r2,r3,r2
 10064a8:	e0bf7415 	stw	r2,-560(fp)
 10064ac:	e0bf7417 	ldw	r2,-560(fp)
 10064b0:	10800044 	addi	r2,r2,1
 10064b4:	e0ff7917 	ldw	r3,-540(fp)
 10064b8:	18c00084 	addi	r3,r3,2
 10064bc:	10c6983a 	sll	r3,r2,r3
 10064c0:	e0bffe17 	ldw	r2,-8(fp)
 10064c4:	10c00715 	stw	r3,28(r2)
 10064c8:	00800104 	movi	r2,4
 10064cc:	e0bfd115 	stw	r2,-188(fp)
 10064d0:	e0bfd117 	ldw	r2,-188(fp)
 10064d4:	10800808 	cmpgei	r2,r2,32
 10064d8:	1000051e 	bne	r2,zero,10064f0 <sdhc_decode_csd+0x1b50>
 10064dc:	00c00044 	movi	r3,1
 10064e0:	e0bfd117 	ldw	r2,-188(fp)
 10064e4:	1884983a 	sll	r2,r3,r2
 10064e8:	10bfffc4 	addi	r2,r2,-1
 10064ec:	00000106 	br	10064f4 <sdhc_decode_csd+0x1b54>
 10064f0:	00bfffc4 	movi	r2,-1
 10064f4:	e0bfd215 	stw	r2,-184(fp)
 10064f8:	00800044 	movi	r2,1
 10064fc:	e0bfd315 	stw	r2,-180(fp)
 1006500:	00800404 	movi	r2,16
 1006504:	e0bfd415 	stw	r2,-176(fp)
 1006508:	e0bfd317 	ldw	r2,-180(fp)
 100650c:	1085883a 	add	r2,r2,r2
 1006510:	1085883a 	add	r2,r2,r2
 1006514:	1007883a 	mov	r3,r2
 1006518:	e0bfff17 	ldw	r2,-4(fp)
 100651c:	10c5883a 	add	r2,r2,r3
 1006520:	10c00017 	ldw	r3,0(r2)
 1006524:	e0bfd417 	ldw	r2,-176(fp)
 1006528:	1884d83a 	srl	r2,r3,r2
 100652c:	e0bf5815 	stw	r2,-672(fp)
 1006530:	e0ffd117 	ldw	r3,-188(fp)
 1006534:	e0bfd417 	ldw	r2,-176(fp)
 1006538:	1885883a 	add	r2,r3,r2
 100653c:	10800850 	cmplti	r2,r2,33
 1006540:	1000161e 	bne	r2,zero,100659c <sdhc_decode_csd+0x1bfc>
 1006544:	e0bfd317 	ldw	r2,-180(fp)
 1006548:	1085883a 	add	r2,r2,r2
 100654c:	1085883a 	add	r2,r2,r2
 1006550:	10bfff04 	addi	r2,r2,-4
 1006554:	e0ffff17 	ldw	r3,-4(fp)
 1006558:	1885883a 	add	r2,r3,r2
 100655c:	10c00017 	ldw	r3,0(r2)
 1006560:	01000804 	movi	r4,32
 1006564:	e0bfd417 	ldw	r2,-176(fp)
 1006568:	2089c83a 	sub	r4,r4,r2
 100656c:	00a00034 	movhi	r2,32768
 1006570:	108007c4 	addi	r2,r2,31
 1006574:	2084703a 	and	r2,r4,r2
 1006578:	1000040e 	bge	r2,zero,100658c <sdhc_decode_csd+0x1bec>
 100657c:	10bfffc4 	addi	r2,r2,-1
 1006580:	013ff804 	movi	r4,-32
 1006584:	1104b03a 	or	r2,r2,r4
 1006588:	10800044 	addi	r2,r2,1
 100658c:	1884983a 	sll	r2,r3,r2
 1006590:	e0ff5817 	ldw	r3,-672(fp)
 1006594:	1884b03a 	or	r2,r3,r2
 1006598:	e0bf5815 	stw	r2,-672(fp)
 100659c:	e0ff5817 	ldw	r3,-672(fp)
 10065a0:	e0bfd217 	ldw	r2,-184(fp)
 10065a4:	1886703a 	and	r3,r3,r2
 10065a8:	e0bffe17 	ldw	r2,-8(fp)
 10065ac:	10c00515 	stw	r3,20(r2)
 10065b0:	00800044 	movi	r2,1
 10065b4:	e0bfd515 	stw	r2,-172(fp)
 10065b8:	e0bfd517 	ldw	r2,-172(fp)
 10065bc:	10800808 	cmpgei	r2,r2,32
 10065c0:	1000051e 	bne	r2,zero,10065d8 <sdhc_decode_csd+0x1c38>
 10065c4:	00c00044 	movi	r3,1
 10065c8:	e0bfd517 	ldw	r2,-172(fp)
 10065cc:	1884983a 	sll	r2,r3,r2
 10065d0:	10bfffc4 	addi	r2,r2,-1
 10065d4:	00000106 	br	10065dc <sdhc_decode_csd+0x1c3c>
 10065d8:	00bfffc4 	movi	r2,-1
 10065dc:	e0bfd615 	stw	r2,-168(fp)
 10065e0:	00800044 	movi	r2,1
 10065e4:	e0bfd715 	stw	r2,-164(fp)
 10065e8:	008003c4 	movi	r2,15
 10065ec:	e0bfd815 	stw	r2,-160(fp)
 10065f0:	e0bfd717 	ldw	r2,-164(fp)
 10065f4:	1085883a 	add	r2,r2,r2
 10065f8:	1085883a 	add	r2,r2,r2
 10065fc:	1007883a 	mov	r3,r2
 1006600:	e0bfff17 	ldw	r2,-4(fp)
 1006604:	10c5883a 	add	r2,r2,r3
 1006608:	10c00017 	ldw	r3,0(r2)
 100660c:	e0bfd817 	ldw	r2,-160(fp)
 1006610:	1884d83a 	srl	r2,r3,r2
 1006614:	e0bf5915 	stw	r2,-668(fp)
 1006618:	e0ffd517 	ldw	r3,-172(fp)
 100661c:	e0bfd817 	ldw	r2,-160(fp)
 1006620:	1885883a 	add	r2,r3,r2
 1006624:	10800850 	cmplti	r2,r2,33
 1006628:	1000161e 	bne	r2,zero,1006684 <sdhc_decode_csd+0x1ce4>
 100662c:	e0bfd717 	ldw	r2,-164(fp)
 1006630:	1085883a 	add	r2,r2,r2
 1006634:	1085883a 	add	r2,r2,r2
 1006638:	10bfff04 	addi	r2,r2,-4
 100663c:	e0ffff17 	ldw	r3,-4(fp)
 1006640:	1885883a 	add	r2,r3,r2
 1006644:	10c00017 	ldw	r3,0(r2)
 1006648:	01000804 	movi	r4,32
 100664c:	e0bfd817 	ldw	r2,-160(fp)
 1006650:	2089c83a 	sub	r4,r4,r2
 1006654:	00a00034 	movhi	r2,32768
 1006658:	108007c4 	addi	r2,r2,31
 100665c:	2084703a 	and	r2,r4,r2
 1006660:	1000040e 	bge	r2,zero,1006674 <sdhc_decode_csd+0x1cd4>
 1006664:	10bfffc4 	addi	r2,r2,-1
 1006668:	013ff804 	movi	r4,-32
 100666c:	1104b03a 	or	r2,r2,r4
 1006670:	10800044 	addi	r2,r2,1
 1006674:	1884983a 	sll	r2,r3,r2
 1006678:	e0ff5917 	ldw	r3,-668(fp)
 100667c:	1884b03a 	or	r2,r3,r2
 1006680:	e0bf5915 	stw	r2,-668(fp)
 1006684:	e0ff5917 	ldw	r3,-668(fp)
 1006688:	e0bfd617 	ldw	r2,-168(fp)
 100668c:	1884703a 	and	r2,r3,r2
 1006690:	1080004c 	andi	r2,r2,1
 1006694:	1007883a 	mov	r3,r2
 1006698:	e0bffe17 	ldw	r2,-8(fp)
 100669c:	1940004c 	andi	r5,r3,1
 10066a0:	11000803 	ldbu	r4,32(r2)
 10066a4:	00ffff84 	movi	r3,-2
 10066a8:	20c6703a 	and	r3,r4,r3
 10066ac:	1809883a 	mov	r4,r3
 10066b0:	2807883a 	mov	r3,r5
 10066b4:	20c6b03a 	or	r3,r4,r3
 10066b8:	10c00805 	stb	r3,32(r2)
 10066bc:	00800044 	movi	r2,1
 10066c0:	e0bfd915 	stw	r2,-156(fp)
 10066c4:	e0bfd917 	ldw	r2,-156(fp)
 10066c8:	10800808 	cmpgei	r2,r2,32
 10066cc:	1000051e 	bne	r2,zero,10066e4 <sdhc_decode_csd+0x1d44>
 10066d0:	00c00044 	movi	r3,1
 10066d4:	e0bfd917 	ldw	r2,-156(fp)
 10066d8:	1884983a 	sll	r2,r3,r2
 10066dc:	10bfffc4 	addi	r2,r2,-1
 10066e0:	00000106 	br	10066e8 <sdhc_decode_csd+0x1d48>
 10066e4:	00bfffc4 	movi	r2,-1
 10066e8:	e0bfda15 	stw	r2,-152(fp)
 10066ec:	00800044 	movi	r2,1
 10066f0:	e0bfdb15 	stw	r2,-148(fp)
 10066f4:	00800384 	movi	r2,14
 10066f8:	e0bfdc15 	stw	r2,-144(fp)
 10066fc:	e0bfdb17 	ldw	r2,-148(fp)
 1006700:	1085883a 	add	r2,r2,r2
 1006704:	1085883a 	add	r2,r2,r2
 1006708:	1007883a 	mov	r3,r2
 100670c:	e0bfff17 	ldw	r2,-4(fp)
 1006710:	10c5883a 	add	r2,r2,r3
 1006714:	10c00017 	ldw	r3,0(r2)
 1006718:	e0bfdc17 	ldw	r2,-144(fp)
 100671c:	1884d83a 	srl	r2,r3,r2
 1006720:	e0bf5a15 	stw	r2,-664(fp)
 1006724:	e0ffd917 	ldw	r3,-156(fp)
 1006728:	e0bfdc17 	ldw	r2,-144(fp)
 100672c:	1885883a 	add	r2,r3,r2
 1006730:	10800850 	cmplti	r2,r2,33
 1006734:	1000161e 	bne	r2,zero,1006790 <sdhc_decode_csd+0x1df0>
 1006738:	e0bfdb17 	ldw	r2,-148(fp)
 100673c:	1085883a 	add	r2,r2,r2
 1006740:	1085883a 	add	r2,r2,r2
 1006744:	10bfff04 	addi	r2,r2,-4
 1006748:	e0ffff17 	ldw	r3,-4(fp)
 100674c:	1885883a 	add	r2,r3,r2
 1006750:	10c00017 	ldw	r3,0(r2)
 1006754:	01000804 	movi	r4,32
 1006758:	e0bfdc17 	ldw	r2,-144(fp)
 100675c:	2089c83a 	sub	r4,r4,r2
 1006760:	00a00034 	movhi	r2,32768
 1006764:	108007c4 	addi	r2,r2,31
 1006768:	2084703a 	and	r2,r4,r2
 100676c:	1000040e 	bge	r2,zero,1006780 <sdhc_decode_csd+0x1de0>
 1006770:	10bfffc4 	addi	r2,r2,-1
 1006774:	013ff804 	movi	r4,-32
 1006778:	1104b03a 	or	r2,r2,r4
 100677c:	10800044 	addi	r2,r2,1
 1006780:	1884983a 	sll	r2,r3,r2
 1006784:	e0ff5a17 	ldw	r3,-664(fp)
 1006788:	1884b03a 	or	r2,r3,r2
 100678c:	e0bf5a15 	stw	r2,-664(fp)
 1006790:	e0ff5a17 	ldw	r3,-664(fp)
 1006794:	e0bfda17 	ldw	r2,-152(fp)
 1006798:	1884703a 	and	r2,r3,r2
 100679c:	1080004c 	andi	r2,r2,1
 10067a0:	1007883a 	mov	r3,r2
 10067a4:	e0bffe17 	ldw	r2,-8(fp)
 10067a8:	18c0004c 	andi	r3,r3,1
 10067ac:	180a90fa 	slli	r5,r3,3
 10067b0:	11000803 	ldbu	r4,32(r2)
 10067b4:	00fffdc4 	movi	r3,-9
 10067b8:	20c6703a 	and	r3,r4,r3
 10067bc:	1809883a 	mov	r4,r3
 10067c0:	2807883a 	mov	r3,r5
 10067c4:	20c6b03a 	or	r3,r4,r3
 10067c8:	10c00805 	stb	r3,32(r2)
 10067cc:	00800044 	movi	r2,1
 10067d0:	e0bfdd15 	stw	r2,-140(fp)
 10067d4:	e0bfdd17 	ldw	r2,-140(fp)
 10067d8:	10800808 	cmpgei	r2,r2,32
 10067dc:	1000051e 	bne	r2,zero,10067f4 <sdhc_decode_csd+0x1e54>
 10067e0:	00c00044 	movi	r3,1
 10067e4:	e0bfdd17 	ldw	r2,-140(fp)
 10067e8:	1884983a 	sll	r2,r3,r2
 10067ec:	10bfffc4 	addi	r2,r2,-1
 10067f0:	00000106 	br	10067f8 <sdhc_decode_csd+0x1e58>
 10067f4:	00bfffc4 	movi	r2,-1
 10067f8:	e0bfde15 	stw	r2,-136(fp)
 10067fc:	00800044 	movi	r2,1
 1006800:	e0bfdf15 	stw	r2,-132(fp)
 1006804:	00800344 	movi	r2,13
 1006808:	e0bfe015 	stw	r2,-128(fp)
 100680c:	e0bfdf17 	ldw	r2,-132(fp)
 1006810:	1085883a 	add	r2,r2,r2
 1006814:	1085883a 	add	r2,r2,r2
 1006818:	1007883a 	mov	r3,r2
 100681c:	e0bfff17 	ldw	r2,-4(fp)
 1006820:	10c5883a 	add	r2,r2,r3
 1006824:	10c00017 	ldw	r3,0(r2)
 1006828:	e0bfe017 	ldw	r2,-128(fp)
 100682c:	1884d83a 	srl	r2,r3,r2
 1006830:	e0bf5b15 	stw	r2,-660(fp)
 1006834:	e0ffdd17 	ldw	r3,-140(fp)
 1006838:	e0bfe017 	ldw	r2,-128(fp)
 100683c:	1885883a 	add	r2,r3,r2
 1006840:	10800850 	cmplti	r2,r2,33
 1006844:	1000161e 	bne	r2,zero,10068a0 <sdhc_decode_csd+0x1f00>
 1006848:	e0bfdf17 	ldw	r2,-132(fp)
 100684c:	1085883a 	add	r2,r2,r2
 1006850:	1085883a 	add	r2,r2,r2
 1006854:	10bfff04 	addi	r2,r2,-4
 1006858:	e0ffff17 	ldw	r3,-4(fp)
 100685c:	1885883a 	add	r2,r3,r2
 1006860:	10c00017 	ldw	r3,0(r2)
 1006864:	01000804 	movi	r4,32
 1006868:	e0bfe017 	ldw	r2,-128(fp)
 100686c:	2089c83a 	sub	r4,r4,r2
 1006870:	00a00034 	movhi	r2,32768
 1006874:	108007c4 	addi	r2,r2,31
 1006878:	2084703a 	and	r2,r4,r2
 100687c:	1000040e 	bge	r2,zero,1006890 <sdhc_decode_csd+0x1ef0>
 1006880:	10bfffc4 	addi	r2,r2,-1
 1006884:	013ff804 	movi	r4,-32
 1006888:	1104b03a 	or	r2,r2,r4
 100688c:	10800044 	addi	r2,r2,1
 1006890:	1884983a 	sll	r2,r3,r2
 1006894:	e0ff5b17 	ldw	r3,-660(fp)
 1006898:	1884b03a 	or	r2,r3,r2
 100689c:	e0bf5b15 	stw	r2,-660(fp)
 10068a0:	e0ff5b17 	ldw	r3,-660(fp)
 10068a4:	e0bfde17 	ldw	r2,-136(fp)
 10068a8:	1884703a 	and	r2,r3,r2
 10068ac:	1080004c 	andi	r2,r2,1
 10068b0:	1007883a 	mov	r3,r2
 10068b4:	e0bffe17 	ldw	r2,-8(fp)
 10068b8:	18c0004c 	andi	r3,r3,1
 10068bc:	18cb883a 	add	r5,r3,r3
 10068c0:	11000803 	ldbu	r4,32(r2)
 10068c4:	00ffff44 	movi	r3,-3
 10068c8:	20c6703a 	and	r3,r4,r3
 10068cc:	1809883a 	mov	r4,r3
 10068d0:	2807883a 	mov	r3,r5
 10068d4:	20c6b03a 	or	r3,r4,r3
 10068d8:	10c00805 	stb	r3,32(r2)
 10068dc:	008000c4 	movi	r2,3
 10068e0:	e0bfe115 	stw	r2,-124(fp)
 10068e4:	e0bfe117 	ldw	r2,-124(fp)
 10068e8:	10800808 	cmpgei	r2,r2,32
 10068ec:	1000051e 	bne	r2,zero,1006904 <sdhc_decode_csd+0x1f64>
 10068f0:	00c00044 	movi	r3,1
 10068f4:	e0bfe117 	ldw	r2,-124(fp)
 10068f8:	1884983a 	sll	r2,r3,r2
 10068fc:	10bfffc4 	addi	r2,r2,-1
 1006900:	00000106 	br	1006908 <sdhc_decode_csd+0x1f68>
 1006904:	00bfffc4 	movi	r2,-1
 1006908:	e0bfe215 	stw	r2,-120(fp)
 100690c:	008000c4 	movi	r2,3
 1006910:	e0bfe315 	stw	r2,-116(fp)
 1006914:	00800684 	movi	r2,26
 1006918:	e0bfe415 	stw	r2,-112(fp)
 100691c:	e0bfe317 	ldw	r2,-116(fp)
 1006920:	1085883a 	add	r2,r2,r2
 1006924:	1085883a 	add	r2,r2,r2
 1006928:	1007883a 	mov	r3,r2
 100692c:	e0bfff17 	ldw	r2,-4(fp)
 1006930:	10c5883a 	add	r2,r2,r3
 1006934:	10c00017 	ldw	r3,0(r2)
 1006938:	e0bfe417 	ldw	r2,-112(fp)
 100693c:	1884d83a 	srl	r2,r3,r2
 1006940:	e0bf5c15 	stw	r2,-656(fp)
 1006944:	e0ffe117 	ldw	r3,-124(fp)
 1006948:	e0bfe417 	ldw	r2,-112(fp)
 100694c:	1885883a 	add	r2,r3,r2
 1006950:	10800850 	cmplti	r2,r2,33
 1006954:	1000161e 	bne	r2,zero,10069b0 <sdhc_decode_csd+0x2010>
 1006958:	e0bfe317 	ldw	r2,-116(fp)
 100695c:	1085883a 	add	r2,r2,r2
 1006960:	1085883a 	add	r2,r2,r2
 1006964:	10bfff04 	addi	r2,r2,-4
 1006968:	e0ffff17 	ldw	r3,-4(fp)
 100696c:	1885883a 	add	r2,r3,r2
 1006970:	10c00017 	ldw	r3,0(r2)
 1006974:	01000804 	movi	r4,32
 1006978:	e0bfe417 	ldw	r2,-112(fp)
 100697c:	2089c83a 	sub	r4,r4,r2
 1006980:	00a00034 	movhi	r2,32768
 1006984:	108007c4 	addi	r2,r2,31
 1006988:	2084703a 	and	r2,r4,r2
 100698c:	1000040e 	bge	r2,zero,10069a0 <sdhc_decode_csd+0x2000>
 1006990:	10bfffc4 	addi	r2,r2,-1
 1006994:	013ff804 	movi	r4,-32
 1006998:	1104b03a 	or	r2,r2,r4
 100699c:	10800044 	addi	r2,r2,1
 10069a0:	1884983a 	sll	r2,r3,r2
 10069a4:	e0ff5c17 	ldw	r3,-656(fp)
 10069a8:	1884b03a 	or	r2,r3,r2
 10069ac:	e0bf5c15 	stw	r2,-656(fp)
 10069b0:	e0ff5c17 	ldw	r3,-656(fp)
 10069b4:	e0bfe217 	ldw	r2,-120(fp)
 10069b8:	1886703a 	and	r3,r3,r2
 10069bc:	e0bffe17 	ldw	r2,-8(fp)
 10069c0:	10c00315 	stw	r3,12(r2)
 10069c4:	00800104 	movi	r2,4
 10069c8:	e0bfe515 	stw	r2,-108(fp)
 10069cc:	e0bfe517 	ldw	r2,-108(fp)
 10069d0:	10800808 	cmpgei	r2,r2,32
 10069d4:	1000051e 	bne	r2,zero,10069ec <sdhc_decode_csd+0x204c>
 10069d8:	00c00044 	movi	r3,1
 10069dc:	e0bfe517 	ldw	r2,-108(fp)
 10069e0:	1884983a 	sll	r2,r3,r2
 10069e4:	10bfffc4 	addi	r2,r2,-1
 10069e8:	00000106 	br	10069f0 <sdhc_decode_csd+0x2050>
 10069ec:	00bfffc4 	movi	r2,-1
 10069f0:	e0bfe615 	stw	r2,-104(fp)
 10069f4:	008000c4 	movi	r2,3
 10069f8:	e0bfe715 	stw	r2,-100(fp)
 10069fc:	00800584 	movi	r2,22
 1006a00:	e0bfe815 	stw	r2,-96(fp)
 1006a04:	e0bfe717 	ldw	r2,-100(fp)
 1006a08:	1085883a 	add	r2,r2,r2
 1006a0c:	1085883a 	add	r2,r2,r2
 1006a10:	1007883a 	mov	r3,r2
 1006a14:	e0bfff17 	ldw	r2,-4(fp)
 1006a18:	10c5883a 	add	r2,r2,r3
 1006a1c:	10c00017 	ldw	r3,0(r2)
 1006a20:	e0bfe817 	ldw	r2,-96(fp)
 1006a24:	1884d83a 	srl	r2,r3,r2
 1006a28:	e0bf5d15 	stw	r2,-652(fp)
 1006a2c:	e0ffe517 	ldw	r3,-108(fp)
 1006a30:	e0bfe817 	ldw	r2,-96(fp)
 1006a34:	1885883a 	add	r2,r3,r2
 1006a38:	10800850 	cmplti	r2,r2,33
 1006a3c:	1000161e 	bne	r2,zero,1006a98 <sdhc_decode_csd+0x20f8>
 1006a40:	e0bfe717 	ldw	r2,-100(fp)
 1006a44:	1085883a 	add	r2,r2,r2
 1006a48:	1085883a 	add	r2,r2,r2
 1006a4c:	10bfff04 	addi	r2,r2,-4
 1006a50:	e0ffff17 	ldw	r3,-4(fp)
 1006a54:	1885883a 	add	r2,r3,r2
 1006a58:	10c00017 	ldw	r3,0(r2)
 1006a5c:	01000804 	movi	r4,32
 1006a60:	e0bfe817 	ldw	r2,-96(fp)
 1006a64:	2089c83a 	sub	r4,r4,r2
 1006a68:	00a00034 	movhi	r2,32768
 1006a6c:	108007c4 	addi	r2,r2,31
 1006a70:	2084703a 	and	r2,r4,r2
 1006a74:	1000040e 	bge	r2,zero,1006a88 <sdhc_decode_csd+0x20e8>
 1006a78:	10bfffc4 	addi	r2,r2,-1
 1006a7c:	013ff804 	movi	r4,-32
 1006a80:	1104b03a 	or	r2,r2,r4
 1006a84:	10800044 	addi	r2,r2,1
 1006a88:	1884983a 	sll	r2,r3,r2
 1006a8c:	e0ff5d17 	ldw	r3,-652(fp)
 1006a90:	1884b03a 	or	r2,r3,r2
 1006a94:	e0bf5d15 	stw	r2,-652(fp)
 1006a98:	e0ff5d17 	ldw	r3,-652(fp)
 1006a9c:	e0bfe617 	ldw	r2,-104(fp)
 1006aa0:	1886703a 	and	r3,r3,r2
 1006aa4:	e0bffe17 	ldw	r2,-8(fp)
 1006aa8:	10c00615 	stw	r3,24(r2)
 1006aac:	00800044 	movi	r2,1
 1006ab0:	e0bfe915 	stw	r2,-92(fp)
 1006ab4:	e0bfe917 	ldw	r2,-92(fp)
 1006ab8:	10800808 	cmpgei	r2,r2,32
 1006abc:	1000051e 	bne	r2,zero,1006ad4 <sdhc_decode_csd+0x2134>
 1006ac0:	00c00044 	movi	r3,1
 1006ac4:	e0bfe917 	ldw	r2,-92(fp)
 1006ac8:	1884983a 	sll	r2,r3,r2
 1006acc:	10bfffc4 	addi	r2,r2,-1
 1006ad0:	00000106 	br	1006ad8 <sdhc_decode_csd+0x2138>
 1006ad4:	00bfffc4 	movi	r2,-1
 1006ad8:	e0bfea15 	stw	r2,-88(fp)
 1006adc:	008000c4 	movi	r2,3
 1006ae0:	e0bfeb15 	stw	r2,-84(fp)
 1006ae4:	00800544 	movi	r2,21
 1006ae8:	e0bfec15 	stw	r2,-80(fp)
 1006aec:	e0bfeb17 	ldw	r2,-84(fp)
 1006af0:	1085883a 	add	r2,r2,r2
 1006af4:	1085883a 	add	r2,r2,r2
 1006af8:	1007883a 	mov	r3,r2
 1006afc:	e0bfff17 	ldw	r2,-4(fp)
 1006b00:	10c5883a 	add	r2,r2,r3
 1006b04:	10c00017 	ldw	r3,0(r2)
 1006b08:	e0bfec17 	ldw	r2,-80(fp)
 1006b0c:	1884d83a 	srl	r2,r3,r2
 1006b10:	e0bf5e15 	stw	r2,-648(fp)
 1006b14:	e0ffe917 	ldw	r3,-92(fp)
 1006b18:	e0bfec17 	ldw	r2,-80(fp)
 1006b1c:	1885883a 	add	r2,r3,r2
 1006b20:	10800850 	cmplti	r2,r2,33
 1006b24:	1000161e 	bne	r2,zero,1006b80 <sdhc_decode_csd+0x21e0>
 1006b28:	e0bfeb17 	ldw	r2,-84(fp)
 1006b2c:	1085883a 	add	r2,r2,r2
 1006b30:	1085883a 	add	r2,r2,r2
 1006b34:	10bfff04 	addi	r2,r2,-4
 1006b38:	e0ffff17 	ldw	r3,-4(fp)
 1006b3c:	1885883a 	add	r2,r3,r2
 1006b40:	10c00017 	ldw	r3,0(r2)
 1006b44:	01000804 	movi	r4,32
 1006b48:	e0bfec17 	ldw	r2,-80(fp)
 1006b4c:	2089c83a 	sub	r4,r4,r2
 1006b50:	00a00034 	movhi	r2,32768
 1006b54:	108007c4 	addi	r2,r2,31
 1006b58:	2084703a 	and	r2,r4,r2
 1006b5c:	1000040e 	bge	r2,zero,1006b70 <sdhc_decode_csd+0x21d0>
 1006b60:	10bfffc4 	addi	r2,r2,-1
 1006b64:	013ff804 	movi	r4,-32
 1006b68:	1104b03a 	or	r2,r2,r4
 1006b6c:	10800044 	addi	r2,r2,1
 1006b70:	1884983a 	sll	r2,r3,r2
 1006b74:	e0ff5e17 	ldw	r3,-648(fp)
 1006b78:	1884b03a 	or	r2,r3,r2
 1006b7c:	e0bf5e15 	stw	r2,-648(fp)
 1006b80:	e0ff5e17 	ldw	r3,-648(fp)
 1006b84:	e0bfea17 	ldw	r2,-88(fp)
 1006b88:	1884703a 	and	r2,r3,r2
 1006b8c:	1080004c 	andi	r2,r2,1
 1006b90:	1007883a 	mov	r3,r2
 1006b94:	e0bffe17 	ldw	r2,-8(fp)
 1006b98:	18c0004c 	andi	r3,r3,1
 1006b9c:	18c7883a 	add	r3,r3,r3
 1006ba0:	18cb883a 	add	r5,r3,r3
 1006ba4:	11000803 	ldbu	r4,32(r2)
 1006ba8:	00fffec4 	movi	r3,-5
 1006bac:	20c6703a 	and	r3,r4,r3
 1006bb0:	1809883a 	mov	r4,r3
 1006bb4:	2807883a 	mov	r3,r5
 1006bb8:	20c6b03a 	or	r3,r4,r3
 1006bbc:	10c00805 	stb	r3,32(r2)
 1006bc0:	00012206 	br	100704c <sdhc_decode_csd+0x26ac>
 1006bc4:	e0bffe17 	ldw	r2,-8(fp)
 1006bc8:	10000215 	stw	zero,8(r2)
 1006bcc:	e0bffe17 	ldw	r2,-8(fp)
 1006bd0:	1000010d 	sth	zero,4(r2)
 1006bd4:	00800104 	movi	r2,4
 1006bd8:	e0bfed15 	stw	r2,-76(fp)
 1006bdc:	e0bfed17 	ldw	r2,-76(fp)
 1006be0:	10800808 	cmpgei	r2,r2,32
 1006be4:	1000051e 	bne	r2,zero,1006bfc <sdhc_decode_csd+0x225c>
 1006be8:	00c00044 	movi	r3,1
 1006bec:	e0bfed17 	ldw	r2,-76(fp)
 1006bf0:	1884983a 	sll	r2,r3,r2
 1006bf4:	10bfffc4 	addi	r2,r2,-1
 1006bf8:	00000106 	br	1006c00 <sdhc_decode_csd+0x2260>
 1006bfc:	00bfffc4 	movi	r2,-1
 1006c00:	e0bfee15 	stw	r2,-72(fp)
 1006c04:	e03fef15 	stw	zero,-68(fp)
 1006c08:	008000c4 	movi	r2,3
 1006c0c:	e0bff015 	stw	r2,-64(fp)
 1006c10:	e0bfef17 	ldw	r2,-68(fp)
 1006c14:	1085883a 	add	r2,r2,r2
 1006c18:	1085883a 	add	r2,r2,r2
 1006c1c:	1007883a 	mov	r3,r2
 1006c20:	e0bfff17 	ldw	r2,-4(fp)
 1006c24:	10c5883a 	add	r2,r2,r3
 1006c28:	10c00017 	ldw	r3,0(r2)
 1006c2c:	e0bff017 	ldw	r2,-64(fp)
 1006c30:	1884d83a 	srl	r2,r3,r2
 1006c34:	e0bf5f15 	stw	r2,-644(fp)
 1006c38:	e0ffed17 	ldw	r3,-76(fp)
 1006c3c:	e0bff017 	ldw	r2,-64(fp)
 1006c40:	1885883a 	add	r2,r3,r2
 1006c44:	10800850 	cmplti	r2,r2,33
 1006c48:	1000161e 	bne	r2,zero,1006ca4 <sdhc_decode_csd+0x2304>
 1006c4c:	e0bfef17 	ldw	r2,-68(fp)
 1006c50:	1085883a 	add	r2,r2,r2
 1006c54:	1085883a 	add	r2,r2,r2
 1006c58:	10bfff04 	addi	r2,r2,-4
 1006c5c:	e0ffff17 	ldw	r3,-4(fp)
 1006c60:	1885883a 	add	r2,r3,r2
 1006c64:	10c00017 	ldw	r3,0(r2)
 1006c68:	01000804 	movi	r4,32
 1006c6c:	e0bff017 	ldw	r2,-64(fp)
 1006c70:	2089c83a 	sub	r4,r4,r2
 1006c74:	00a00034 	movhi	r2,32768
 1006c78:	108007c4 	addi	r2,r2,31
 1006c7c:	2084703a 	and	r2,r4,r2
 1006c80:	1000040e 	bge	r2,zero,1006c94 <sdhc_decode_csd+0x22f4>
 1006c84:	10bfffc4 	addi	r2,r2,-1
 1006c88:	013ff804 	movi	r4,-32
 1006c8c:	1104b03a 	or	r2,r2,r4
 1006c90:	10800044 	addi	r2,r2,1
 1006c94:	1884983a 	sll	r2,r3,r2
 1006c98:	e0ff5f17 	ldw	r3,-644(fp)
 1006c9c:	1884b03a 	or	r2,r3,r2
 1006ca0:	e0bf5f15 	stw	r2,-644(fp)
 1006ca4:	e0ff5f17 	ldw	r3,-644(fp)
 1006ca8:	e0bfee17 	ldw	r2,-72(fp)
 1006cac:	1884703a 	and	r2,r3,r2
 1006cb0:	e0bf7415 	stw	r2,-560(fp)
 1006cb4:	008000c4 	movi	r2,3
 1006cb8:	e0bff115 	stw	r2,-60(fp)
 1006cbc:	e0bff117 	ldw	r2,-60(fp)
 1006cc0:	10800808 	cmpgei	r2,r2,32
 1006cc4:	1000051e 	bne	r2,zero,1006cdc <sdhc_decode_csd+0x233c>
 1006cc8:	00c00044 	movi	r3,1
 1006ccc:	e0bff117 	ldw	r2,-60(fp)
 1006cd0:	1884983a 	sll	r2,r3,r2
 1006cd4:	10bfffc4 	addi	r2,r2,-1
 1006cd8:	00000106 	br	1006ce0 <sdhc_decode_csd+0x2340>
 1006cdc:	00bfffc4 	movi	r2,-1
 1006ce0:	e0bff215 	stw	r2,-56(fp)
 1006ce4:	e03ff315 	stw	zero,-52(fp)
 1006ce8:	e03ff415 	stw	zero,-48(fp)
 1006cec:	e0bff317 	ldw	r2,-52(fp)
 1006cf0:	1085883a 	add	r2,r2,r2
 1006cf4:	1085883a 	add	r2,r2,r2
 1006cf8:	1007883a 	mov	r3,r2
 1006cfc:	e0bfff17 	ldw	r2,-4(fp)
 1006d00:	10c5883a 	add	r2,r2,r3
 1006d04:	10c00017 	ldw	r3,0(r2)
 1006d08:	e0bff417 	ldw	r2,-48(fp)
 1006d0c:	1884d83a 	srl	r2,r3,r2
 1006d10:	e0bf6015 	stw	r2,-640(fp)
 1006d14:	e0fff117 	ldw	r3,-60(fp)
 1006d18:	e0bff417 	ldw	r2,-48(fp)
 1006d1c:	1885883a 	add	r2,r3,r2
 1006d20:	10800850 	cmplti	r2,r2,33
 1006d24:	1000161e 	bne	r2,zero,1006d80 <sdhc_decode_csd+0x23e0>
 1006d28:	e0bff317 	ldw	r2,-52(fp)
 1006d2c:	1085883a 	add	r2,r2,r2
 1006d30:	1085883a 	add	r2,r2,r2
 1006d34:	10bfff04 	addi	r2,r2,-4
 1006d38:	e0ffff17 	ldw	r3,-4(fp)
 1006d3c:	1885883a 	add	r2,r3,r2
 1006d40:	10c00017 	ldw	r3,0(r2)
 1006d44:	01000804 	movi	r4,32
 1006d48:	e0bff417 	ldw	r2,-48(fp)
 1006d4c:	2089c83a 	sub	r4,r4,r2
 1006d50:	00a00034 	movhi	r2,32768
 1006d54:	108007c4 	addi	r2,r2,31
 1006d58:	2084703a 	and	r2,r4,r2
 1006d5c:	1000040e 	bge	r2,zero,1006d70 <sdhc_decode_csd+0x23d0>
 1006d60:	10bfffc4 	addi	r2,r2,-1
 1006d64:	013ff804 	movi	r4,-32
 1006d68:	1104b03a 	or	r2,r2,r4
 1006d6c:	10800044 	addi	r2,r2,1
 1006d70:	1884983a 	sll	r2,r3,r2
 1006d74:	e0ff6017 	ldw	r3,-640(fp)
 1006d78:	1884b03a 	or	r2,r3,r2
 1006d7c:	e0bf6015 	stw	r2,-640(fp)
 1006d80:	e0ff6017 	ldw	r3,-640(fp)
 1006d84:	e0bff217 	ldw	r2,-56(fp)
 1006d88:	1884703a 	and	r2,r3,r2
 1006d8c:	e0bf7915 	stw	r2,-540(fp)
 1006d90:	00804074 	movhi	r2,257
 1006d94:	1088f504 	addi	r2,r2,9172
 1006d98:	e0ff7917 	ldw	r3,-540(fp)
 1006d9c:	18c7883a 	add	r3,r3,r3
 1006da0:	18c7883a 	add	r3,r3,r3
 1006da4:	10c5883a 	add	r2,r2,r3
 1006da8:	10c00017 	ldw	r3,0(r2)
 1006dac:	00804074 	movhi	r2,257
 1006db0:	1088fd04 	addi	r2,r2,9204
 1006db4:	e13f7417 	ldw	r4,-560(fp)
 1006db8:	1105883a 	add	r2,r2,r4
 1006dbc:	10800003 	ldbu	r2,0(r2)
 1006dc0:	10803fcc 	andi	r2,r2,255
 1006dc4:	1887383a 	mul	r3,r3,r2
 1006dc8:	e0bffe17 	ldw	r2,-8(fp)
 1006dcc:	10c00415 	stw	r3,16(r2)
 1006dd0:	00800304 	movi	r2,12
 1006dd4:	e0bff515 	stw	r2,-44(fp)
 1006dd8:	e0bff517 	ldw	r2,-44(fp)
 1006ddc:	10800808 	cmpgei	r2,r2,32
 1006de0:	1000051e 	bne	r2,zero,1006df8 <sdhc_decode_csd+0x2458>
 1006de4:	00c00044 	movi	r3,1
 1006de8:	e0bff517 	ldw	r2,-44(fp)
 1006dec:	1884983a 	sll	r2,r3,r2
 1006df0:	10bfffc4 	addi	r2,r2,-1
 1006df4:	00000106 	br	1006dfc <sdhc_decode_csd+0x245c>
 1006df8:	00bfffc4 	movi	r2,-1
 1006dfc:	e0bff615 	stw	r2,-40(fp)
 1006e00:	00800044 	movi	r2,1
 1006e04:	e0bff715 	stw	r2,-36(fp)
 1006e08:	00800504 	movi	r2,20
 1006e0c:	e0bff815 	stw	r2,-32(fp)
 1006e10:	e0bff717 	ldw	r2,-36(fp)
 1006e14:	1085883a 	add	r2,r2,r2
 1006e18:	1085883a 	add	r2,r2,r2
 1006e1c:	1007883a 	mov	r3,r2
 1006e20:	e0bfff17 	ldw	r2,-4(fp)
 1006e24:	10c5883a 	add	r2,r2,r3
 1006e28:	10c00017 	ldw	r3,0(r2)
 1006e2c:	e0bff817 	ldw	r2,-32(fp)
 1006e30:	1884d83a 	srl	r2,r3,r2
 1006e34:	e0bf6115 	stw	r2,-636(fp)
 1006e38:	e0fff517 	ldw	r3,-44(fp)
 1006e3c:	e0bff817 	ldw	r2,-32(fp)
 1006e40:	1885883a 	add	r2,r3,r2
 1006e44:	10800850 	cmplti	r2,r2,33
 1006e48:	1000161e 	bne	r2,zero,1006ea4 <sdhc_decode_csd+0x2504>
 1006e4c:	e0bff717 	ldw	r2,-36(fp)
 1006e50:	1085883a 	add	r2,r2,r2
 1006e54:	1085883a 	add	r2,r2,r2
 1006e58:	10bfff04 	addi	r2,r2,-4
 1006e5c:	e0ffff17 	ldw	r3,-4(fp)
 1006e60:	1885883a 	add	r2,r3,r2
 1006e64:	10c00017 	ldw	r3,0(r2)
 1006e68:	01000804 	movi	r4,32
 1006e6c:	e0bff817 	ldw	r2,-32(fp)
 1006e70:	2089c83a 	sub	r4,r4,r2
 1006e74:	00a00034 	movhi	r2,32768
 1006e78:	108007c4 	addi	r2,r2,31
 1006e7c:	2084703a 	and	r2,r4,r2
 1006e80:	1000040e 	bge	r2,zero,1006e94 <sdhc_decode_csd+0x24f4>
 1006e84:	10bfffc4 	addi	r2,r2,-1
 1006e88:	013ff804 	movi	r4,-32
 1006e8c:	1104b03a 	or	r2,r2,r4
 1006e90:	10800044 	addi	r2,r2,1
 1006e94:	1884983a 	sll	r2,r3,r2
 1006e98:	e0ff6117 	ldw	r3,-636(fp)
 1006e9c:	1884b03a 	or	r2,r3,r2
 1006ea0:	e0bf6115 	stw	r2,-636(fp)
 1006ea4:	e0ff6117 	ldw	r3,-636(fp)
 1006ea8:	e0bff617 	ldw	r2,-40(fp)
 1006eac:	1884703a 	and	r2,r3,r2
 1006eb0:	1007883a 	mov	r3,r2
 1006eb4:	e0bffe17 	ldw	r2,-8(fp)
 1006eb8:	10c0008d 	sth	r3,2(r2)
 1006ebc:	00800584 	movi	r2,22
 1006ec0:	e0bff915 	stw	r2,-28(fp)
 1006ec4:	e0bff917 	ldw	r2,-28(fp)
 1006ec8:	10800808 	cmpgei	r2,r2,32
 1006ecc:	1000051e 	bne	r2,zero,1006ee4 <sdhc_decode_csd+0x2544>
 1006ed0:	00c00044 	movi	r3,1
 1006ed4:	e0bff917 	ldw	r2,-28(fp)
 1006ed8:	1884983a 	sll	r2,r3,r2
 1006edc:	10bfffc4 	addi	r2,r2,-1
 1006ee0:	00000106 	br	1006ee8 <sdhc_decode_csd+0x2548>
 1006ee4:	00bfffc4 	movi	r2,-1
 1006ee8:	e0bffa15 	stw	r2,-24(fp)
 1006eec:	00800084 	movi	r2,2
 1006ef0:	e0bffb15 	stw	r2,-20(fp)
 1006ef4:	00800404 	movi	r2,16
 1006ef8:	e0bffc15 	stw	r2,-16(fp)
 1006efc:	e0bffb17 	ldw	r2,-20(fp)
 1006f00:	1085883a 	add	r2,r2,r2
 1006f04:	1085883a 	add	r2,r2,r2
 1006f08:	1007883a 	mov	r3,r2
 1006f0c:	e0bfff17 	ldw	r2,-4(fp)
 1006f10:	10c5883a 	add	r2,r2,r3
 1006f14:	10c00017 	ldw	r3,0(r2)
 1006f18:	e0bffc17 	ldw	r2,-16(fp)
 1006f1c:	1884d83a 	srl	r2,r3,r2
 1006f20:	e0bf6215 	stw	r2,-632(fp)
 1006f24:	e0fff917 	ldw	r3,-28(fp)
 1006f28:	e0bffc17 	ldw	r2,-16(fp)
 1006f2c:	1885883a 	add	r2,r3,r2
 1006f30:	10800850 	cmplti	r2,r2,33
 1006f34:	1000161e 	bne	r2,zero,1006f90 <sdhc_decode_csd+0x25f0>
 1006f38:	e0bffb17 	ldw	r2,-20(fp)
 1006f3c:	1085883a 	add	r2,r2,r2
 1006f40:	1085883a 	add	r2,r2,r2
 1006f44:	10bfff04 	addi	r2,r2,-4
 1006f48:	e0ffff17 	ldw	r3,-4(fp)
 1006f4c:	1885883a 	add	r2,r3,r2
 1006f50:	10c00017 	ldw	r3,0(r2)
 1006f54:	01000804 	movi	r4,32
 1006f58:	e0bffc17 	ldw	r2,-16(fp)
 1006f5c:	2089c83a 	sub	r4,r4,r2
 1006f60:	00a00034 	movhi	r2,32768
 1006f64:	108007c4 	addi	r2,r2,31
 1006f68:	2084703a 	and	r2,r4,r2
 1006f6c:	1000040e 	bge	r2,zero,1006f80 <sdhc_decode_csd+0x25e0>
 1006f70:	10bfffc4 	addi	r2,r2,-1
 1006f74:	013ff804 	movi	r4,-32
 1006f78:	1104b03a 	or	r2,r2,r4
 1006f7c:	10800044 	addi	r2,r2,1
 1006f80:	1884983a 	sll	r2,r3,r2
 1006f84:	e0ff6217 	ldw	r3,-632(fp)
 1006f88:	1884b03a 	or	r2,r3,r2
 1006f8c:	e0bf6215 	stw	r2,-632(fp)
 1006f90:	e0ff6217 	ldw	r3,-632(fp)
 1006f94:	e0bffa17 	ldw	r2,-24(fp)
 1006f98:	1884703a 	and	r2,r3,r2
 1006f9c:	e0bf7415 	stw	r2,-560(fp)
 1006fa0:	e0bf7417 	ldw	r2,-560(fp)
 1006fa4:	10800044 	addi	r2,r2,1
 1006fa8:	100692ba 	slli	r3,r2,10
 1006fac:	e0bffe17 	ldw	r2,-8(fp)
 1006fb0:	10c00715 	stw	r3,28(r2)
 1006fb4:	e0bffe17 	ldw	r2,-8(fp)
 1006fb8:	00c00244 	movi	r3,9
 1006fbc:	10c00515 	stw	r3,20(r2)
 1006fc0:	e0bffe17 	ldw	r2,-8(fp)
 1006fc4:	11000803 	ldbu	r4,32(r2)
 1006fc8:	00ffff84 	movi	r3,-2
 1006fcc:	20c6703a 	and	r3,r4,r3
 1006fd0:	10c00805 	stb	r3,32(r2)
 1006fd4:	e0bffe17 	ldw	r2,-8(fp)
 1006fd8:	11000803 	ldbu	r4,32(r2)
 1006fdc:	00fffdc4 	movi	r3,-9
 1006fe0:	20c6703a 	and	r3,r4,r3
 1006fe4:	10c00805 	stb	r3,32(r2)
 1006fe8:	e0bffe17 	ldw	r2,-8(fp)
 1006fec:	11000803 	ldbu	r4,32(r2)
 1006ff0:	00ffff44 	movi	r3,-3
 1006ff4:	20c6703a 	and	r3,r4,r3
 1006ff8:	10c00805 	stb	r3,32(r2)
 1006ffc:	e0bffe17 	ldw	r2,-8(fp)
 1007000:	00c00104 	movi	r3,4
 1007004:	10c00315 	stw	r3,12(r2)
 1007008:	e0bffe17 	ldw	r2,-8(fp)
 100700c:	00c00244 	movi	r3,9
 1007010:	10c00615 	stw	r3,24(r2)
 1007014:	e0bffe17 	ldw	r2,-8(fp)
 1007018:	11000803 	ldbu	r4,32(r2)
 100701c:	00fffec4 	movi	r3,-5
 1007020:	20c6703a 	and	r3,r4,r3
 1007024:	10c00805 	stb	r3,32(r2)
 1007028:	00000806 	br	100704c <sdhc_decode_csd+0x26ac>
 100702c:	d0a00117 	ldw	r2,-32764(gp)
 1007030:	1000041e 	bne	r2,zero,1007044 <sdhc_decode_csd+0x26a4>
 1007034:	01004074 	movhi	r4,257
 1007038:	21099904 	addi	r4,r4,9828
 100703c:	e17f6717 	ldw	r5,-612(fp)
 1007040:	1010a380 	call	1010a38 <printf>
 1007044:	00bffc44 	movi	r2,-15
 1007048:	00004206 	br	1007154 <sdhc_decode_csd+0x27b4>
 100704c:	e0bffe17 	ldw	r2,-8(fp)
 1007050:	10800717 	ldw	r2,28(r2)
 1007054:	e0bf9315 	stw	r2,-436(fp)
 1007058:	d0a00117 	ldw	r2,-32764(gp)
 100705c:	1000061e 	bne	r2,zero,1007078 <sdhc_decode_csd+0x26d8>
 1007060:	e0bffe17 	ldw	r2,-8(fp)
 1007064:	10800717 	ldw	r2,28(r2)
 1007068:	01004074 	movhi	r4,257
 100706c:	2109a504 	addi	r4,r4,9876
 1007070:	100b883a 	mov	r5,r2
 1007074:	1010a380 	call	1010a38 <printf>
 1007078:	e0bffe17 	ldw	r2,-8(fp)
 100707c:	10800717 	ldw	r2,28(r2)
 1007080:	e0fffe17 	ldw	r3,-8(fp)
 1007084:	18c00517 	ldw	r3,20(r3)
 1007088:	10c6983a 	sll	r3,r2,r3
 100708c:	e0bffe17 	ldw	r2,-8(fp)
 1007090:	10c00715 	stw	r3,28(r2)
 1007094:	e0bffe17 	ldw	r2,-8(fp)
 1007098:	10800717 	ldw	r2,28(r2)
 100709c:	1009883a 	mov	r4,r2
 10070a0:	10107300 	call	1010730 <__floatunsisf>
 10070a4:	1007883a 	mov	r3,r2
 10070a8:	e0ffb015 	stw	r3,-320(fp)
 10070ac:	e13fb017 	ldw	r4,-320(fp)
 10070b0:	0153a034 	movhi	r5,20096
 10070b4:	100fcb40 	call	100fcb4 <__divsf3>
 10070b8:	1007883a 	mov	r3,r2
 10070bc:	e0ffb015 	stw	r3,-320(fp)
 10070c0:	d0a00117 	ldw	r2,-32764(gp)
 10070c4:	1000091e 	bne	r2,zero,10070ec <sdhc_decode_csd+0x274c>
 10070c8:	e0bffe17 	ldw	r2,-8(fp)
 10070cc:	10800517 	ldw	r2,20(r2)
 10070d0:	1007883a 	mov	r3,r2
 10070d4:	00800044 	movi	r2,1
 10070d8:	10c4983a 	sll	r2,r2,r3
 10070dc:	01004074 	movhi	r4,257
 10070e0:	2109ac04 	addi	r4,r4,9904
 10070e4:	100b883a 	mov	r5,r2
 10070e8:	1010a380 	call	1010a38 <printf>
 10070ec:	d0a00117 	ldw	r2,-32764(gp)
 10070f0:	1000091e 	bne	r2,zero,1007118 <sdhc_decode_csd+0x2778>
 10070f4:	e0bffe17 	ldw	r2,-8(fp)
 10070f8:	10800617 	ldw	r2,24(r2)
 10070fc:	1007883a 	mov	r3,r2
 1007100:	00800044 	movi	r2,1
 1007104:	10c4983a 	sll	r2,r2,r3
 1007108:	01004074 	movhi	r4,257
 100710c:	2109b404 	addi	r4,r4,9936
 1007110:	100b883a 	mov	r5,r2
 1007114:	1010a380 	call	1010a38 <printf>
 1007118:	d0a00117 	ldw	r2,-32764(gp)
 100711c:	1000091e 	bne	r2,zero,1007144 <sdhc_decode_csd+0x27a4>
 1007120:	e13fb017 	ldw	r4,-320(fp)
 1007124:	10108400 	call	1010840 <__extendsfdf2>
 1007128:	100d883a 	mov	r6,r2
 100712c:	180f883a 	mov	r7,r3
 1007130:	01004074 	movhi	r4,257
 1007134:	2109bc04 	addi	r4,r4,9968
 1007138:	300b883a 	mov	r5,r6
 100713c:	380d883a 	mov	r6,r7
 1007140:	1010a380 	call	1010a38 <printf>
 1007144:	e0bffe17 	ldw	r2,-8(fp)
 1007148:	e0ff9317 	ldw	r3,-436(fp)
 100714c:	10c00715 	stw	r3,28(r2)
 1007150:	0005883a 	mov	r2,zero
 1007154:	e037883a 	mov	sp,fp
 1007158:	dfc00117 	ldw	ra,4(sp)
 100715c:	df000017 	ldw	fp,0(sp)
 1007160:	dec00204 	addi	sp,sp,8
 1007164:	f800283a 	ret

01007168 <emmc_decode_ext_csd>:
 1007168:	defff904 	addi	sp,sp,-28
 100716c:	dfc00615 	stw	ra,24(sp)
 1007170:	df000515 	stw	fp,20(sp)
 1007174:	df000504 	addi	fp,sp,20
 1007178:	e13ffd15 	stw	r4,-12(fp)
 100717c:	e17ffe15 	stw	r5,-8(fp)
 1007180:	e1bfff15 	stw	r6,-4(fp)
 1007184:	e03ffb15 	stw	zero,-20(fp)
 1007188:	e03ffc15 	stw	zero,-16(fp)
 100718c:	e0bfff17 	ldw	r2,-4(fp)
 1007190:	10c03003 	ldbu	r3,192(r2)
 1007194:	e0bffd17 	ldw	r2,-12(fp)
 1007198:	10c02b45 	stb	r3,173(r2)
 100719c:	e0bffe17 	ldw	r2,-8(fp)
 10071a0:	10800717 	ldw	r2,28(r2)
 10071a4:	1083ffd8 	cmpnei	r2,r2,4095
 10071a8:	1000371e 	bne	r2,zero,1007288 <emmc_decode_ext_csd+0x120>
 10071ac:	e0bfff17 	ldw	r2,-4(fp)
 10071b0:	108035c4 	addi	r2,r2,215
 10071b4:	10800003 	ldbu	r2,0(r2)
 10071b8:	10803fcc 	andi	r2,r2,255
 10071bc:	1006963a 	slli	r3,r2,24
 10071c0:	e0bfff17 	ldw	r2,-4(fp)
 10071c4:	10803584 	addi	r2,r2,214
 10071c8:	10800003 	ldbu	r2,0(r2)
 10071cc:	10803fcc 	andi	r2,r2,255
 10071d0:	1004943a 	slli	r2,r2,16
 10071d4:	1886b03a 	or	r3,r3,r2
 10071d8:	e0bfff17 	ldw	r2,-4(fp)
 10071dc:	10803544 	addi	r2,r2,213
 10071e0:	10800003 	ldbu	r2,0(r2)
 10071e4:	10803fcc 	andi	r2,r2,255
 10071e8:	1004923a 	slli	r2,r2,8
 10071ec:	1886b03a 	or	r3,r3,r2
 10071f0:	e0bfff17 	ldw	r2,-4(fp)
 10071f4:	10803504 	addi	r2,r2,212
 10071f8:	10800003 	ldbu	r2,0(r2)
 10071fc:	10803fcc 	andi	r2,r2,255
 1007200:	1884b03a 	or	r2,r3,r2
 1007204:	e0bffb15 	stw	r2,-20(fp)
 1007208:	d0a00117 	ldw	r2,-32764(gp)
 100720c:	1000041e 	bne	r2,zero,1007220 <emmc_decode_ext_csd+0xb8>
 1007210:	01004074 	movhi	r4,257
 1007214:	2109c404 	addi	r4,r4,10000
 1007218:	e17ffb17 	ldw	r5,-20(fp)
 100721c:	1010a380 	call	1010a38 <printf>
 1007220:	e0bffb17 	ldw	r2,-20(fp)
 1007224:	1006927a 	slli	r3,r2,9
 1007228:	e0bffe17 	ldw	r2,-8(fp)
 100722c:	10c00715 	stw	r3,28(r2)
 1007230:	e0bffe17 	ldw	r2,-8(fp)
 1007234:	10800717 	ldw	r2,28(r2)
 1007238:	1009883a 	mov	r4,r2
 100723c:	10107300 	call	1010730 <__floatunsisf>
 1007240:	1007883a 	mov	r3,r2
 1007244:	e0fffc15 	stw	r3,-16(fp)
 1007248:	e13ffc17 	ldw	r4,-16(fp)
 100724c:	0153a034 	movhi	r5,20096
 1007250:	100fcb40 	call	100fcb4 <__divsf3>
 1007254:	1007883a 	mov	r3,r2
 1007258:	e0fffc15 	stw	r3,-16(fp)
 100725c:	d0a00117 	ldw	r2,-32764(gp)
 1007260:	1000091e 	bne	r2,zero,1007288 <emmc_decode_ext_csd+0x120>
 1007264:	e13ffc17 	ldw	r4,-16(fp)
 1007268:	10108400 	call	1010840 <__extendsfdf2>
 100726c:	100d883a 	mov	r6,r2
 1007270:	180f883a 	mov	r7,r3
 1007274:	01004074 	movhi	r4,257
 1007278:	2109bc04 	addi	r4,r4,9968
 100727c:	300b883a 	mov	r5,r6
 1007280:	380d883a 	mov	r6,r7
 1007284:	1010a380 	call	1010a38 <printf>
 1007288:	0005883a 	mov	r2,zero
 100728c:	e037883a 	mov	sp,fp
 1007290:	dfc00117 	ldw	ra,4(sp)
 1007294:	df000017 	ldw	fp,0(sp)
 1007298:	dec00204 	addi	sp,sp,8
 100729c:	f800283a 	ret

010072a0 <sdhc_set_high_speed_mode>:
 10072a0:	deffe804 	addi	sp,sp,-96
 10072a4:	dfc01715 	stw	ra,92(sp)
 10072a8:	df001615 	stw	fp,88(sp)
 10072ac:	df001604 	addi	fp,sp,88
 10072b0:	e13fff15 	stw	r4,-4(fp)
 10072b4:	e0ffef04 	addi	r3,fp,-68
 10072b8:	00801004 	movi	r2,64
 10072bc:	1809883a 	mov	r4,r3
 10072c0:	000b883a 	mov	r5,zero
 10072c4:	100d883a 	mov	r6,r2
 10072c8:	10109dc0 	call	10109dc <memset>
 10072cc:	00bfffc4 	movi	r2,-1
 10072d0:	e0bfef05 	stb	r2,-68(fp)
 10072d4:	e03fee15 	stw	zero,-72(fp)
 10072d8:	e0bfff17 	ldw	r2,-4(fp)
 10072dc:	10800217 	ldw	r2,8(r2)
 10072e0:	1000021e 	bne	r2,zero,10072ec <sdhc_set_high_speed_mode+0x4c>
 10072e4:	00bffd84 	movi	r2,-10
 10072e8:	0000f606 	br	10076c4 <sdhc_set_high_speed_mode+0x424>
 10072ec:	e0bfff17 	ldw	r2,-4(fp)
 10072f0:	10802617 	ldw	r2,152(r2)
 10072f4:	108000d8 	cmpnei	r2,r2,3
 10072f8:	10002b1e 	bne	r2,zero,10073a8 <sdhc_set_high_speed_mode+0x108>
 10072fc:	e0bfff17 	ldw	r2,-4(fp)
 1007300:	10801703 	ldbu	r2,92(r2)
 1007304:	10803fcc 	andi	r2,r2,255
 1007308:	10800118 	cmpnei	r2,r2,4
 100730c:	1000201e 	bne	r2,zero,1007390 <sdhc_set_high_speed_mode+0xf0>
 1007310:	d8000015 	stw	zero,0(sp)
 1007314:	d8000115 	stw	zero,4(sp)
 1007318:	e13fff17 	ldw	r4,-4(fp)
 100731c:	0140ee74 	movhi	r5,953
 1007320:	29404004 	addi	r5,r5,256
 1007324:	018000c4 	movi	r6,3
 1007328:	01c00184 	movi	r7,6
 100732c:	10021bc0 	call	10021bc <sdhc_send_command>
 1007330:	1000030e 	bge	r2,zero,1007340 <sdhc_set_high_speed_mode+0xa0>
 1007334:	00bffd84 	movi	r2,-10
 1007338:	e0bfee15 	stw	r2,-72(fp)
 100733c:	00001206 	br	1007388 <sdhc_set_high_speed_mode+0xe8>
 1007340:	e0bfff17 	ldw	r2,-4(fp)
 1007344:	10802ac3 	ldbu	r2,171(r2)
 1007348:	10803fcc 	andi	r2,r2,255
 100734c:	1000051e 	bne	r2,zero,1007364 <sdhc_set_high_speed_mode+0xc4>
 1007350:	e13fff17 	ldw	r4,-4(fp)
 1007354:	01406374 	movhi	r5,397
 1007358:	296ea004 	addi	r5,r5,-17792
 100735c:	1001f800 	call	1001f80 <sdhc_set_freq>
 1007360:	00000406 	br	1007374 <sdhc_set_high_speed_mode+0xd4>
 1007364:	e13fff17 	ldw	r4,-4(fp)
 1007368:	0140c674 	movhi	r5,793
 100736c:	295d4004 	addi	r5,r5,29952
 1007370:	1001f800 	call	1001f80 <sdhc_set_freq>
 1007374:	d0a00117 	ldw	r2,-32764(gp)
 1007378:	1000031e 	bne	r2,zero,1007388 <sdhc_set_high_speed_mode+0xe8>
 100737c:	01004074 	movhi	r4,257
 1007380:	2109cb04 	addi	r4,r4,10028
 1007384:	1010b240 	call	1010b24 <puts>
 1007388:	e0bfee17 	ldw	r2,-72(fp)
 100738c:	0000cd06 	br	10076c4 <sdhc_set_high_speed_mode+0x424>
 1007390:	e13fff17 	ldw	r4,-4(fp)
 1007394:	014001b4 	movhi	r5,6
 1007398:	2946a004 	addi	r5,r5,6784
 100739c:	1001f800 	call	1001f80 <sdhc_set_freq>
 10073a0:	e0bfee17 	ldw	r2,-72(fp)
 10073a4:	0000c706 	br	10076c4 <sdhc_set_high_speed_mode+0x424>
 10073a8:	00804034 	movhi	r2,256
 10073ac:	10bfc044 	addi	r2,r2,-255
 10073b0:	e0bfed15 	stw	r2,-76(fp)
 10073b4:	00801004 	movi	r2,64
 10073b8:	d8800015 	stw	r2,0(sp)
 10073bc:	00800044 	movi	r2,1
 10073c0:	d8800115 	stw	r2,4(sp)
 10073c4:	e0bfef04 	addi	r2,fp,-68
 10073c8:	d8800215 	stw	r2,8(sp)
 10073cc:	e13fff17 	ldw	r4,-4(fp)
 10073d0:	e17fed17 	ldw	r5,-76(fp)
 10073d4:	01800184 	movi	r6,6
 10073d8:	01c00044 	movi	r7,1
 10073dc:	10026f40 	call	10026f4 <sdhc_sdio_read>
 10073e0:	10001626 	beq	r2,zero,100743c <sdhc_set_high_speed_mode+0x19c>
 10073e4:	00801004 	movi	r2,64
 10073e8:	d8800015 	stw	r2,0(sp)
 10073ec:	00800044 	movi	r2,1
 10073f0:	d8800115 	stw	r2,4(sp)
 10073f4:	e0bfef04 	addi	r2,fp,-68
 10073f8:	d8800215 	stw	r2,8(sp)
 10073fc:	e13fff17 	ldw	r4,-4(fp)
 1007400:	e17fed17 	ldw	r5,-76(fp)
 1007404:	01800184 	movi	r6,6
 1007408:	01c00044 	movi	r7,1
 100740c:	10026f40 	call	10026f4 <sdhc_sdio_read>
 1007410:	10000926 	beq	r2,zero,1007438 <sdhc_set_high_speed_mode+0x198>
 1007414:	d0a00117 	ldw	r2,-32764(gp)
 1007418:	108000a8 	cmpgeui	r2,r2,2
 100741c:	1000031e 	bne	r2,zero,100742c <sdhc_set_high_speed_mode+0x18c>
 1007420:	01004074 	movhi	r4,257
 1007424:	2109d104 	addi	r4,r4,10052
 1007428:	1010b240 	call	1010b24 <puts>
 100742c:	00bffd84 	movi	r2,-10
 1007430:	e0bfee15 	stw	r2,-72(fp)
 1007434:	00009e06 	br	10076b0 <sdhc_set_high_speed_mode+0x410>
 1007438:	0001883a 	nop
 100743c:	d0a00117 	ldw	r2,-32764(gp)
 1007440:	1000031e 	bne	r2,zero,1007450 <sdhc_set_high_speed_mode+0x1b0>
 1007444:	01004074 	movhi	r4,257
 1007448:	2109d804 	addi	r4,r4,10080
 100744c:	1010b240 	call	1010b24 <puts>
 1007450:	e0bff243 	ldbu	r2,-55(fp)
 1007454:	1080004c 	andi	r2,r2,1
 1007458:	1007883a 	mov	r3,r2
 100745c:	e0bfff17 	ldw	r2,-4(fp)
 1007460:	10c02905 	stb	r3,164(r2)
 1007464:	e0bff243 	ldbu	r2,-55(fp)
 1007468:	10803fcc 	andi	r2,r2,255
 100746c:	1080008c 	andi	r2,r2,2
 1007470:	1005d07a 	srai	r2,r2,1
 1007474:	1007883a 	mov	r3,r2
 1007478:	e0bfff17 	ldw	r2,-4(fp)
 100747c:	10c02945 	stb	r3,165(r2)
 1007480:	e0bff243 	ldbu	r2,-55(fp)
 1007484:	10803fcc 	andi	r2,r2,255
 1007488:	1080010c 	andi	r2,r2,4
 100748c:	1005d0ba 	srai	r2,r2,2
 1007490:	1007883a 	mov	r3,r2
 1007494:	e0bfff17 	ldw	r2,-4(fp)
 1007498:	10c02985 	stb	r3,166(r2)
 100749c:	e0bff243 	ldbu	r2,-55(fp)
 10074a0:	10803fcc 	andi	r2,r2,255
 10074a4:	1080020c 	andi	r2,r2,8
 10074a8:	1005d0fa 	srai	r2,r2,3
 10074ac:	1007883a 	mov	r3,r2
 10074b0:	e0bfff17 	ldw	r2,-4(fp)
 10074b4:	10c029c5 	stb	r3,167(r2)
 10074b8:	e0bff243 	ldbu	r2,-55(fp)
 10074bc:	10803fcc 	andi	r2,r2,255
 10074c0:	1080040c 	andi	r2,r2,16
 10074c4:	1005d13a 	srai	r2,r2,4
 10074c8:	1007883a 	mov	r3,r2
 10074cc:	e0bfff17 	ldw	r2,-4(fp)
 10074d0:	10c02a05 	stb	r3,168(r2)
 10074d4:	d0a00117 	ldw	r2,-32764(gp)
 10074d8:	1000071e 	bne	r2,zero,10074f8 <sdhc_set_high_speed_mode+0x258>
 10074dc:	e0bfff17 	ldw	r2,-4(fp)
 10074e0:	10802903 	ldbu	r2,164(r2)
 10074e4:	10803fcc 	andi	r2,r2,255
 10074e8:	01004074 	movhi	r4,257
 10074ec:	2109dd04 	addi	r4,r4,10100
 10074f0:	100b883a 	mov	r5,r2
 10074f4:	1010a380 	call	1010a38 <printf>
 10074f8:	d0a00117 	ldw	r2,-32764(gp)
 10074fc:	1000071e 	bne	r2,zero,100751c <sdhc_set_high_speed_mode+0x27c>
 1007500:	e0bfff17 	ldw	r2,-4(fp)
 1007504:	10802943 	ldbu	r2,165(r2)
 1007508:	10803fcc 	andi	r2,r2,255
 100750c:	01004074 	movhi	r4,257
 1007510:	2109e104 	addi	r4,r4,10116
 1007514:	100b883a 	mov	r5,r2
 1007518:	1010a380 	call	1010a38 <printf>
 100751c:	d0a00117 	ldw	r2,-32764(gp)
 1007520:	1000071e 	bne	r2,zero,1007540 <sdhc_set_high_speed_mode+0x2a0>
 1007524:	e0bfff17 	ldw	r2,-4(fp)
 1007528:	10802a03 	ldbu	r2,168(r2)
 100752c:	10803fcc 	andi	r2,r2,255
 1007530:	01004074 	movhi	r4,257
 1007534:	2109e504 	addi	r4,r4,10132
 1007538:	100b883a 	mov	r5,r2
 100753c:	1010a380 	call	1010a38 <printf>
 1007540:	e0bff343 	ldbu	r2,-51(fp)
 1007544:	10803fcc 	andi	r2,r2,255
 1007548:	108003cc 	andi	r2,r2,15
 100754c:	108003e0 	cmpeqi	r2,r2,15
 1007550:	1000061e 	bne	r2,zero,100756c <sdhc_set_high_speed_mode+0x2cc>
 1007554:	e0bfef03 	ldbu	r2,-68(fp)
 1007558:	10803fcc 	andi	r2,r2,255
 100755c:	10000a1e 	bne	r2,zero,1007588 <sdhc_set_high_speed_mode+0x2e8>
 1007560:	e0bfef43 	ldbu	r2,-67(fp)
 1007564:	10803fcc 	andi	r2,r2,255
 1007568:	1000071e 	bne	r2,zero,1007588 <sdhc_set_high_speed_mode+0x2e8>
 100756c:	d0a00117 	ldw	r2,-32764(gp)
 1007570:	1000041e 	bne	r2,zero,1007584 <sdhc_set_high_speed_mode+0x2e4>
 1007574:	01004074 	movhi	r4,257
 1007578:	2109e904 	addi	r4,r4,10148
 100757c:	1010b240 	call	1010b24 <puts>
 1007580:	00004b06 	br	10076b0 <sdhc_set_high_speed_mode+0x410>
 1007584:	00004a06 	br	10076b0 <sdhc_set_high_speed_mode+0x410>
 1007588:	d0a00117 	ldw	r2,-32764(gp)
 100758c:	1000031e 	bne	r2,zero,100759c <sdhc_set_high_speed_mode+0x2fc>
 1007590:	01004074 	movhi	r4,257
 1007594:	2109f304 	addi	r4,r4,10188
 1007598:	1010b240 	call	1010b24 <puts>
 100759c:	e0bfff17 	ldw	r2,-4(fp)
 10075a0:	10802a03 	ldbu	r2,168(r2)
 10075a4:	10803fcc 	andi	r2,r2,255
 10075a8:	10000426 	beq	r2,zero,10075bc <sdhc_set_high_speed_mode+0x31c>
 10075ac:	00804034 	movhi	r2,256
 10075b0:	10bfc104 	addi	r2,r2,-252
 10075b4:	e0bfed15 	stw	r2,-76(fp)
 10075b8:	00000306 	br	10075c8 <sdhc_set_high_speed_mode+0x328>
 10075bc:	00804034 	movhi	r2,256
 10075c0:	10bfc044 	addi	r2,r2,-255
 10075c4:	e0bfed15 	stw	r2,-76(fp)
 10075c8:	e0bfed17 	ldw	r2,-76(fp)
 10075cc:	10e00034 	orhi	r3,r2,32768
 10075d0:	00801004 	movi	r2,64
 10075d4:	d8800015 	stw	r2,0(sp)
 10075d8:	00800044 	movi	r2,1
 10075dc:	d8800115 	stw	r2,4(sp)
 10075e0:	e0bfef04 	addi	r2,fp,-68
 10075e4:	d8800215 	stw	r2,8(sp)
 10075e8:	e13fff17 	ldw	r4,-4(fp)
 10075ec:	180b883a 	mov	r5,r3
 10075f0:	01800184 	movi	r6,6
 10075f4:	01c00044 	movi	r7,1
 10075f8:	10026f40 	call	10026f4 <sdhc_sdio_read>
 10075fc:	10000926 	beq	r2,zero,1007624 <sdhc_set_high_speed_mode+0x384>
 1007600:	d0a00117 	ldw	r2,-32764(gp)
 1007604:	108000a8 	cmpgeui	r2,r2,2
 1007608:	1000031e 	bne	r2,zero,1007618 <sdhc_set_high_speed_mode+0x378>
 100760c:	01004074 	movhi	r4,257
 1007610:	2109d104 	addi	r4,r4,10052
 1007614:	1010b240 	call	1010b24 <puts>
 1007618:	00bffd84 	movi	r2,-10
 100761c:	e0bfee15 	stw	r2,-72(fp)
 1007620:	00002306 	br	10076b0 <sdhc_set_high_speed_mode+0x410>
 1007624:	e0bff343 	ldbu	r2,-51(fp)
 1007628:	10803fcc 	andi	r2,r2,255
 100762c:	108003cc 	andi	r2,r2,15
 1007630:	108003e0 	cmpeqi	r2,r2,15
 1007634:	1000061e 	bne	r2,zero,1007650 <sdhc_set_high_speed_mode+0x3b0>
 1007638:	e0bfef03 	ldbu	r2,-68(fp)
 100763c:	10803fcc 	andi	r2,r2,255
 1007640:	10000a1e 	bne	r2,zero,100766c <sdhc_set_high_speed_mode+0x3cc>
 1007644:	e0bfef43 	ldbu	r2,-67(fp)
 1007648:	10803fcc 	andi	r2,r2,255
 100764c:	1000071e 	bne	r2,zero,100766c <sdhc_set_high_speed_mode+0x3cc>
 1007650:	d0a00117 	ldw	r2,-32764(gp)
 1007654:	1000041e 	bne	r2,zero,1007668 <sdhc_set_high_speed_mode+0x3c8>
 1007658:	01004074 	movhi	r4,257
 100765c:	2109fb04 	addi	r4,r4,10220
 1007660:	1010b240 	call	1010b24 <puts>
 1007664:	00001206 	br	10076b0 <sdhc_set_high_speed_mode+0x410>
 1007668:	00001106 	br	10076b0 <sdhc_set_high_speed_mode+0x410>
 100766c:	e0bfff17 	ldw	r2,-4(fp)
 1007670:	10802943 	ldbu	r2,165(r2)
 1007674:	10803fcc 	andi	r2,r2,255
 1007678:	10800058 	cmpnei	r2,r2,1
 100767c:	1000061e 	bne	r2,zero,1007698 <sdhc_set_high_speed_mode+0x3f8>
 1007680:	e13fff17 	ldw	r4,-4(fp)
 1007684:	01405f74 	movhi	r5,381
 1007688:	295e1004 	addi	r5,r5,30784
 100768c:	1001f800 	call	1001f80 <sdhc_set_freq>
 1007690:	e0bfee17 	ldw	r2,-72(fp)
 1007694:	00000b06 	br	10076c4 <sdhc_set_high_speed_mode+0x424>
 1007698:	e13fff17 	ldw	r4,-4(fp)
 100769c:	01405f74 	movhi	r5,381
 10076a0:	295e1004 	addi	r5,r5,30784
 10076a4:	1001f800 	call	1001f80 <sdhc_set_freq>
 10076a8:	e0bfee17 	ldw	r2,-72(fp)
 10076ac:	00000506 	br	10076c4 <sdhc_set_high_speed_mode+0x424>
 10076b0:	e13fff17 	ldw	r4,-4(fp)
 10076b4:	01405f74 	movhi	r5,381
 10076b8:	295e1004 	addi	r5,r5,30784
 10076bc:	1001f800 	call	1001f80 <sdhc_set_freq>
 10076c0:	e0bfee17 	ldw	r2,-72(fp)
 10076c4:	e037883a 	mov	sp,fp
 10076c8:	dfc00117 	ldw	ra,4(sp)
 10076cc:	df000017 	ldw	fp,0(sp)
 10076d0:	dec00204 	addi	sp,sp,8
 10076d4:	f800283a 	ret

010076d8 <sdhc_mode_select>:
 10076d8:	defff704 	addi	sp,sp,-36
 10076dc:	dfc00815 	stw	ra,32(sp)
 10076e0:	df000715 	stw	fp,28(sp)
 10076e4:	df000704 	addi	fp,sp,28
 10076e8:	e13ffe15 	stw	r4,-8(fp)
 10076ec:	2805883a 	mov	r2,r5
 10076f0:	e0bfff05 	stb	r2,-4(fp)
 10076f4:	e03ffb15 	stw	zero,-20(fp)
 10076f8:	e0bffe17 	ldw	r2,-8(fp)
 10076fc:	10802417 	ldw	r2,144(r2)
 1007700:	1009883a 	mov	r4,r2
 1007704:	10107300 	call	1010730 <__floatunsisf>
 1007708:	1007883a 	mov	r3,r2
 100770c:	e0fffc15 	stw	r3,-16(fp)
 1007710:	e0bffe17 	ldw	r2,-8(fp)
 1007714:	10800217 	ldw	r2,8(r2)
 1007718:	1000021e 	bne	r2,zero,1007724 <sdhc_mode_select+0x4c>
 100771c:	00bffd84 	movi	r2,-10
 1007720:	0000cd06 	br	1007a58 <sdhc_mode_select+0x380>
 1007724:	e0bffe17 	ldw	r2,-8(fp)
 1007728:	10802517 	ldw	r2,148(r2)
 100772c:	1085883a 	add	r2,r2,r2
 1007730:	1009883a 	mov	r4,r2
 1007734:	10107300 	call	1010730 <__floatunsisf>
 1007738:	1007883a 	mov	r3,r2
 100773c:	e13ffc17 	ldw	r4,-16(fp)
 1007740:	180b883a 	mov	r5,r3
 1007744:	100fcb40 	call	100fcb4 <__divsf3>
 1007748:	1007883a 	mov	r3,r2
 100774c:	1805883a 	mov	r2,r3
 1007750:	1009883a 	mov	r4,r2
 1007754:	100f6480 	call	100f648 <__fixunssfsi>
 1007758:	e0bffd15 	stw	r2,-12(fp)
 100775c:	e13ffe17 	ldw	r4,-8(fp)
 1007760:	014001b4 	movhi	r5,6
 1007764:	2946a004 	addi	r5,r5,6784
 1007768:	1001f800 	call	1001f80 <sdhc_set_freq>
 100776c:	e0bffe17 	ldw	r2,-8(fp)
 1007770:	10802617 	ldw	r2,152(r2)
 1007774:	108000d8 	cmpnei	r2,r2,3
 1007778:	10006a1e 	bne	r2,zero,1007924 <sdhc_mode_select+0x24c>
 100777c:	e0bfff03 	ldbu	r2,-4(fp)
 1007780:	10800058 	cmpnei	r2,r2,1
 1007784:	1000111e 	bne	r2,zero,10077cc <sdhc_mode_select+0xf4>
 1007788:	d8000015 	stw	zero,0(sp)
 100778c:	d8000115 	stw	zero,4(sp)
 1007790:	e13ffe17 	ldw	r4,-8(fp)
 1007794:	0140edf4 	movhi	r5,951
 1007798:	29404004 	addi	r5,r5,256
 100779c:	018000c4 	movi	r6,3
 10077a0:	01c00184 	movi	r7,6
 10077a4:	10021bc0 	call	10021bc <sdhc_send_command>
 10077a8:	e0bffb15 	stw	r2,-20(fp)
 10077ac:	e0bffe17 	ldw	r2,-8(fp)
 10077b0:	10002a85 	stb	zero,170(r2)
 10077b4:	d0a00117 	ldw	r2,-32764(gp)
 10077b8:	1000471e 	bne	r2,zero,10078d8 <sdhc_mode_select+0x200>
 10077bc:	01004074 	movhi	r4,257
 10077c0:	210a0404 	addi	r4,r4,10256
 10077c4:	1010b240 	call	1010b24 <puts>
 10077c8:	00004306 	br	10078d8 <sdhc_mode_select+0x200>
 10077cc:	e0bfff03 	ldbu	r2,-4(fp)
 10077d0:	10800098 	cmpnei	r2,r2,2
 10077d4:	1000121e 	bne	r2,zero,1007820 <sdhc_mode_select+0x148>
 10077d8:	d8000015 	stw	zero,0(sp)
 10077dc:	d8000115 	stw	zero,4(sp)
 10077e0:	e13ffe17 	ldw	r4,-8(fp)
 10077e4:	0140edf4 	movhi	r5,951
 10077e8:	29408004 	addi	r5,r5,512
 10077ec:	018000c4 	movi	r6,3
 10077f0:	01c00184 	movi	r7,6
 10077f4:	10021bc0 	call	10021bc <sdhc_send_command>
 10077f8:	e0bffb15 	stw	r2,-20(fp)
 10077fc:	e0bffe17 	ldw	r2,-8(fp)
 1007800:	00c00044 	movi	r3,1
 1007804:	10c02a85 	stb	r3,170(r2)
 1007808:	d0a00117 	ldw	r2,-32764(gp)
 100780c:	1000321e 	bne	r2,zero,10078d8 <sdhc_mode_select+0x200>
 1007810:	01004074 	movhi	r4,257
 1007814:	210a0c04 	addi	r4,r4,10288
 1007818:	1010b240 	call	1010b24 <puts>
 100781c:	00002e06 	br	10078d8 <sdhc_mode_select+0x200>
 1007820:	e0bfff03 	ldbu	r2,-4(fp)
 1007824:	108000d8 	cmpnei	r2,r2,3
 1007828:	1000141e 	bne	r2,zero,100787c <sdhc_mode_select+0x1a4>
 100782c:	e0bffe17 	ldw	r2,-8(fp)
 1007830:	00c00044 	movi	r3,1
 1007834:	10c02b05 	stb	r3,172(r2)
 1007838:	d8000015 	stw	zero,0(sp)
 100783c:	d8000115 	stw	zero,4(sp)
 1007840:	e13ffe17 	ldw	r4,-8(fp)
 1007844:	0140edf4 	movhi	r5,951
 1007848:	29414004 	addi	r5,r5,1280
 100784c:	018000c4 	movi	r6,3
 1007850:	01c00184 	movi	r7,6
 1007854:	10021bc0 	call	10021bc <sdhc_send_command>
 1007858:	e0bffb15 	stw	r2,-20(fp)
 100785c:	e0bffe17 	ldw	r2,-8(fp)
 1007860:	10002a85 	stb	zero,170(r2)
 1007864:	d0a00117 	ldw	r2,-32764(gp)
 1007868:	10001b1e 	bne	r2,zero,10078d8 <sdhc_mode_select+0x200>
 100786c:	01004074 	movhi	r4,257
 1007870:	210a1404 	addi	r4,r4,10320
 1007874:	1010b240 	call	1010b24 <puts>
 1007878:	00001706 	br	10078d8 <sdhc_mode_select+0x200>
 100787c:	e0bfff03 	ldbu	r2,-4(fp)
 1007880:	10800118 	cmpnei	r2,r2,4
 1007884:	1000141e 	bne	r2,zero,10078d8 <sdhc_mode_select+0x200>
 1007888:	e0bffe17 	ldw	r2,-8(fp)
 100788c:	00c00044 	movi	r3,1
 1007890:	10c02b05 	stb	r3,172(r2)
 1007894:	d8000015 	stw	zero,0(sp)
 1007898:	d8000115 	stw	zero,4(sp)
 100789c:	e13ffe17 	ldw	r4,-8(fp)
 10078a0:	0140edf4 	movhi	r5,951
 10078a4:	29418004 	addi	r5,r5,1536
 10078a8:	018000c4 	movi	r6,3
 10078ac:	01c00184 	movi	r7,6
 10078b0:	10021bc0 	call	10021bc <sdhc_send_command>
 10078b4:	e0bffb15 	stw	r2,-20(fp)
 10078b8:	e0bffe17 	ldw	r2,-8(fp)
 10078bc:	00c00044 	movi	r3,1
 10078c0:	10c02a85 	stb	r3,170(r2)
 10078c4:	d0a00117 	ldw	r2,-32764(gp)
 10078c8:	1000031e 	bne	r2,zero,10078d8 <sdhc_mode_select+0x200>
 10078cc:	01004074 	movhi	r4,257
 10078d0:	210a1c04 	addi	r4,r4,10352
 10078d4:	1010b240 	call	1010b24 <puts>
 10078d8:	e0bffb17 	ldw	r2,-20(fp)
 10078dc:	1000071e 	bne	r2,zero,10078fc <sdhc_mode_select+0x224>
 10078e0:	e0bffe17 	ldw	r2,-8(fp)
 10078e4:	00c00044 	movi	r3,1
 10078e8:	10c00415 	stw	r3,16(r2)
 10078ec:	e13ffe17 	ldw	r4,-8(fp)
 10078f0:	e17ffd17 	ldw	r5,-12(fp)
 10078f4:	1001f800 	call	1001f80 <sdhc_set_freq>
 10078f8:	00000806 	br	100791c <sdhc_mode_select+0x244>
 10078fc:	e0bffe17 	ldw	r2,-8(fp)
 1007900:	10002a85 	stb	zero,170(r2)
 1007904:	e0bffe17 	ldw	r2,-8(fp)
 1007908:	10000415 	stw	zero,16(r2)
 100790c:	e13ffe17 	ldw	r4,-8(fp)
 1007910:	014001b4 	movhi	r5,6
 1007914:	2946a004 	addi	r5,r5,6784
 1007918:	1001f800 	call	1001f80 <sdhc_set_freq>
 100791c:	e0bffb17 	ldw	r2,-20(fp)
 1007920:	00004d06 	br	1007a58 <sdhc_mode_select+0x380>
 1007924:	e0bffe17 	ldw	r2,-8(fp)
 1007928:	10002a85 	stb	zero,170(r2)
 100792c:	e0bffe17 	ldw	r2,-8(fp)
 1007930:	10800617 	ldw	r2,24(r2)
 1007934:	1004943a 	slli	r2,r2,16
 1007938:	d8000015 	stw	zero,0(sp)
 100793c:	d8000115 	stw	zero,4(sp)
 1007940:	e13ffe17 	ldw	r4,-8(fp)
 1007944:	100b883a 	mov	r5,r2
 1007948:	01800044 	movi	r6,1
 100794c:	01c00dc4 	movi	r7,55
 1007950:	10021bc0 	call	10021bc <sdhc_send_command>
 1007954:	1000030e 	bge	r2,zero,1007964 <sdhc_mode_select+0x28c>
 1007958:	00bffd84 	movi	r2,-10
 100795c:	e0bffb15 	stw	r2,-20(fp)
 1007960:	00003906 	br	1007a48 <sdhc_mode_select+0x370>
 1007964:	e0bfff03 	ldbu	r2,-4(fp)
 1007968:	1000091e 	bne	r2,zero,1007990 <sdhc_mode_select+0x2b8>
 100796c:	d8000015 	stw	zero,0(sp)
 1007970:	d8000115 	stw	zero,4(sp)
 1007974:	e13ffe17 	ldw	r4,-8(fp)
 1007978:	000b883a 	mov	r5,zero
 100797c:	01800044 	movi	r6,1
 1007980:	01c00184 	movi	r7,6
 1007984:	10021bc0 	call	10021bc <sdhc_send_command>
 1007988:	e0bffb15 	stw	r2,-20(fp)
 100798c:	00002406 	br	1007a20 <sdhc_mode_select+0x348>
 1007990:	e0bfff03 	ldbu	r2,-4(fp)
 1007994:	10800058 	cmpnei	r2,r2,1
 1007998:	10000e1e 	bne	r2,zero,10079d4 <sdhc_mode_select+0x2fc>
 100799c:	d8000015 	stw	zero,0(sp)
 10079a0:	d8000115 	stw	zero,4(sp)
 10079a4:	e13ffe17 	ldw	r4,-8(fp)
 10079a8:	01400084 	movi	r5,2
 10079ac:	01800044 	movi	r6,1
 10079b0:	01c00184 	movi	r7,6
 10079b4:	10021bc0 	call	10021bc <sdhc_send_command>
 10079b8:	e0bffb15 	stw	r2,-20(fp)
 10079bc:	d0a00117 	ldw	r2,-32764(gp)
 10079c0:	1000171e 	bne	r2,zero,1007a20 <sdhc_mode_select+0x348>
 10079c4:	01004074 	movhi	r4,257
 10079c8:	210a0404 	addi	r4,r4,10256
 10079cc:	1010b240 	call	1010b24 <puts>
 10079d0:	00001306 	br	1007a20 <sdhc_mode_select+0x348>
 10079d4:	e0bfff03 	ldbu	r2,-4(fp)
 10079d8:	108000d8 	cmpnei	r2,r2,3
 10079dc:	1000101e 	bne	r2,zero,1007a20 <sdhc_mode_select+0x348>
 10079e0:	e0bffe17 	ldw	r2,-8(fp)
 10079e4:	00c00044 	movi	r3,1
 10079e8:	10c02b05 	stb	r3,172(r2)
 10079ec:	d8000015 	stw	zero,0(sp)
 10079f0:	d8000115 	stw	zero,4(sp)
 10079f4:	e13ffe17 	ldw	r4,-8(fp)
 10079f8:	01400084 	movi	r5,2
 10079fc:	01800044 	movi	r6,1
 1007a00:	01c00184 	movi	r7,6
 1007a04:	10021bc0 	call	10021bc <sdhc_send_command>
 1007a08:	e0bffb15 	stw	r2,-20(fp)
 1007a0c:	d0a00117 	ldw	r2,-32764(gp)
 1007a10:	1000031e 	bne	r2,zero,1007a20 <sdhc_mode_select+0x348>
 1007a14:	01004074 	movhi	r4,257
 1007a18:	210a1404 	addi	r4,r4,10320
 1007a1c:	1010b240 	call	1010b24 <puts>
 1007a20:	e0bffb17 	ldw	r2,-20(fp)
 1007a24:	1000081e 	bne	r2,zero,1007a48 <sdhc_mode_select+0x370>
 1007a28:	e0bfff03 	ldbu	r2,-4(fp)
 1007a2c:	1000031e 	bne	r2,zero,1007a3c <sdhc_mode_select+0x364>
 1007a30:	e0bffe17 	ldw	r2,-8(fp)
 1007a34:	10000415 	stw	zero,16(r2)
 1007a38:	00000306 	br	1007a48 <sdhc_mode_select+0x370>
 1007a3c:	e0bffe17 	ldw	r2,-8(fp)
 1007a40:	00c00044 	movi	r3,1
 1007a44:	10c00415 	stw	r3,16(r2)
 1007a48:	e13ffe17 	ldw	r4,-8(fp)
 1007a4c:	e17ffd17 	ldw	r5,-12(fp)
 1007a50:	1001f800 	call	1001f80 <sdhc_set_freq>
 1007a54:	e0bffb17 	ldw	r2,-20(fp)
 1007a58:	e037883a 	mov	sp,fp
 1007a5c:	dfc00117 	ldw	ra,4(sp)
 1007a60:	df000017 	ldw	fp,0(sp)
 1007a64:	dec00204 	addi	sp,sp,8
 1007a68:	f800283a 	ret

01007a6c <sdhc_read>:
 1007a6c:	defff504 	addi	sp,sp,-44
 1007a70:	dfc00a15 	stw	ra,40(sp)
 1007a74:	df000915 	stw	fp,36(sp)
 1007a78:	df000904 	addi	fp,sp,36
 1007a7c:	e13ffc15 	stw	r4,-16(fp)
 1007a80:	e17ffd15 	stw	r5,-12(fp)
 1007a84:	e1bffe15 	stw	r6,-8(fp)
 1007a88:	e1ffff15 	stw	r7,-4(fp)
 1007a8c:	e03ffb15 	stw	zero,-20(fp)
 1007a90:	e0bffc17 	ldw	r2,-16(fp)
 1007a94:	10800217 	ldw	r2,8(r2)
 1007a98:	1000021e 	bne	r2,zero,1007aa4 <sdhc_read+0x38>
 1007a9c:	00bffd84 	movi	r2,-10
 1007aa0:	00002d06 	br	1007b58 <sdhc_read+0xec>
 1007aa4:	e0fffd17 	ldw	r3,-12(fp)
 1007aa8:	e0bffe17 	ldw	r2,-8(fp)
 1007aac:	1885883a 	add	r2,r3,r2
 1007ab0:	e0fffc17 	ldw	r3,-16(fp)
 1007ab4:	18c01e17 	ldw	r3,120(r3)
 1007ab8:	1880022e 	bgeu	r3,r2,1007ac4 <sdhc_read+0x58>
 1007abc:	00bffd84 	movi	r2,-10
 1007ac0:	00002506 	br	1007b58 <sdhc_read+0xec>
 1007ac4:	e0bffc17 	ldw	r2,-16(fp)
 1007ac8:	10800817 	ldw	r2,32(r2)
 1007acc:	1000031e 	bne	r2,zero,1007adc <sdhc_read+0x70>
 1007ad0:	e0bffd17 	ldw	r2,-12(fp)
 1007ad4:	1004927a 	slli	r2,r2,9
 1007ad8:	e0bffd15 	stw	r2,-12(fp)
 1007adc:	e0bffe17 	ldw	r2,-8(fp)
 1007ae0:	108000b0 	cmpltui	r2,r2,2
 1007ae4:	1000031e 	bne	r2,zero,1007af4 <sdhc_read+0x88>
 1007ae8:	00800484 	movi	r2,18
 1007aec:	e0bffa15 	stw	r2,-24(fp)
 1007af0:	00000206 	br	1007afc <sdhc_read+0x90>
 1007af4:	00800444 	movi	r2,17
 1007af8:	e0bffa15 	stw	r2,-24(fp)
 1007afc:	00808004 	movi	r2,512
 1007b00:	d8800015 	stw	r2,0(sp)
 1007b04:	00800044 	movi	r2,1
 1007b08:	d8800115 	stw	r2,4(sp)
 1007b0c:	e0bfff17 	ldw	r2,-4(fp)
 1007b10:	d8800215 	stw	r2,8(sp)
 1007b14:	e13ffc17 	ldw	r4,-16(fp)
 1007b18:	e17ffd17 	ldw	r5,-12(fp)
 1007b1c:	e1bffa17 	ldw	r6,-24(fp)
 1007b20:	e1fffe17 	ldw	r7,-8(fp)
 1007b24:	10026f40 	call	10026f4 <sdhc_sdio_read>
 1007b28:	e0bffb15 	stw	r2,-20(fp)
 1007b2c:	e0bffe17 	ldw	r2,-8(fp)
 1007b30:	108000b0 	cmpltui	r2,r2,2
 1007b34:	1000071e 	bne	r2,zero,1007b54 <sdhc_read+0xe8>
 1007b38:	d8000015 	stw	zero,0(sp)
 1007b3c:	d8000115 	stw	zero,4(sp)
 1007b40:	e13ffc17 	ldw	r4,-16(fp)
 1007b44:	000b883a 	mov	r5,zero
 1007b48:	018000c4 	movi	r6,3
 1007b4c:	01c00304 	movi	r7,12
 1007b50:	10021bc0 	call	10021bc <sdhc_send_command>
 1007b54:	e0bffb17 	ldw	r2,-20(fp)
 1007b58:	e037883a 	mov	sp,fp
 1007b5c:	dfc00117 	ldw	ra,4(sp)
 1007b60:	df000017 	ldw	fp,0(sp)
 1007b64:	dec00204 	addi	sp,sp,8
 1007b68:	f800283a 	ret

01007b6c <emmc_read_bus_test>:
 1007b6c:	defff504 	addi	sp,sp,-44
 1007b70:	dfc00a15 	stw	ra,40(sp)
 1007b74:	df000915 	stw	fp,36(sp)
 1007b78:	df000904 	addi	fp,sp,36
 1007b7c:	e13ffc15 	stw	r4,-16(fp)
 1007b80:	e17ffd15 	stw	r5,-12(fp)
 1007b84:	e1bffe15 	stw	r6,-8(fp)
 1007b88:	e1ffff15 	stw	r7,-4(fp)
 1007b8c:	e03ffa15 	stw	zero,-24(fp)
 1007b90:	e0bffc17 	ldw	r2,-16(fp)
 1007b94:	10800217 	ldw	r2,8(r2)
 1007b98:	1000021e 	bne	r2,zero,1007ba4 <emmc_read_bus_test+0x38>
 1007b9c:	00bffd84 	movi	r2,-10
 1007ba0:	00001106 	br	1007be8 <emmc_read_bus_test+0x7c>
 1007ba4:	00800384 	movi	r2,14
 1007ba8:	e0bffb15 	stw	r2,-20(fp)
 1007bac:	00808004 	movi	r2,512
 1007bb0:	d8800015 	stw	r2,0(sp)
 1007bb4:	00800044 	movi	r2,1
 1007bb8:	d8800115 	stw	r2,4(sp)
 1007bbc:	e0bfff17 	ldw	r2,-4(fp)
 1007bc0:	d8800215 	stw	r2,8(sp)
 1007bc4:	e13ffc17 	ldw	r4,-16(fp)
 1007bc8:	e17ffd17 	ldw	r5,-12(fp)
 1007bcc:	e1bffb17 	ldw	r6,-20(fp)
 1007bd0:	e1fffe17 	ldw	r7,-8(fp)
 1007bd4:	10026f40 	call	10026f4 <sdhc_sdio_read>
 1007bd8:	e0bffa15 	stw	r2,-24(fp)
 1007bdc:	00800044 	movi	r2,1
 1007be0:	e0bffa15 	stw	r2,-24(fp)
 1007be4:	e0bffa17 	ldw	r2,-24(fp)
 1007be8:	e037883a 	mov	sp,fp
 1007bec:	dfc00117 	ldw	ra,4(sp)
 1007bf0:	df000017 	ldw	fp,0(sp)
 1007bf4:	dec00204 	addi	sp,sp,8
 1007bf8:	f800283a 	ret

01007bfc <sdhc_write>:
 1007bfc:	defff504 	addi	sp,sp,-44
 1007c00:	dfc00a15 	stw	ra,40(sp)
 1007c04:	df000915 	stw	fp,36(sp)
 1007c08:	df000904 	addi	fp,sp,36
 1007c0c:	e13ffc15 	stw	r4,-16(fp)
 1007c10:	e17ffd15 	stw	r5,-12(fp)
 1007c14:	e1bffe15 	stw	r6,-8(fp)
 1007c18:	e1ffff15 	stw	r7,-4(fp)
 1007c1c:	e03ffb15 	stw	zero,-20(fp)
 1007c20:	e0bffc17 	ldw	r2,-16(fp)
 1007c24:	10800217 	ldw	r2,8(r2)
 1007c28:	1000021e 	bne	r2,zero,1007c34 <sdhc_write+0x38>
 1007c2c:	00bffd84 	movi	r2,-10
 1007c30:	00002d06 	br	1007ce8 <sdhc_write+0xec>
 1007c34:	e0fffd17 	ldw	r3,-12(fp)
 1007c38:	e0bffe17 	ldw	r2,-8(fp)
 1007c3c:	1885883a 	add	r2,r3,r2
 1007c40:	e0fffc17 	ldw	r3,-16(fp)
 1007c44:	18c01e17 	ldw	r3,120(r3)
 1007c48:	1880022e 	bgeu	r3,r2,1007c54 <sdhc_write+0x58>
 1007c4c:	00bffd84 	movi	r2,-10
 1007c50:	00002506 	br	1007ce8 <sdhc_write+0xec>
 1007c54:	e0bffc17 	ldw	r2,-16(fp)
 1007c58:	10800817 	ldw	r2,32(r2)
 1007c5c:	1000031e 	bne	r2,zero,1007c6c <sdhc_write+0x70>
 1007c60:	e0bffd17 	ldw	r2,-12(fp)
 1007c64:	1004927a 	slli	r2,r2,9
 1007c68:	e0bffd15 	stw	r2,-12(fp)
 1007c6c:	e0bffe17 	ldw	r2,-8(fp)
 1007c70:	108000b0 	cmpltui	r2,r2,2
 1007c74:	1000031e 	bne	r2,zero,1007c84 <sdhc_write+0x88>
 1007c78:	00800644 	movi	r2,25
 1007c7c:	e0bffa15 	stw	r2,-24(fp)
 1007c80:	00000206 	br	1007c8c <sdhc_write+0x90>
 1007c84:	00800604 	movi	r2,24
 1007c88:	e0bffa15 	stw	r2,-24(fp)
 1007c8c:	00808004 	movi	r2,512
 1007c90:	d8800015 	stw	r2,0(sp)
 1007c94:	00800044 	movi	r2,1
 1007c98:	d8800115 	stw	r2,4(sp)
 1007c9c:	e0bfff17 	ldw	r2,-4(fp)
 1007ca0:	d8800215 	stw	r2,8(sp)
 1007ca4:	e13ffc17 	ldw	r4,-16(fp)
 1007ca8:	e17ffd17 	ldw	r5,-12(fp)
 1007cac:	e1bffa17 	ldw	r6,-24(fp)
 1007cb0:	e1fffe17 	ldw	r7,-8(fp)
 1007cb4:	10028d40 	call	10028d4 <sdhc_sdio_write>
 1007cb8:	e0bffb15 	stw	r2,-20(fp)
 1007cbc:	e0bffe17 	ldw	r2,-8(fp)
 1007cc0:	108000b0 	cmpltui	r2,r2,2
 1007cc4:	1000071e 	bne	r2,zero,1007ce4 <sdhc_write+0xe8>
 1007cc8:	d8000015 	stw	zero,0(sp)
 1007ccc:	d8000115 	stw	zero,4(sp)
 1007cd0:	e13ffc17 	ldw	r4,-16(fp)
 1007cd4:	000b883a 	mov	r5,zero
 1007cd8:	018000c4 	movi	r6,3
 1007cdc:	01c00304 	movi	r7,12
 1007ce0:	10021bc0 	call	10021bc <sdhc_send_command>
 1007ce4:	e0bffb17 	ldw	r2,-20(fp)
 1007ce8:	e037883a 	mov	sp,fp
 1007cec:	dfc00117 	ldw	ra,4(sp)
 1007cf0:	df000017 	ldw	fp,0(sp)
 1007cf4:	dec00204 	addi	sp,sp,8
 1007cf8:	f800283a 	ret

01007cfc <emmc_write_bus_test>:
 1007cfc:	defff504 	addi	sp,sp,-44
 1007d00:	dfc00a15 	stw	ra,40(sp)
 1007d04:	df000915 	stw	fp,36(sp)
 1007d08:	df000904 	addi	fp,sp,36
 1007d0c:	e13ffc15 	stw	r4,-16(fp)
 1007d10:	e17ffd15 	stw	r5,-12(fp)
 1007d14:	e1bffe15 	stw	r6,-8(fp)
 1007d18:	e1ffff15 	stw	r7,-4(fp)
 1007d1c:	e03ffa15 	stw	zero,-24(fp)
 1007d20:	e0bffc17 	ldw	r2,-16(fp)
 1007d24:	10800217 	ldw	r2,8(r2)
 1007d28:	1000021e 	bne	r2,zero,1007d34 <emmc_write_bus_test+0x38>
 1007d2c:	00bffd84 	movi	r2,-10
 1007d30:	00001106 	br	1007d78 <emmc_write_bus_test+0x7c>
 1007d34:	008004c4 	movi	r2,19
 1007d38:	e0bffb15 	stw	r2,-20(fp)
 1007d3c:	00808004 	movi	r2,512
 1007d40:	d8800015 	stw	r2,0(sp)
 1007d44:	00800044 	movi	r2,1
 1007d48:	d8800115 	stw	r2,4(sp)
 1007d4c:	e0bfff17 	ldw	r2,-4(fp)
 1007d50:	d8800215 	stw	r2,8(sp)
 1007d54:	e13ffc17 	ldw	r4,-16(fp)
 1007d58:	e17ffd17 	ldw	r5,-12(fp)
 1007d5c:	e1bffb17 	ldw	r6,-20(fp)
 1007d60:	e1fffe17 	ldw	r7,-8(fp)
 1007d64:	10028d40 	call	10028d4 <sdhc_sdio_write>
 1007d68:	e0bffa15 	stw	r2,-24(fp)
 1007d6c:	00800044 	movi	r2,1
 1007d70:	e0bffa15 	stw	r2,-24(fp)
 1007d74:	e0bffa17 	ldw	r2,-24(fp)
 1007d78:	e037883a 	mov	sp,fp
 1007d7c:	dfc00117 	ldw	ra,4(sp)
 1007d80:	df000017 	ldw	fp,0(sp)
 1007d84:	dec00204 	addi	sp,sp,8
 1007d88:	f800283a 	ret

01007d8c <sdhc_card_init>:
 1007d8c:	deff7704 	addi	sp,sp,-548
 1007d90:	dfc08815 	stw	ra,544(sp)
 1007d94:	df008715 	stw	fp,540(sp)
 1007d98:	df008704 	addi	fp,sp,540
 1007d9c:	e13fff15 	stw	r4,-4(fp)
 1007da0:	e0ff7f04 	addi	r3,fp,-516
 1007da4:	00808004 	movi	r2,512
 1007da8:	1809883a 	mov	r4,r3
 1007dac:	000b883a 	mov	r5,zero
 1007db0:	100d883a 	mov	r6,r2
 1007db4:	10109dc0 	call	10109dc <memset>
 1007db8:	e0bfff17 	ldw	r2,-4(fp)
 1007dbc:	10000715 	stw	zero,28(r2)
 1007dc0:	e0bfff17 	ldw	r2,-4(fp)
 1007dc4:	10000815 	stw	zero,32(r2)
 1007dc8:	e13fff17 	ldw	r4,-4(fp)
 1007dcc:	014001b4 	movhi	r5,6
 1007dd0:	2946a004 	addi	r5,r5,6784
 1007dd4:	1001f800 	call	1001f80 <sdhc_set_freq>
 1007dd8:	e03f7e15 	stw	zero,-520(fp)
 1007ddc:	00001306 	br	1007e2c <sdhc_card_init+0xa0>
 1007de0:	d8000015 	stw	zero,0(sp)
 1007de4:	d8000115 	stw	zero,4(sp)
 1007de8:	e13fff17 	ldw	r4,-4(fp)
 1007dec:	000b883a 	mov	r5,zero
 1007df0:	000d883a 	mov	r6,zero
 1007df4:	000f883a 	mov	r7,zero
 1007df8:	10021bc0 	call	10021bc <sdhc_send_command>
 1007dfc:	1000080e 	bge	r2,zero,1007e20 <sdhc_card_init+0x94>
 1007e00:	d0a00117 	ldw	r2,-32764(gp)
 1007e04:	108000a8 	cmpgeui	r2,r2,2
 1007e08:	1000031e 	bne	r2,zero,1007e18 <sdhc_card_init+0x8c>
 1007e0c:	01004074 	movhi	r4,257
 1007e10:	210a2404 	addi	r4,r4,10384
 1007e14:	1010b240 	call	1010b24 <puts>
 1007e18:	00bffd84 	movi	r2,-10
 1007e1c:	00035606 	br	1008b78 <sdhc_card_init+0xdec>
 1007e20:	e0bf7e17 	ldw	r2,-520(fp)
 1007e24:	10800044 	addi	r2,r2,1
 1007e28:	e0bf7e15 	stw	r2,-520(fp)
 1007e2c:	e0bf7e17 	ldw	r2,-520(fp)
 1007e30:	10800170 	cmpltui	r2,r2,5
 1007e34:	103fea1e 	bne	r2,zero,1007de0 <__alt_data_end+0xfffe75e0>
 1007e38:	d8000015 	stw	zero,0(sp)
 1007e3c:	d8000115 	stw	zero,4(sp)
 1007e40:	e13fff17 	ldw	r4,-4(fp)
 1007e44:	01504034 	movhi	r5,16640
 1007e48:	29600004 	addi	r5,r5,-32768
 1007e4c:	01800044 	movi	r6,1
 1007e50:	01c00044 	movi	r7,1
 1007e54:	10021bc0 	call	10021bc <sdhc_send_command>
 1007e58:	1000030e 	bge	r2,zero,1007e68 <sdhc_card_init+0xdc>
 1007e5c:	e0bfff17 	ldw	r2,-4(fp)
 1007e60:	10002615 	stw	zero,152(r2)
 1007e64:	00003b06 	br	1007f54 <sdhc_card_init+0x1c8>
 1007e68:	e0bfff17 	ldw	r2,-4(fp)
 1007e6c:	10800017 	ldw	r2,0(r2)
 1007e70:	10800c04 	addi	r2,r2,48
 1007e74:	10800037 	ldwio	r2,0(r2)
 1007e78:	1004963a 	slli	r2,r2,24
 1007e7c:	e0ffff17 	ldw	r3,-4(fp)
 1007e80:	18c00017 	ldw	r3,0(r3)
 1007e84:	18c00b04 	addi	r3,r3,44
 1007e88:	18c00037 	ldwio	r3,0(r3)
 1007e8c:	1806d23a 	srli	r3,r3,8
 1007e90:	10c4b03a 	or	r2,r2,r3
 1007e94:	1007883a 	mov	r3,r2
 1007e98:	e0bfff17 	ldw	r2,-4(fp)
 1007e9c:	10c00515 	stw	r3,20(r2)
 1007ea0:	e0bfff17 	ldw	r2,-4(fp)
 1007ea4:	10800517 	ldw	r2,20(r2)
 1007ea8:	1000290e 	bge	r2,zero,1007f50 <sdhc_card_init+0x1c4>
 1007eac:	e0bfff17 	ldw	r2,-4(fp)
 1007eb0:	10c00517 	ldw	r3,20(r2)
 1007eb4:	00b04034 	movhi	r2,49408
 1007eb8:	10a00004 	addi	r2,r2,-32768
 1007ebc:	18800b1e 	bne	r3,r2,1007eec <sdhc_card_init+0x160>
 1007ec0:	e0bfff17 	ldw	r2,-4(fp)
 1007ec4:	10002a45 	stb	zero,169(r2)
 1007ec8:	e0bfff17 	ldw	r2,-4(fp)
 1007ecc:	00c000c4 	movi	r3,3
 1007ed0:	10c02615 	stw	r3,152(r2)
 1007ed4:	d0a00117 	ldw	r2,-32764(gp)
 1007ed8:	10001c1e 	bne	r2,zero,1007f4c <sdhc_card_init+0x1c0>
 1007edc:	01004074 	movhi	r4,257
 1007ee0:	210a2c04 	addi	r4,r4,10416
 1007ee4:	1010b240 	call	1010b24 <puts>
 1007ee8:	00001a06 	br	1007f54 <sdhc_card_init+0x1c8>
 1007eec:	e0bfff17 	ldw	r2,-4(fp)
 1007ef0:	10c00517 	ldw	r3,20(r2)
 1007ef4:	00b04034 	movhi	r2,49408
 1007ef8:	10a02004 	addi	r2,r2,-32640
 1007efc:	18800c1e 	bne	r3,r2,1007f30 <sdhc_card_init+0x1a4>
 1007f00:	e0bfff17 	ldw	r2,-4(fp)
 1007f04:	00c00044 	movi	r3,1
 1007f08:	10c02a45 	stb	r3,169(r2)
 1007f0c:	e0bfff17 	ldw	r2,-4(fp)
 1007f10:	00c000c4 	movi	r3,3
 1007f14:	10c02615 	stw	r3,152(r2)
 1007f18:	d0a00117 	ldw	r2,-32764(gp)
 1007f1c:	10000b1e 	bne	r2,zero,1007f4c <sdhc_card_init+0x1c0>
 1007f20:	01004074 	movhi	r4,257
 1007f24:	210a3404 	addi	r4,r4,10448
 1007f28:	1010b240 	call	1010b24 <puts>
 1007f2c:	00000906 	br	1007f54 <sdhc_card_init+0x1c8>
 1007f30:	d0a00117 	ldw	r2,-32764(gp)
 1007f34:	1000031e 	bne	r2,zero,1007f44 <sdhc_card_init+0x1b8>
 1007f38:	01004074 	movhi	r4,257
 1007f3c:	210a3b04 	addi	r4,r4,10476
 1007f40:	1010b240 	call	1010b24 <puts>
 1007f44:	00bffd84 	movi	r2,-10
 1007f48:	00030b06 	br	1008b78 <sdhc_card_init+0xdec>
 1007f4c:	00000106 	br	1007f54 <sdhc_card_init+0x1c8>
 1007f50:	003fb906 	br	1007e38 <__alt_data_end+0xfffe7638>
 1007f54:	e0bfff17 	ldw	r2,-4(fp)
 1007f58:	10800517 	ldw	r2,20(r2)
 1007f5c:	1090002c 	andhi	r2,r2,16384
 1007f60:	10000426 	beq	r2,zero,1007f74 <sdhc_card_init+0x1e8>
 1007f64:	e0bfff17 	ldw	r2,-4(fp)
 1007f68:	00c00044 	movi	r3,1
 1007f6c:	10c00815 	stw	r3,32(r2)
 1007f70:	00000206 	br	1007f7c <sdhc_card_init+0x1f0>
 1007f74:	e0bfff17 	ldw	r2,-4(fp)
 1007f78:	10000815 	stw	zero,32(r2)
 1007f7c:	e0bfff17 	ldw	r2,-4(fp)
 1007f80:	10802617 	ldw	r2,152(r2)
 1007f84:	108000d8 	cmpnei	r2,r2,3
 1007f88:	1000011e 	bne	r2,zero,1007f90 <sdhc_card_init+0x204>
 1007f8c:	00000d06 	br	1007fc4 <sdhc_card_init+0x238>
 1007f90:	e0bfff17 	ldw	r2,-4(fp)
 1007f94:	10802617 	ldw	r2,152(r2)
 1007f98:	10000a1e 	bne	r2,zero,1007fc4 <sdhc_card_init+0x238>
 1007f9c:	0001883a 	nop
 1007fa0:	d8000015 	stw	zero,0(sp)
 1007fa4:	d8000115 	stw	zero,4(sp)
 1007fa8:	e13fff17 	ldw	r4,-4(fp)
 1007fac:	01406a84 	movi	r5,426
 1007fb0:	01800044 	movi	r6,1
 1007fb4:	01c00204 	movi	r7,8
 1007fb8:	10021bc0 	call	10021bc <sdhc_send_command>
 1007fbc:	1000f30e 	bge	r2,zero,100838c <sdhc_card_init+0x600>
 1007fc0:	0000ef06 	br	1008380 <sdhc_card_init+0x5f4>
 1007fc4:	d8000015 	stw	zero,0(sp)
 1007fc8:	d8000115 	stw	zero,4(sp)
 1007fcc:	e13fff17 	ldw	r4,-4(fp)
 1007fd0:	000b883a 	mov	r5,zero
 1007fd4:	01800084 	movi	r6,2
 1007fd8:	01c00084 	movi	r7,2
 1007fdc:	10021bc0 	call	10021bc <sdhc_send_command>
 1007fe0:	10000226 	beq	r2,zero,1007fec <sdhc_card_init+0x260>
 1007fe4:	00bffd84 	movi	r2,-10
 1007fe8:	0002e306 	br	1008b78 <sdhc_card_init+0xdec>
 1007fec:	d8000015 	stw	zero,0(sp)
 1007ff0:	d8000115 	stw	zero,4(sp)
 1007ff4:	e13fff17 	ldw	r4,-4(fp)
 1007ff8:	000b883a 	mov	r5,zero
 1007ffc:	01800044 	movi	r6,1
 1008000:	01c000c4 	movi	r7,3
 1008004:	10021bc0 	call	10021bc <sdhc_send_command>
 1008008:	1000080e 	bge	r2,zero,100802c <sdhc_card_init+0x2a0>
 100800c:	d0a00117 	ldw	r2,-32764(gp)
 1008010:	108000a8 	cmpgeui	r2,r2,2
 1008014:	1000031e 	bne	r2,zero,1008024 <sdhc_card_init+0x298>
 1008018:	01004074 	movhi	r4,257
 100801c:	210a4304 	addi	r4,r4,10508
 1008020:	1010b240 	call	1010b24 <puts>
 1008024:	00bffd84 	movi	r2,-10
 1008028:	0002d306 	br	1008b78 <sdhc_card_init+0xdec>
 100802c:	e0bfff17 	ldw	r2,-4(fp)
 1008030:	10800017 	ldw	r2,0(r2)
 1008034:	10800c04 	addi	r2,r2,48
 1008038:	10800037 	ldwio	r2,0(r2)
 100803c:	1004923a 	slli	r2,r2,8
 1008040:	10ffffcc 	andi	r3,r2,65535
 1008044:	e0bfff17 	ldw	r2,-4(fp)
 1008048:	10800017 	ldw	r2,0(r2)
 100804c:	10800b04 	addi	r2,r2,44
 1008050:	10800037 	ldwio	r2,0(r2)
 1008054:	1004d63a 	srli	r2,r2,24
 1008058:	1886b03a 	or	r3,r3,r2
 100805c:	e0bfff17 	ldw	r2,-4(fp)
 1008060:	10c00615 	stw	r3,24(r2)
 1008064:	e0bfff17 	ldw	r2,-4(fp)
 1008068:	10800617 	ldw	r2,24(r2)
 100806c:	1004943a 	slli	r2,r2,16
 1008070:	d8000015 	stw	zero,0(sp)
 1008074:	d8000115 	stw	zero,4(sp)
 1008078:	e13fff17 	ldw	r4,-4(fp)
 100807c:	100b883a 	mov	r5,r2
 1008080:	01800084 	movi	r6,2
 1008084:	01c00244 	movi	r7,9
 1008088:	10021bc0 	call	10021bc <sdhc_send_command>
 100808c:	1000080e 	bge	r2,zero,10080b0 <sdhc_card_init+0x324>
 1008090:	d0a00117 	ldw	r2,-32764(gp)
 1008094:	108000a8 	cmpgeui	r2,r2,2
 1008098:	1000031e 	bne	r2,zero,10080a8 <sdhc_card_init+0x31c>
 100809c:	01004074 	movhi	r4,257
 10080a0:	210a4d04 	addi	r4,r4,10548
 10080a4:	1010b240 	call	1010b24 <puts>
 10080a8:	00bffd84 	movi	r2,-10
 10080ac:	0002b206 	br	1008b78 <sdhc_card_init+0xdec>
 10080b0:	e0bfff17 	ldw	r2,-4(fp)
 10080b4:	10800017 	ldw	r2,0(r2)
 10080b8:	10800b04 	addi	r2,r2,44
 10080bc:	10800037 	ldwio	r2,0(r2)
 10080c0:	1007883a 	mov	r3,r2
 10080c4:	e0bfff17 	ldw	r2,-4(fp)
 10080c8:	10c01015 	stw	r3,64(r2)
 10080cc:	e0bfff17 	ldw	r2,-4(fp)
 10080d0:	10800017 	ldw	r2,0(r2)
 10080d4:	10800c04 	addi	r2,r2,48
 10080d8:	10800037 	ldwio	r2,0(r2)
 10080dc:	1007883a 	mov	r3,r2
 10080e0:	e0bfff17 	ldw	r2,-4(fp)
 10080e4:	10c00f15 	stw	r3,60(r2)
 10080e8:	e0bfff17 	ldw	r2,-4(fp)
 10080ec:	10800017 	ldw	r2,0(r2)
 10080f0:	10800d04 	addi	r2,r2,52
 10080f4:	10800037 	ldwio	r2,0(r2)
 10080f8:	1007883a 	mov	r3,r2
 10080fc:	e0bfff17 	ldw	r2,-4(fp)
 1008100:	10c00e15 	stw	r3,56(r2)
 1008104:	e0bfff17 	ldw	r2,-4(fp)
 1008108:	10800017 	ldw	r2,0(r2)
 100810c:	10800e04 	addi	r2,r2,56
 1008110:	10800037 	ldwio	r2,0(r2)
 1008114:	1007883a 	mov	r3,r2
 1008118:	e0bfff17 	ldw	r2,-4(fp)
 100811c:	10c00d15 	stw	r3,52(r2)
 1008120:	e0bfff17 	ldw	r2,-4(fp)
 1008124:	10c01704 	addi	r3,r2,92
 1008128:	e0bfff17 	ldw	r2,-4(fp)
 100812c:	10800d04 	addi	r2,r2,52
 1008130:	e13fff17 	ldw	r4,-4(fp)
 1008134:	180b883a 	mov	r5,r3
 1008138:	100d883a 	mov	r6,r2
 100813c:	10049a00 	call	10049a0 <sdhc_decode_csd>
 1008140:	e0bfff17 	ldw	r2,-4(fp)
 1008144:	10800617 	ldw	r2,24(r2)
 1008148:	1004943a 	slli	r2,r2,16
 100814c:	d8000015 	stw	zero,0(sp)
 1008150:	d8000115 	stw	zero,4(sp)
 1008154:	e13fff17 	ldw	r4,-4(fp)
 1008158:	100b883a 	mov	r5,r2
 100815c:	01800084 	movi	r6,2
 1008160:	01c00284 	movi	r7,10
 1008164:	10021bc0 	call	10021bc <sdhc_send_command>
 1008168:	1000080e 	bge	r2,zero,100818c <sdhc_card_init+0x400>
 100816c:	d0a00117 	ldw	r2,-32764(gp)
 1008170:	108000a8 	cmpgeui	r2,r2,2
 1008174:	1000031e 	bne	r2,zero,1008184 <sdhc_card_init+0x3f8>
 1008178:	01004074 	movhi	r4,257
 100817c:	210a5304 	addi	r4,r4,10572
 1008180:	1010b240 	call	1010b24 <puts>
 1008184:	00bffd84 	movi	r2,-10
 1008188:	00027b06 	br	1008b78 <sdhc_card_init+0xdec>
 100818c:	e0bfff17 	ldw	r2,-4(fp)
 1008190:	10800017 	ldw	r2,0(r2)
 1008194:	10800b04 	addi	r2,r2,44
 1008198:	10800037 	ldwio	r2,0(r2)
 100819c:	1007883a 	mov	r3,r2
 10081a0:	e0bfff17 	ldw	r2,-4(fp)
 10081a4:	10c00c15 	stw	r3,48(r2)
 10081a8:	e0bfff17 	ldw	r2,-4(fp)
 10081ac:	10800017 	ldw	r2,0(r2)
 10081b0:	10800c04 	addi	r2,r2,48
 10081b4:	10800037 	ldwio	r2,0(r2)
 10081b8:	1007883a 	mov	r3,r2
 10081bc:	e0bfff17 	ldw	r2,-4(fp)
 10081c0:	10c00b15 	stw	r3,44(r2)
 10081c4:	e0bfff17 	ldw	r2,-4(fp)
 10081c8:	10800017 	ldw	r2,0(r2)
 10081cc:	10800d04 	addi	r2,r2,52
 10081d0:	10800037 	ldwio	r2,0(r2)
 10081d4:	1007883a 	mov	r3,r2
 10081d8:	e0bfff17 	ldw	r2,-4(fp)
 10081dc:	10c00a15 	stw	r3,40(r2)
 10081e0:	e0bfff17 	ldw	r2,-4(fp)
 10081e4:	10800017 	ldw	r2,0(r2)
 10081e8:	10800e04 	addi	r2,r2,56
 10081ec:	10800037 	ldwio	r2,0(r2)
 10081f0:	1007883a 	mov	r3,r2
 10081f4:	e0bfff17 	ldw	r2,-4(fp)
 10081f8:	10c00915 	stw	r3,36(r2)
 10081fc:	e0bfff17 	ldw	r2,-4(fp)
 1008200:	10800617 	ldw	r2,24(r2)
 1008204:	1004943a 	slli	r2,r2,16
 1008208:	d8000015 	stw	zero,0(sp)
 100820c:	d8000115 	stw	zero,4(sp)
 1008210:	e13fff17 	ldw	r4,-4(fp)
 1008214:	100b883a 	mov	r5,r2
 1008218:	018000c4 	movi	r6,3
 100821c:	01c001c4 	movi	r7,7
 1008220:	10021bc0 	call	10021bc <sdhc_send_command>
 1008224:	1000020e 	bge	r2,zero,1008230 <sdhc_card_init+0x4a4>
 1008228:	00bffd84 	movi	r2,-10
 100822c:	00025206 	br	1008b78 <sdhc_card_init+0xdec>
 1008230:	d8000015 	stw	zero,0(sp)
 1008234:	d8000115 	stw	zero,4(sp)
 1008238:	e13fff17 	ldw	r4,-4(fp)
 100823c:	01408004 	movi	r5,512
 1008240:	01800044 	movi	r6,1
 1008244:	01c00404 	movi	r7,16
 1008248:	10021bc0 	call	10021bc <sdhc_send_command>
 100824c:	1000020e 	bge	r2,zero,1008258 <sdhc_card_init+0x4cc>
 1008250:	00bffd84 	movi	r2,-10
 1008254:	00024806 	br	1008b78 <sdhc_card_init+0xdec>
 1008258:	e0bfff17 	ldw	r2,-4(fp)
 100825c:	10c01e17 	ldw	r3,120(r2)
 1008260:	e0bfff17 	ldw	r2,-4(fp)
 1008264:	10801c17 	ldw	r2,112(r2)
 1008268:	1009883a 	mov	r4,r2
 100826c:	00800044 	movi	r2,1
 1008270:	1104983a 	sll	r2,r2,r4
 1008274:	1000010e 	bge	r2,zero,100827c <sdhc_card_init+0x4f0>
 1008278:	10807fc4 	addi	r2,r2,511
 100827c:	1005d27a 	srai	r2,r2,9
 1008280:	1887383a 	mul	r3,r3,r2
 1008284:	e0bfff17 	ldw	r2,-4(fp)
 1008288:	10c01e15 	stw	r3,120(r2)
 100828c:	e13fff17 	ldw	r4,-4(fp)
 1008290:	1001ee00 	call	1001ee0 <sdhc_sd_write_protected>
 1008294:	00808004 	movi	r2,512
 1008298:	d8800015 	stw	r2,0(sp)
 100829c:	00800044 	movi	r2,1
 10082a0:	d8800115 	stw	r2,4(sp)
 10082a4:	e0bf7f04 	addi	r2,fp,-516
 10082a8:	d8800215 	stw	r2,8(sp)
 10082ac:	e13fff17 	ldw	r4,-4(fp)
 10082b0:	000b883a 	mov	r5,zero
 10082b4:	01800204 	movi	r6,8
 10082b8:	01c00044 	movi	r7,1
 10082bc:	10026f40 	call	10026f4 <sdhc_sdio_read>
 10082c0:	10001a26 	beq	r2,zero,100832c <sdhc_card_init+0x5a0>
 10082c4:	00808004 	movi	r2,512
 10082c8:	d8800015 	stw	r2,0(sp)
 10082cc:	00800044 	movi	r2,1
 10082d0:	d8800115 	stw	r2,4(sp)
 10082d4:	e0bf7f04 	addi	r2,fp,-516
 10082d8:	d8800215 	stw	r2,8(sp)
 10082dc:	e13fff17 	ldw	r4,-4(fp)
 10082e0:	000b883a 	mov	r5,zero
 10082e4:	01800204 	movi	r6,8
 10082e8:	01c00044 	movi	r7,1
 10082ec:	10026f40 	call	10026f4 <sdhc_sdio_read>
 10082f0:	10000826 	beq	r2,zero,1008314 <sdhc_card_init+0x588>
 10082f4:	d0a00117 	ldw	r2,-32764(gp)
 10082f8:	108000a8 	cmpgeui	r2,r2,2
 10082fc:	1000031e 	bne	r2,zero,100830c <sdhc_card_init+0x580>
 1008300:	01004074 	movhi	r4,257
 1008304:	2109d104 	addi	r4,r4,10052
 1008308:	1010b240 	call	1010b24 <puts>
 100830c:	00bffd84 	movi	r2,-10
 1008310:	00021906 	br	1008b78 <sdhc_card_init+0xdec>
 1008314:	e0ffb003 	ldbu	r3,-320(fp)
 1008318:	e0bfff17 	ldw	r2,-4(fp)
 100831c:	10c02ac5 	stb	r3,171(r2)
 1008320:	e0bfff17 	ldw	r2,-4(fp)
 1008324:	10802617 	ldw	r2,152(r2)
 1008328:	00021306 	br	1008b78 <sdhc_card_init+0xdec>
 100832c:	e0ffb003 	ldbu	r3,-320(fp)
 1008330:	e0bfff17 	ldw	r2,-4(fp)
 1008334:	10c02ac5 	stb	r3,171(r2)
 1008338:	e0bfff17 	ldw	r2,-4(fp)
 100833c:	10c01704 	addi	r3,r2,92
 1008340:	e0bf7f04 	addi	r2,fp,-516
 1008344:	e13fff17 	ldw	r4,-4(fp)
 1008348:	180b883a 	mov	r5,r3
 100834c:	100d883a 	mov	r6,r2
 1008350:	10071680 	call	1007168 <emmc_decode_ext_csd>
 1008354:	e0bfff17 	ldw	r2,-4(fp)
 1008358:	10c01104 	addi	r3,r2,68
 100835c:	e0bfff17 	ldw	r2,-4(fp)
 1008360:	10800904 	addi	r2,r2,36
 1008364:	e13fff17 	ldw	r4,-4(fp)
 1008368:	180b883a 	mov	r5,r3
 100836c:	100d883a 	mov	r6,r2
 1008370:	1002f200 	call	1002f20 <sdhc_decode_cid>
 1008374:	e0bfff17 	ldw	r2,-4(fp)
 1008378:	10802617 	ldw	r2,152(r2)
 100837c:	0001fe06 	br	1008b78 <sdhc_card_init+0xdec>
 1008380:	e0bfff17 	ldw	r2,-4(fp)
 1008384:	10000715 	stw	zero,28(r2)
 1008388:	00001506 	br	10083e0 <sdhc_card_init+0x654>
 100838c:	e0bfff17 	ldw	r2,-4(fp)
 1008390:	10800017 	ldw	r2,0(r2)
 1008394:	10800c04 	addi	r2,r2,48
 1008398:	10800037 	ldwio	r2,0(r2)
 100839c:	1004963a 	slli	r2,r2,24
 10083a0:	e0ffff17 	ldw	r3,-4(fp)
 10083a4:	18c00017 	ldw	r3,0(r3)
 10083a8:	18c00b04 	addi	r3,r3,44
 10083ac:	18c00037 	ldwio	r3,0(r3)
 10083b0:	1806d23a 	srli	r3,r3,8
 10083b4:	10c4b03a 	or	r2,r2,r3
 10083b8:	e0bf7c15 	stw	r2,-528(fp)
 10083bc:	e0bf7c17 	ldw	r2,-528(fp)
 10083c0:	10802a8c 	andi	r2,r2,170
 10083c4:	1000031e 	bne	r2,zero,10083d4 <sdhc_card_init+0x648>
 10083c8:	e0bfff17 	ldw	r2,-4(fp)
 10083cc:	10000715 	stw	zero,28(r2)
 10083d0:	00000306 	br	10083e0 <sdhc_card_init+0x654>
 10083d4:	e0bfff17 	ldw	r2,-4(fp)
 10083d8:	00c00044 	movi	r3,1
 10083dc:	10c00715 	stw	r3,28(r2)
 10083e0:	d8000015 	stw	zero,0(sp)
 10083e4:	d8000115 	stw	zero,4(sp)
 10083e8:	e13fff17 	ldw	r4,-4(fp)
 10083ec:	000b883a 	mov	r5,zero
 10083f0:	01800044 	movi	r6,1
 10083f4:	01c00144 	movi	r7,5
 10083f8:	10021bc0 	call	10021bc <sdhc_send_command>
 10083fc:	10008a1e 	bne	r2,zero,1008628 <sdhc_card_init+0x89c>
 1008400:	e0bfff17 	ldw	r2,-4(fp)
 1008404:	10800017 	ldw	r2,0(r2)
 1008408:	10800c04 	addi	r2,r2,48
 100840c:	10800037 	ldwio	r2,0(r2)
 1008410:	1004963a 	slli	r2,r2,24
 1008414:	e0ffff17 	ldw	r3,-4(fp)
 1008418:	18c00017 	ldw	r3,0(r3)
 100841c:	18c00b04 	addi	r3,r3,44
 1008420:	18c00037 	ldwio	r3,0(r3)
 1008424:	1806d23a 	srli	r3,r3,8
 1008428:	10c4b03a 	or	r2,r2,r3
 100842c:	1007883a 	mov	r3,r2
 1008430:	e0bfff17 	ldw	r2,-4(fp)
 1008434:	10c02015 	stw	r3,128(r2)
 1008438:	e0bfff17 	ldw	r2,-4(fp)
 100843c:	10802017 	ldw	r2,128(r2)
 1008440:	d8000015 	stw	zero,0(sp)
 1008444:	d8000115 	stw	zero,4(sp)
 1008448:	e13fff17 	ldw	r4,-4(fp)
 100844c:	100b883a 	mov	r5,r2
 1008450:	01800044 	movi	r6,1
 1008454:	01c00144 	movi	r7,5
 1008458:	10021bc0 	call	10021bc <sdhc_send_command>
 100845c:	10001f1e 	bne	r2,zero,10084dc <sdhc_card_init+0x750>
 1008460:	e0bfff17 	ldw	r2,-4(fp)
 1008464:	10800017 	ldw	r2,0(r2)
 1008468:	10800c04 	addi	r2,r2,48
 100846c:	10800037 	ldwio	r2,0(r2)
 1008470:	1004963a 	slli	r2,r2,24
 1008474:	e0ffff17 	ldw	r3,-4(fp)
 1008478:	18c00017 	ldw	r3,0(r3)
 100847c:	18c00b04 	addi	r3,r3,44
 1008480:	18c00037 	ldwio	r3,0(r3)
 1008484:	1806d23a 	srli	r3,r3,8
 1008488:	10c4b03a 	or	r2,r2,r3
 100848c:	e0bf7c15 	stw	r2,-528(fp)
 1008490:	e0bf7c17 	ldw	r2,-528(fp)
 1008494:	10000f0e 	bge	r2,zero,10084d4 <sdhc_card_init+0x748>
 1008498:	00800044 	movi	r2,1
 100849c:	d0a18a15 	stw	r2,-31192(gp)
 10084a0:	e0bf7c17 	ldw	r2,-528(fp)
 10084a4:	1005d6fa 	srai	r2,r2,27
 10084a8:	1080004c 	andi	r2,r2,1
 10084ac:	d0a18915 	stw	r2,-31196(gp)
 10084b0:	e0bf7c17 	ldw	r2,-528(fp)
 10084b4:	1005d73a 	srai	r2,r2,28
 10084b8:	10c001cc 	andi	r3,r2,7
 10084bc:	e0bfff17 	ldw	r2,-4(fp)
 10084c0:	10c02715 	stw	r3,156(r2)
 10084c4:	0001883a 	nop
 10084c8:	d0a18917 	ldw	r2,-31196(gp)
 10084cc:	10001126 	beq	r2,zero,1008514 <sdhc_card_init+0x788>
 10084d0:	00000c06 	br	1008504 <sdhc_card_init+0x778>
 10084d4:	d0218a15 	stw	zero,-31192(gp)
 10084d8:	00000906 	br	1008500 <sdhc_card_init+0x774>
 10084dc:	e0bfff17 	ldw	r2,-4(fp)
 10084e0:	00c00044 	movi	r3,1
 10084e4:	10c02615 	stw	r3,152(r2)
 10084e8:	e0bfff17 	ldw	r2,-4(fp)
 10084ec:	10002715 	stw	zero,156(r2)
 10084f0:	d0218915 	stw	zero,-31196(gp)
 10084f4:	d0218a15 	stw	zero,-31192(gp)
 10084f8:	00bffd84 	movi	r2,-10
 10084fc:	00019e06 	br	1008b78 <sdhc_card_init+0xdec>
 1008500:	003fcd06 	br	1008438 <__alt_data_end+0xfffe7c38>
 1008504:	e0bfff17 	ldw	r2,-4(fp)
 1008508:	00c00084 	movi	r3,2
 100850c:	10c02615 	stw	r3,152(r2)
 1008510:	00004906 	br	1008638 <sdhc_card_init+0x8ac>
 1008514:	e0bfff17 	ldw	r2,-4(fp)
 1008518:	00c00044 	movi	r3,1
 100851c:	10c02615 	stw	r3,152(r2)
 1008520:	d8000015 	stw	zero,0(sp)
 1008524:	d8000115 	stw	zero,4(sp)
 1008528:	e13fff17 	ldw	r4,-4(fp)
 100852c:	000b883a 	mov	r5,zero
 1008530:	01800044 	movi	r6,1
 1008534:	01c000c4 	movi	r7,3
 1008538:	10021bc0 	call	10021bc <sdhc_send_command>
 100853c:	1000080e 	bge	r2,zero,1008560 <sdhc_card_init+0x7d4>
 1008540:	d0a00117 	ldw	r2,-32764(gp)
 1008544:	108000a8 	cmpgeui	r2,r2,2
 1008548:	1000031e 	bne	r2,zero,1008558 <sdhc_card_init+0x7cc>
 100854c:	01004074 	movhi	r4,257
 1008550:	210a4304 	addi	r4,r4,10508
 1008554:	1010b240 	call	1010b24 <puts>
 1008558:	00bffd84 	movi	r2,-10
 100855c:	00018606 	br	1008b78 <sdhc_card_init+0xdec>
 1008560:	e0bfff17 	ldw	r2,-4(fp)
 1008564:	10800017 	ldw	r2,0(r2)
 1008568:	10800b04 	addi	r2,r2,44
 100856c:	10800037 	ldwio	r2,0(r2)
 1008570:	1007d63a 	srai	r3,r2,24
 1008574:	e0bfff17 	ldw	r2,-4(fp)
 1008578:	10800017 	ldw	r2,0(r2)
 100857c:	10800c04 	addi	r2,r2,48
 1008580:	10800037 	ldwio	r2,0(r2)
 1008584:	1004923a 	slli	r2,r2,8
 1008588:	10bfffcc 	andi	r2,r2,65535
 100858c:	1884b03a 	or	r2,r3,r2
 1008590:	e0bf7d15 	stw	r2,-524(fp)
 1008594:	e0bfff17 	ldw	r2,-4(fp)
 1008598:	e0ff7d17 	ldw	r3,-524(fp)
 100859c:	10c00615 	stw	r3,24(r2)
 10085a0:	e0bfff17 	ldw	r2,-4(fp)
 10085a4:	10800617 	ldw	r2,24(r2)
 10085a8:	1004943a 	slli	r2,r2,16
 10085ac:	d8000015 	stw	zero,0(sp)
 10085b0:	d8000115 	stw	zero,4(sp)
 10085b4:	e13fff17 	ldw	r4,-4(fp)
 10085b8:	100b883a 	mov	r5,r2
 10085bc:	01800044 	movi	r6,1
 10085c0:	01c001c4 	movi	r7,7
 10085c4:	10021bc0 	call	10021bc <sdhc_send_command>
 10085c8:	1000020e 	bge	r2,zero,10085d4 <sdhc_card_init+0x848>
 10085cc:	00bffd84 	movi	r2,-10
 10085d0:	00016906 	br	1008b78 <sdhc_card_init+0xdec>
 10085d4:	e0bfff17 	ldw	r2,-4(fp)
 10085d8:	10000315 	stw	zero,12(r2)
 10085dc:	e0bfff17 	ldw	r2,-4(fp)
 10085e0:	00c00044 	movi	r3,1
 10085e4:	10c00215 	stw	r3,8(r2)
 10085e8:	d0a00117 	ldw	r2,-32764(gp)
 10085ec:	1000031e 	bne	r2,zero,10085fc <sdhc_card_init+0x870>
 10085f0:	01004074 	movhi	r4,257
 10085f4:	210a5a04 	addi	r4,r4,10600
 10085f8:	1010b240 	call	1010b24 <puts>
 10085fc:	d0a00117 	ldw	r2,-32764(gp)
 1008600:	1000061e 	bne	r2,zero,100861c <sdhc_card_init+0x890>
 1008604:	e0bfff17 	ldw	r2,-4(fp)
 1008608:	10802717 	ldw	r2,156(r2)
 100860c:	01004074 	movhi	r4,257
 1008610:	210a6004 	addi	r4,r4,10624
 1008614:	100b883a 	mov	r5,r2
 1008618:	1010a380 	call	1010a38 <printf>
 100861c:	e0bfff17 	ldw	r2,-4(fp)
 1008620:	10802617 	ldw	r2,152(r2)
 1008624:	00015406 	br	1008b78 <sdhc_card_init+0xdec>
 1008628:	e0bfff17 	ldw	r2,-4(fp)
 100862c:	10002615 	stw	zero,152(r2)
 1008630:	e0bfff17 	ldw	r2,-4(fp)
 1008634:	10002715 	stw	zero,156(r2)
 1008638:	d8000015 	stw	zero,0(sp)
 100863c:	d8000115 	stw	zero,4(sp)
 1008640:	e13fff17 	ldw	r4,-4(fp)
 1008644:	000b883a 	mov	r5,zero
 1008648:	01800044 	movi	r6,1
 100864c:	01c00dc4 	movi	r7,55
 1008650:	10021bc0 	call	10021bc <sdhc_send_command>
 1008654:	10000226 	beq	r2,zero,1008660 <sdhc_card_init+0x8d4>
 1008658:	00bffd84 	movi	r2,-10
 100865c:	00014606 	br	1008b78 <sdhc_card_init+0xdec>
 1008660:	d8000015 	stw	zero,0(sp)
 1008664:	d8000115 	stw	zero,4(sp)
 1008668:	e13fff17 	ldw	r4,-4(fp)
 100866c:	000b883a 	mov	r5,zero
 1008670:	01800044 	movi	r6,1
 1008674:	01c00a44 	movi	r7,41
 1008678:	10021bc0 	call	10021bc <sdhc_send_command>
 100867c:	10000226 	beq	r2,zero,1008688 <sdhc_card_init+0x8fc>
 1008680:	00bffd84 	movi	r2,-10
 1008684:	00013c06 	br	1008b78 <sdhc_card_init+0xdec>
 1008688:	e0bfff17 	ldw	r2,-4(fp)
 100868c:	10800017 	ldw	r2,0(r2)
 1008690:	10800c04 	addi	r2,r2,48
 1008694:	10800037 	ldwio	r2,0(r2)
 1008698:	1004963a 	slli	r2,r2,24
 100869c:	e0ffff17 	ldw	r3,-4(fp)
 10086a0:	18c00017 	ldw	r3,0(r3)
 10086a4:	18c00b04 	addi	r3,r3,44
 10086a8:	18c00037 	ldwio	r3,0(r3)
 10086ac:	1806d23a 	srli	r3,r3,8
 10086b0:	10c4b03a 	or	r2,r2,r3
 10086b4:	1007883a 	mov	r3,r2
 10086b8:	e0bfff17 	ldw	r2,-4(fp)
 10086bc:	10c00515 	stw	r3,20(r2)
 10086c0:	e03f7e15 	stw	zero,-520(fp)
 10086c4:	d8000015 	stw	zero,0(sp)
 10086c8:	d8000115 	stw	zero,4(sp)
 10086cc:	e13fff17 	ldw	r4,-4(fp)
 10086d0:	000b883a 	mov	r5,zero
 10086d4:	01800044 	movi	r6,1
 10086d8:	01c00dc4 	movi	r7,55
 10086dc:	10021bc0 	call	10021bc <sdhc_send_command>
 10086e0:	10000226 	beq	r2,zero,10086ec <sdhc_card_init+0x960>
 10086e4:	00bffd84 	movi	r2,-10
 10086e8:	00012306 	br	1008b78 <sdhc_card_init+0xdec>
 10086ec:	e0bfff17 	ldw	r2,-4(fp)
 10086f0:	10802017 	ldw	r2,128(r2)
 10086f4:	d8000015 	stw	zero,0(sp)
 10086f8:	d8000115 	stw	zero,4(sp)
 10086fc:	e13fff17 	ldw	r4,-4(fp)
 1008700:	100b883a 	mov	r5,r2
 1008704:	01800044 	movi	r6,1
 1008708:	01c00a44 	movi	r7,41
 100870c:	10021bc0 	call	10021bc <sdhc_send_command>
 1008710:	10000226 	beq	r2,zero,100871c <sdhc_card_init+0x990>
 1008714:	00bffd84 	movi	r2,-10
 1008718:	00011706 	br	1008b78 <sdhc_card_init+0xdec>
 100871c:	e0bfff17 	ldw	r2,-4(fp)
 1008720:	10800017 	ldw	r2,0(r2)
 1008724:	10800c04 	addi	r2,r2,48
 1008728:	10800037 	ldwio	r2,0(r2)
 100872c:	1004963a 	slli	r2,r2,24
 1008730:	e0ffff17 	ldw	r3,-4(fp)
 1008734:	18c00017 	ldw	r3,0(r3)
 1008738:	18c00b04 	addi	r3,r3,44
 100873c:	18c00037 	ldwio	r3,0(r3)
 1008740:	1806d23a 	srli	r3,r3,8
 1008744:	10c4b03a 	or	r2,r2,r3
 1008748:	10804034 	orhi	r2,r2,256
 100874c:	1007883a 	mov	r3,r2
 1008750:	e0bfff17 	ldw	r2,-4(fp)
 1008754:	10c00515 	stw	r3,20(r2)
 1008758:	e0bfff17 	ldw	r2,-4(fp)
 100875c:	10800517 	ldw	r2,20(r2)
 1008760:	1000160e 	bge	r2,zero,10087bc <sdhc_card_init+0xa30>
 1008764:	e0bfff17 	ldw	r2,-4(fp)
 1008768:	10800517 	ldw	r2,20(r2)
 100876c:	1090002c 	andhi	r2,r2,16384
 1008770:	1006d7ba 	srli	r3,r2,30
 1008774:	e0bfff17 	ldw	r2,-4(fp)
 1008778:	10c00815 	stw	r3,32(r2)
 100877c:	e0bfff17 	ldw	r2,-4(fp)
 1008780:	10800517 	ldw	r2,20(r2)
 1008784:	1080402c 	andhi	r2,r2,256
 1008788:	1006d63a 	srli	r3,r2,24
 100878c:	e0bfff17 	ldw	r2,-4(fp)
 1008790:	10c02815 	stw	r3,160(r2)
 1008794:	0001883a 	nop
 1008798:	d8000015 	stw	zero,0(sp)
 100879c:	d8000115 	stw	zero,4(sp)
 10087a0:	e13fff17 	ldw	r4,-4(fp)
 10087a4:	000b883a 	mov	r5,zero
 10087a8:	01800084 	movi	r6,2
 10087ac:	01c00084 	movi	r7,2
 10087b0:	10021bc0 	call	10021bc <sdhc_send_command>
 10087b4:	10002226 	beq	r2,zero,1008840 <sdhc_card_init+0xab4>
 10087b8:	00001f06 	br	1008838 <sdhc_card_init+0xaac>
 10087bc:	e0bf7e17 	ldw	r2,-520(fp)
 10087c0:	10bffc70 	cmpltui	r2,r2,65521
 10087c4:	1000131e 	bne	r2,zero,1008814 <sdhc_card_init+0xa88>
 10087c8:	e0bfff17 	ldw	r2,-4(fp)
 10087cc:	10c00517 	ldw	r3,20(r2)
 10087d0:	e0bfff17 	ldw	r2,-4(fp)
 10087d4:	10802017 	ldw	r2,128(r2)
 10087d8:	1884703a 	and	r2,r3,r2
 10087dc:	10000826 	beq	r2,zero,1008800 <sdhc_card_init+0xa74>
 10087e0:	d0a00117 	ldw	r2,-32764(gp)
 10087e4:	108000a8 	cmpgeui	r2,r2,2
 10087e8:	1000031e 	bne	r2,zero,10087f8 <sdhc_card_init+0xa6c>
 10087ec:	01004074 	movhi	r4,257
 10087f0:	210a6704 	addi	r4,r4,10652
 10087f4:	1010b240 	call	1010b24 <puts>
 10087f8:	00bffd84 	movi	r2,-10
 10087fc:	0000de06 	br	1008b78 <sdhc_card_init+0xdec>
 1008800:	0001883a 	nop
 1008804:	d0a00117 	ldw	r2,-32764(gp)
 1008808:	108000a8 	cmpgeui	r2,r2,2
 100880c:	1000081e 	bne	r2,zero,1008830 <sdhc_card_init+0xaa4>
 1008810:	00000406 	br	1008824 <sdhc_card_init+0xa98>
 1008814:	e0bf7e17 	ldw	r2,-520(fp)
 1008818:	10800044 	addi	r2,r2,1
 100881c:	e0bf7e15 	stw	r2,-520(fp)
 1008820:	003fa806 	br	10086c4 <__alt_data_end+0xfffe7ec4>
 1008824:	01004074 	movhi	r4,257
 1008828:	210a7904 	addi	r4,r4,10724
 100882c:	1010b240 	call	1010b24 <puts>
 1008830:	00bffd84 	movi	r2,-10
 1008834:	0000d006 	br	1008b78 <sdhc_card_init+0xdec>
 1008838:	00bffd84 	movi	r2,-10
 100883c:	0000ce06 	br	1008b78 <sdhc_card_init+0xdec>
 1008840:	d8000015 	stw	zero,0(sp)
 1008844:	d8000115 	stw	zero,4(sp)
 1008848:	e13fff17 	ldw	r4,-4(fp)
 100884c:	000b883a 	mov	r5,zero
 1008850:	01800044 	movi	r6,1
 1008854:	01c000c4 	movi	r7,3
 1008858:	10021bc0 	call	10021bc <sdhc_send_command>
 100885c:	1000080e 	bge	r2,zero,1008880 <sdhc_card_init+0xaf4>
 1008860:	d0a00117 	ldw	r2,-32764(gp)
 1008864:	108000a8 	cmpgeui	r2,r2,2
 1008868:	1000031e 	bne	r2,zero,1008878 <sdhc_card_init+0xaec>
 100886c:	01004074 	movhi	r4,257
 1008870:	210a4304 	addi	r4,r4,10508
 1008874:	1010b240 	call	1010b24 <puts>
 1008878:	00bffd84 	movi	r2,-10
 100887c:	0000be06 	br	1008b78 <sdhc_card_init+0xdec>
 1008880:	e0bfff17 	ldw	r2,-4(fp)
 1008884:	10800017 	ldw	r2,0(r2)
 1008888:	10800c04 	addi	r2,r2,48
 100888c:	10800037 	ldwio	r2,0(r2)
 1008890:	1004923a 	slli	r2,r2,8
 1008894:	10ffffcc 	andi	r3,r2,65535
 1008898:	e0bfff17 	ldw	r2,-4(fp)
 100889c:	10800017 	ldw	r2,0(r2)
 10088a0:	10800b04 	addi	r2,r2,44
 10088a4:	10800037 	ldwio	r2,0(r2)
 10088a8:	1004d63a 	srli	r2,r2,24
 10088ac:	1886b03a 	or	r3,r3,r2
 10088b0:	e0bfff17 	ldw	r2,-4(fp)
 10088b4:	10c00615 	stw	r3,24(r2)
 10088b8:	e0bfff17 	ldw	r2,-4(fp)
 10088bc:	10800617 	ldw	r2,24(r2)
 10088c0:	1004943a 	slli	r2,r2,16
 10088c4:	d8000015 	stw	zero,0(sp)
 10088c8:	d8000115 	stw	zero,4(sp)
 10088cc:	e13fff17 	ldw	r4,-4(fp)
 10088d0:	100b883a 	mov	r5,r2
 10088d4:	01800084 	movi	r6,2
 10088d8:	01c00244 	movi	r7,9
 10088dc:	10021bc0 	call	10021bc <sdhc_send_command>
 10088e0:	1000080e 	bge	r2,zero,1008904 <sdhc_card_init+0xb78>
 10088e4:	d0a00117 	ldw	r2,-32764(gp)
 10088e8:	108000a8 	cmpgeui	r2,r2,2
 10088ec:	1000031e 	bne	r2,zero,10088fc <sdhc_card_init+0xb70>
 10088f0:	01004074 	movhi	r4,257
 10088f4:	210a4d04 	addi	r4,r4,10548
 10088f8:	1010b240 	call	1010b24 <puts>
 10088fc:	00bffd84 	movi	r2,-10
 1008900:	00009d06 	br	1008b78 <sdhc_card_init+0xdec>
 1008904:	e0bfff17 	ldw	r2,-4(fp)
 1008908:	10800017 	ldw	r2,0(r2)
 100890c:	10800b04 	addi	r2,r2,44
 1008910:	10800037 	ldwio	r2,0(r2)
 1008914:	1007883a 	mov	r3,r2
 1008918:	e0bfff17 	ldw	r2,-4(fp)
 100891c:	10c01015 	stw	r3,64(r2)
 1008920:	e0bfff17 	ldw	r2,-4(fp)
 1008924:	10800017 	ldw	r2,0(r2)
 1008928:	10800c04 	addi	r2,r2,48
 100892c:	10800037 	ldwio	r2,0(r2)
 1008930:	1007883a 	mov	r3,r2
 1008934:	e0bfff17 	ldw	r2,-4(fp)
 1008938:	10c00f15 	stw	r3,60(r2)
 100893c:	e0bfff17 	ldw	r2,-4(fp)
 1008940:	10800017 	ldw	r2,0(r2)
 1008944:	10800d04 	addi	r2,r2,52
 1008948:	10800037 	ldwio	r2,0(r2)
 100894c:	1007883a 	mov	r3,r2
 1008950:	e0bfff17 	ldw	r2,-4(fp)
 1008954:	10c00e15 	stw	r3,56(r2)
 1008958:	e0bfff17 	ldw	r2,-4(fp)
 100895c:	10800017 	ldw	r2,0(r2)
 1008960:	10800e04 	addi	r2,r2,56
 1008964:	10800037 	ldwio	r2,0(r2)
 1008968:	1007883a 	mov	r3,r2
 100896c:	e0bfff17 	ldw	r2,-4(fp)
 1008970:	10c00d15 	stw	r3,52(r2)
 1008974:	e0bfff17 	ldw	r2,-4(fp)
 1008978:	10c01704 	addi	r3,r2,92
 100897c:	e0bfff17 	ldw	r2,-4(fp)
 1008980:	10800d04 	addi	r2,r2,52
 1008984:	e13fff17 	ldw	r4,-4(fp)
 1008988:	180b883a 	mov	r5,r3
 100898c:	100d883a 	mov	r6,r2
 1008990:	10049a00 	call	10049a0 <sdhc_decode_csd>
 1008994:	e0bfff17 	ldw	r2,-4(fp)
 1008998:	10800617 	ldw	r2,24(r2)
 100899c:	1004943a 	slli	r2,r2,16
 10089a0:	d8000015 	stw	zero,0(sp)
 10089a4:	d8000115 	stw	zero,4(sp)
 10089a8:	e13fff17 	ldw	r4,-4(fp)
 10089ac:	100b883a 	mov	r5,r2
 10089b0:	01800084 	movi	r6,2
 10089b4:	01c00284 	movi	r7,10
 10089b8:	10021bc0 	call	10021bc <sdhc_send_command>
 10089bc:	1000080e 	bge	r2,zero,10089e0 <sdhc_card_init+0xc54>
 10089c0:	d0a00117 	ldw	r2,-32764(gp)
 10089c4:	108000a8 	cmpgeui	r2,r2,2
 10089c8:	1000031e 	bne	r2,zero,10089d8 <sdhc_card_init+0xc4c>
 10089cc:	01004074 	movhi	r4,257
 10089d0:	210a5304 	addi	r4,r4,10572
 10089d4:	1010b240 	call	1010b24 <puts>
 10089d8:	00bffd84 	movi	r2,-10
 10089dc:	00006606 	br	1008b78 <sdhc_card_init+0xdec>
 10089e0:	e0bfff17 	ldw	r2,-4(fp)
 10089e4:	10800017 	ldw	r2,0(r2)
 10089e8:	10800b04 	addi	r2,r2,44
 10089ec:	10800037 	ldwio	r2,0(r2)
 10089f0:	1007883a 	mov	r3,r2
 10089f4:	e0bfff17 	ldw	r2,-4(fp)
 10089f8:	10c00c15 	stw	r3,48(r2)
 10089fc:	e0bfff17 	ldw	r2,-4(fp)
 1008a00:	10800017 	ldw	r2,0(r2)
 1008a04:	10800c04 	addi	r2,r2,48
 1008a08:	10800037 	ldwio	r2,0(r2)
 1008a0c:	1007883a 	mov	r3,r2
 1008a10:	e0bfff17 	ldw	r2,-4(fp)
 1008a14:	10c00b15 	stw	r3,44(r2)
 1008a18:	e0bfff17 	ldw	r2,-4(fp)
 1008a1c:	10800017 	ldw	r2,0(r2)
 1008a20:	10800d04 	addi	r2,r2,52
 1008a24:	10800037 	ldwio	r2,0(r2)
 1008a28:	1007883a 	mov	r3,r2
 1008a2c:	e0bfff17 	ldw	r2,-4(fp)
 1008a30:	10c00a15 	stw	r3,40(r2)
 1008a34:	e0bfff17 	ldw	r2,-4(fp)
 1008a38:	10800017 	ldw	r2,0(r2)
 1008a3c:	10800e04 	addi	r2,r2,56
 1008a40:	10800037 	ldwio	r2,0(r2)
 1008a44:	1007883a 	mov	r3,r2
 1008a48:	e0bfff17 	ldw	r2,-4(fp)
 1008a4c:	10c00915 	stw	r3,36(r2)
 1008a50:	e0bfff17 	ldw	r2,-4(fp)
 1008a54:	10c01104 	addi	r3,r2,68
 1008a58:	e0bfff17 	ldw	r2,-4(fp)
 1008a5c:	10800904 	addi	r2,r2,36
 1008a60:	e13fff17 	ldw	r4,-4(fp)
 1008a64:	180b883a 	mov	r5,r3
 1008a68:	100d883a 	mov	r6,r2
 1008a6c:	1002f200 	call	1002f20 <sdhc_decode_cid>
 1008a70:	e0bfff17 	ldw	r2,-4(fp)
 1008a74:	10800617 	ldw	r2,24(r2)
 1008a78:	1004943a 	slli	r2,r2,16
 1008a7c:	d8000015 	stw	zero,0(sp)
 1008a80:	d8000115 	stw	zero,4(sp)
 1008a84:	e13fff17 	ldw	r4,-4(fp)
 1008a88:	100b883a 	mov	r5,r2
 1008a8c:	018000c4 	movi	r6,3
 1008a90:	01c001c4 	movi	r7,7
 1008a94:	10021bc0 	call	10021bc <sdhc_send_command>
 1008a98:	1000020e 	bge	r2,zero,1008aa4 <sdhc_card_init+0xd18>
 1008a9c:	00bffd84 	movi	r2,-10
 1008aa0:	00003506 	br	1008b78 <sdhc_card_init+0xdec>
 1008aa4:	e0bfff17 	ldw	r2,-4(fp)
 1008aa8:	10800617 	ldw	r2,24(r2)
 1008aac:	1004943a 	slli	r2,r2,16
 1008ab0:	d8000015 	stw	zero,0(sp)
 1008ab4:	d8000115 	stw	zero,4(sp)
 1008ab8:	e13fff17 	ldw	r4,-4(fp)
 1008abc:	100b883a 	mov	r5,r2
 1008ac0:	01800044 	movi	r6,1
 1008ac4:	01c00dc4 	movi	r7,55
 1008ac8:	10021bc0 	call	10021bc <sdhc_send_command>
 1008acc:	10000226 	beq	r2,zero,1008ad8 <sdhc_card_init+0xd4c>
 1008ad0:	00bffd84 	movi	r2,-10
 1008ad4:	00002806 	br	1008b78 <sdhc_card_init+0xdec>
 1008ad8:	d8000015 	stw	zero,0(sp)
 1008adc:	d8000115 	stw	zero,4(sp)
 1008ae0:	e13fff17 	ldw	r4,-4(fp)
 1008ae4:	000b883a 	mov	r5,zero
 1008ae8:	01800044 	movi	r6,1
 1008aec:	01c00a84 	movi	r7,42
 1008af0:	10021bc0 	call	10021bc <sdhc_send_command>
 1008af4:	10000226 	beq	r2,zero,1008b00 <sdhc_card_init+0xd74>
 1008af8:	00bffd84 	movi	r2,-10
 1008afc:	00001e06 	br	1008b78 <sdhc_card_init+0xdec>
 1008b00:	d8000015 	stw	zero,0(sp)
 1008b04:	d8000115 	stw	zero,4(sp)
 1008b08:	e13fff17 	ldw	r4,-4(fp)
 1008b0c:	01408004 	movi	r5,512
 1008b10:	01800044 	movi	r6,1
 1008b14:	01c00404 	movi	r7,16
 1008b18:	10021bc0 	call	10021bc <sdhc_send_command>
 1008b1c:	1000020e 	bge	r2,zero,1008b28 <sdhc_card_init+0xd9c>
 1008b20:	00bffd84 	movi	r2,-10
 1008b24:	00001406 	br	1008b78 <sdhc_card_init+0xdec>
 1008b28:	e0bfff17 	ldw	r2,-4(fp)
 1008b2c:	10c01e17 	ldw	r3,120(r2)
 1008b30:	e0bfff17 	ldw	r2,-4(fp)
 1008b34:	10801c17 	ldw	r2,112(r2)
 1008b38:	1009883a 	mov	r4,r2
 1008b3c:	00800044 	movi	r2,1
 1008b40:	1104983a 	sll	r2,r2,r4
 1008b44:	1000010e 	bge	r2,zero,1008b4c <sdhc_card_init+0xdc0>
 1008b48:	10807fc4 	addi	r2,r2,511
 1008b4c:	1005d27a 	srai	r2,r2,9
 1008b50:	1887383a 	mul	r3,r3,r2
 1008b54:	e0bfff17 	ldw	r2,-4(fp)
 1008b58:	10c01e15 	stw	r3,120(r2)
 1008b5c:	e13fff17 	ldw	r4,-4(fp)
 1008b60:	1001ee00 	call	1001ee0 <sdhc_sd_write_protected>
 1008b64:	e0bfff17 	ldw	r2,-4(fp)
 1008b68:	00c00044 	movi	r3,1
 1008b6c:	10c00215 	stw	r3,8(r2)
 1008b70:	e0bfff17 	ldw	r2,-4(fp)
 1008b74:	10802617 	ldw	r2,152(r2)
 1008b78:	e037883a 	mov	sp,fp
 1008b7c:	dfc00117 	ldw	ra,4(sp)
 1008b80:	df000017 	ldw	fp,0(sp)
 1008b84:	dec00204 	addi	sp,sp,8
 1008b88:	f800283a 	ret

01008b8c <usb20sr_phy_register_enable>:
 1008b8c:	defffe04 	addi	sp,sp,-8
 1008b90:	df000115 	stw	fp,4(sp)
 1008b94:	df000104 	addi	fp,sp,4
 1008b98:	e13fff15 	stw	r4,-4(fp)
 1008b9c:	e0bfff17 	ldw	r2,-4(fp)
 1008ba0:	10801517 	ldw	r2,84(r2)
 1008ba4:	10807c04 	addi	r2,r2,496
 1008ba8:	1007883a 	mov	r3,r2
 1008bac:	00800044 	movi	r2,1
 1008bb0:	18800025 	stbio	r2,0(r3)
 1008bb4:	e037883a 	mov	sp,fp
 1008bb8:	df000017 	ldw	fp,0(sp)
 1008bbc:	dec00104 	addi	sp,sp,4
 1008bc0:	f800283a 	ret

01008bc4 <usb20sr_phy_register_disable>:
 1008bc4:	defffe04 	addi	sp,sp,-8
 1008bc8:	df000115 	stw	fp,4(sp)
 1008bcc:	df000104 	addi	fp,sp,4
 1008bd0:	e13fff15 	stw	r4,-4(fp)
 1008bd4:	e0bfff17 	ldw	r2,-4(fp)
 1008bd8:	10801517 	ldw	r2,84(r2)
 1008bdc:	10807c04 	addi	r2,r2,496
 1008be0:	0007883a 	mov	r3,zero
 1008be4:	10c00025 	stbio	r3,0(r2)
 1008be8:	e037883a 	mov	sp,fp
 1008bec:	df000017 	ldw	fp,0(sp)
 1008bf0:	dec00104 	addi	sp,sp,4
 1008bf4:	f800283a 	ret

01008bf8 <usb20sr_set_dev_speed>:
 1008bf8:	defffd04 	addi	sp,sp,-12
 1008bfc:	df000215 	stw	fp,8(sp)
 1008c00:	df000204 	addi	fp,sp,8
 1008c04:	e13ffe15 	stw	r4,-8(fp)
 1008c08:	e17fff15 	stw	r5,-4(fp)
 1008c0c:	e0bffe17 	ldw	r2,-8(fp)
 1008c10:	10801517 	ldw	r2,84(r2)
 1008c14:	10807e04 	addi	r2,r2,504
 1008c18:	1007883a 	mov	r3,r2
 1008c1c:	e0bfff03 	ldbu	r2,-4(fp)
 1008c20:	18800025 	stbio	r2,0(r3)
 1008c24:	e037883a 	mov	sp,fp
 1008c28:	df000017 	ldw	fp,0(sp)
 1008c2c:	dec00104 	addi	sp,sp,4
 1008c30:	f800283a 	ret

01008c34 <usb20sr_get_dev_speed>:
 1008c34:	defffe04 	addi	sp,sp,-8
 1008c38:	df000115 	stw	fp,4(sp)
 1008c3c:	df000104 	addi	fp,sp,4
 1008c40:	e13fff15 	stw	r4,-4(fp)
 1008c44:	e0bfff17 	ldw	r2,-4(fp)
 1008c48:	10800c17 	ldw	r2,48(r2)
 1008c4c:	e037883a 	mov	sp,fp
 1008c50:	df000017 	ldw	fp,0(sp)
 1008c54:	dec00104 	addi	sp,sp,4
 1008c58:	f800283a 	ret

01008c5c <usb20sr_phy_register_write>:
 1008c5c:	defffb04 	addi	sp,sp,-20
 1008c60:	df000415 	stw	fp,16(sp)
 1008c64:	df000404 	addi	fp,sp,16
 1008c68:	e13ffd15 	stw	r4,-12(fp)
 1008c6c:	e17ffe15 	stw	r5,-8(fp)
 1008c70:	e1bfff15 	stw	r6,-4(fp)
 1008c74:	e03ffc15 	stw	zero,-16(fp)
 1008c78:	e0bfff17 	ldw	r2,-4(fp)
 1008c7c:	1004923a 	slli	r2,r2,8
 1008c80:	e0bfff15 	stw	r2,-4(fp)
 1008c84:	e0fffe17 	ldw	r3,-8(fp)
 1008c88:	e0bfff17 	ldw	r2,-4(fp)
 1008c8c:	1887883a 	add	r3,r3,r2
 1008c90:	00804034 	movhi	r2,256
 1008c94:	1885883a 	add	r2,r3,r2
 1008c98:	e0bffc15 	stw	r2,-16(fp)
 1008c9c:	e0bffd17 	ldw	r2,-12(fp)
 1008ca0:	10801517 	ldw	r2,84(r2)
 1008ca4:	10807d04 	addi	r2,r2,500
 1008ca8:	1007883a 	mov	r3,r2
 1008cac:	e0bffc17 	ldw	r2,-16(fp)
 1008cb0:	18800035 	stwio	r2,0(r3)
 1008cb4:	0001883a 	nop
 1008cb8:	e0bffd17 	ldw	r2,-12(fp)
 1008cbc:	10801517 	ldw	r2,84(r2)
 1008cc0:	10807d04 	addi	r2,r2,500
 1008cc4:	10800037 	ldwio	r2,0(r2)
 1008cc8:	e037883a 	mov	sp,fp
 1008ccc:	df000017 	ldw	fp,0(sp)
 1008cd0:	dec00104 	addi	sp,sp,4
 1008cd4:	f800283a 	ret

01008cd8 <usb20sr_phy_register_read>:
 1008cd8:	defffb04 	addi	sp,sp,-20
 1008cdc:	df000415 	stw	fp,16(sp)
 1008ce0:	df000404 	addi	fp,sp,16
 1008ce4:	e13ffd15 	stw	r4,-12(fp)
 1008ce8:	e17ffe15 	stw	r5,-8(fp)
 1008cec:	e1bfff15 	stw	r6,-4(fp)
 1008cf0:	e03ffc15 	stw	zero,-16(fp)
 1008cf4:	e0fffe17 	ldw	r3,-8(fp)
 1008cf8:	00808034 	movhi	r2,512
 1008cfc:	1885883a 	add	r2,r3,r2
 1008d00:	e0bffc15 	stw	r2,-16(fp)
 1008d04:	e0bffd17 	ldw	r2,-12(fp)
 1008d08:	10801517 	ldw	r2,84(r2)
 1008d0c:	10807d04 	addi	r2,r2,500
 1008d10:	1007883a 	mov	r3,r2
 1008d14:	e0bffc17 	ldw	r2,-16(fp)
 1008d18:	18800035 	stwio	r2,0(r3)
 1008d1c:	0001883a 	nop
 1008d20:	e0bffd17 	ldw	r2,-12(fp)
 1008d24:	10801517 	ldw	r2,84(r2)
 1008d28:	10807d04 	addi	r2,r2,500
 1008d2c:	10800037 	ldwio	r2,0(r2)
 1008d30:	e0bffd17 	ldw	r2,-12(fp)
 1008d34:	10801517 	ldw	r2,84(r2)
 1008d38:	10807d04 	addi	r2,r2,500
 1008d3c:	10800037 	ldwio	r2,0(r2)
 1008d40:	1007d43a 	srai	r3,r2,16
 1008d44:	e0bfff17 	ldw	r2,-4(fp)
 1008d48:	10c00015 	stw	r3,0(r2)
 1008d4c:	e037883a 	mov	sp,fp
 1008d50:	df000017 	ldw	fp,0(sp)
 1008d54:	dec00104 	addi	sp,sp,4
 1008d58:	f800283a 	ret

01008d5c <usb20sr_set_low_power_mode>:
 1008d5c:	defffe04 	addi	sp,sp,-8
 1008d60:	df000115 	stw	fp,4(sp)
 1008d64:	df000104 	addi	fp,sp,4
 1008d68:	e13fff15 	stw	r4,-4(fp)
 1008d6c:	e0bfff17 	ldw	r2,-4(fp)
 1008d70:	10801517 	ldw	r2,84(r2)
 1008d74:	10807d04 	addi	r2,r2,500
 1008d78:	1007883a 	mov	r3,r2
 1008d7c:	00804034 	movhi	r2,256
 1008d80:	10800104 	addi	r2,r2,4
 1008d84:	18800035 	stwio	r2,0(r3)
 1008d88:	e037883a 	mov	sp,fp
 1008d8c:	df000017 	ldw	fp,0(sp)
 1008d90:	dec00104 	addi	sp,sp,4
 1008d94:	f800283a 	ret

01008d98 <get_current_micro_frame_no>:
 1008d98:	defffe04 	addi	sp,sp,-8
 1008d9c:	df000115 	stw	fp,4(sp)
 1008da0:	df000104 	addi	fp,sp,4
 1008da4:	e13fff15 	stw	r4,-4(fp)
 1008da8:	e0bfff17 	ldw	r2,-4(fp)
 1008dac:	10801517 	ldw	r2,84(r2)
 1008db0:	10800504 	addi	r2,r2,20
 1008db4:	10800037 	ldwio	r2,0(r2)
 1008db8:	1004d73a 	srli	r2,r2,28
 1008dbc:	e037883a 	mov	sp,fp
 1008dc0:	df000017 	ldw	fp,0(sp)
 1008dc4:	dec00104 	addi	sp,sp,4
 1008dc8:	f800283a 	ret

01008dcc <get_current_frame_no>:
 1008dcc:	defffe04 	addi	sp,sp,-8
 1008dd0:	df000115 	stw	fp,4(sp)
 1008dd4:	df000104 	addi	fp,sp,4
 1008dd8:	e13fff15 	stw	r4,-4(fp)
 1008ddc:	e0bfff17 	ldw	r2,-4(fp)
 1008de0:	10801517 	ldw	r2,84(r2)
 1008de4:	10800504 	addi	r2,r2,20
 1008de8:	10800037 	ldwio	r2,0(r2)
 1008dec:	1081ffec 	andhi	r2,r2,2047
 1008df0:	1005d43a 	srai	r2,r2,16
 1008df4:	e037883a 	mov	sp,fp
 1008df8:	df000017 	ldw	fp,0(sp)
 1008dfc:	dec00104 	addi	sp,sp,4
 1008e00:	f800283a 	ret

01008e04 <get_sof_time>:
 1008e04:	defffe04 	addi	sp,sp,-8
 1008e08:	df000115 	stw	fp,4(sp)
 1008e0c:	df000104 	addi	fp,sp,4
 1008e10:	e13fff15 	stw	r4,-4(fp)
 1008e14:	e0bfff17 	ldw	r2,-4(fp)
 1008e18:	10801517 	ldw	r2,84(r2)
 1008e1c:	10800504 	addi	r2,r2,20
 1008e20:	10800037 	ldwio	r2,0(r2)
 1008e24:	1083ffcc 	andi	r2,r2,4095
 1008e28:	e037883a 	mov	sp,fp
 1008e2c:	df000017 	ldw	fp,0(sp)
 1008e30:	dec00104 	addi	sp,sp,4
 1008e34:	f800283a 	ret

01008e38 <get_current_config>:
 1008e38:	defffe04 	addi	sp,sp,-8
 1008e3c:	df000115 	stw	fp,4(sp)
 1008e40:	df000104 	addi	fp,sp,4
 1008e44:	e13fff15 	stw	r4,-4(fp)
 1008e48:	e0bfff17 	ldw	r2,-4(fp)
 1008e4c:	10802817 	ldw	r2,160(r2)
 1008e50:	e037883a 	mov	sp,fp
 1008e54:	df000017 	ldw	fp,0(sp)
 1008e58:	dec00104 	addi	sp,sp,4
 1008e5c:	f800283a 	ret

01008e60 <get_current_interface>:
 1008e60:	defffe04 	addi	sp,sp,-8
 1008e64:	df000115 	stw	fp,4(sp)
 1008e68:	df000104 	addi	fp,sp,4
 1008e6c:	e13fff15 	stw	r4,-4(fp)
 1008e70:	e0bfff17 	ldw	r2,-4(fp)
 1008e74:	10802a17 	ldw	r2,168(r2)
 1008e78:	e037883a 	mov	sp,fp
 1008e7c:	df000017 	ldw	fp,0(sp)
 1008e80:	dec00104 	addi	sp,sp,4
 1008e84:	f800283a 	ret

01008e88 <get_current_alt_settings>:
 1008e88:	defffe04 	addi	sp,sp,-8
 1008e8c:	df000115 	stw	fp,4(sp)
 1008e90:	df000104 	addi	fp,sp,4
 1008e94:	e13fff15 	stw	r4,-4(fp)
 1008e98:	e0bfff17 	ldw	r2,-4(fp)
 1008e9c:	10802b17 	ldw	r2,172(r2)
 1008ea0:	e037883a 	mov	sp,fp
 1008ea4:	df000017 	ldw	fp,0(sp)
 1008ea8:	dec00104 	addi	sp,sp,4
 1008eac:	f800283a 	ret

01008eb0 <ifConfigured>:
 1008eb0:	defffe04 	addi	sp,sp,-8
 1008eb4:	df000115 	stw	fp,4(sp)
 1008eb8:	df000104 	addi	fp,sp,4
 1008ebc:	e13fff15 	stw	r4,-4(fp)
 1008ec0:	e0bfff17 	ldw	r2,-4(fp)
 1008ec4:	1081bc03 	ldbu	r2,1776(r2)
 1008ec8:	e037883a 	mov	sp,fp
 1008ecc:	df000017 	ldw	fp,0(sp)
 1008ed0:	dec00104 	addi	sp,sp,4
 1008ed4:	f800283a 	ret

01008ed8 <SetRemoteWakeUp>:
 1008ed8:	defffe04 	addi	sp,sp,-8
 1008edc:	df000115 	stw	fp,4(sp)
 1008ee0:	df000104 	addi	fp,sp,4
 1008ee4:	e13fff15 	stw	r4,-4(fp)
 1008ee8:	e0bfff17 	ldw	r2,-4(fp)
 1008eec:	10800f17 	ldw	r2,60(r2)
 1008ef0:	10800118 	cmpnei	r2,r2,4
 1008ef4:	1000061e 	bne	r2,zero,1008f10 <SetRemoteWakeUp+0x38>
 1008ef8:	e0bfff17 	ldw	r2,-4(fp)
 1008efc:	10801517 	ldw	r2,84(r2)
 1008f00:	10801004 	addi	r2,r2,64
 1008f04:	1007883a 	mov	r3,r2
 1008f08:	00802004 	movi	r2,128
 1008f0c:	18800035 	stwio	r2,0(r3)
 1008f10:	e037883a 	mov	sp,fp
 1008f14:	df000017 	ldw	fp,0(sp)
 1008f18:	dec00104 	addi	sp,sp,4
 1008f1c:	f800283a 	ret

01008f20 <USB_SetStallEP>:
 1008f20:	defffc04 	addi	sp,sp,-16
 1008f24:	df000315 	stw	fp,12(sp)
 1008f28:	df000304 	addi	fp,sp,12
 1008f2c:	e13ffe15 	stw	r4,-8(fp)
 1008f30:	e17fff15 	stw	r5,-4(fp)
 1008f34:	e0bfff17 	ldw	r2,-4(fp)
 1008f38:	108003cc 	andi	r2,r2,15
 1008f3c:	10800104 	addi	r2,r2,4
 1008f40:	1004913a 	slli	r2,r2,4
 1008f44:	1007883a 	mov	r3,r2
 1008f48:	e0bffe17 	ldw	r2,-8(fp)
 1008f4c:	10801517 	ldw	r2,84(r2)
 1008f50:	1885883a 	add	r2,r3,r2
 1008f54:	10800037 	ldwio	r2,0(r2)
 1008f58:	e0bffd15 	stw	r2,-12(fp)
 1008f5c:	e0bfff17 	ldw	r2,-4(fp)
 1008f60:	108003cc 	andi	r2,r2,15
 1008f64:	10800104 	addi	r2,r2,4
 1008f68:	1004913a 	slli	r2,r2,4
 1008f6c:	1007883a 	mov	r3,r2
 1008f70:	e0bffe17 	ldw	r2,-8(fp)
 1008f74:	10801517 	ldw	r2,84(r2)
 1008f78:	1885883a 	add	r2,r3,r2
 1008f7c:	1007883a 	mov	r3,r2
 1008f80:	e0bffd17 	ldw	r2,-12(fp)
 1008f84:	10802034 	orhi	r2,r2,128
 1008f88:	18800035 	stwio	r2,0(r3)
 1008f8c:	e037883a 	mov	sp,fp
 1008f90:	df000017 	ldw	fp,0(sp)
 1008f94:	dec00104 	addi	sp,sp,4
 1008f98:	f800283a 	ret

01008f9c <USB_ClrStallEP>:
 1008f9c:	defffc04 	addi	sp,sp,-16
 1008fa0:	df000315 	stw	fp,12(sp)
 1008fa4:	df000304 	addi	fp,sp,12
 1008fa8:	e13ffe15 	stw	r4,-8(fp)
 1008fac:	e17fff15 	stw	r5,-4(fp)
 1008fb0:	e0bfff17 	ldw	r2,-4(fp)
 1008fb4:	108003cc 	andi	r2,r2,15
 1008fb8:	10800104 	addi	r2,r2,4
 1008fbc:	1004913a 	slli	r2,r2,4
 1008fc0:	1007883a 	mov	r3,r2
 1008fc4:	e0bffe17 	ldw	r2,-8(fp)
 1008fc8:	10801517 	ldw	r2,84(r2)
 1008fcc:	1885883a 	add	r2,r3,r2
 1008fd0:	10800037 	ldwio	r2,0(r2)
 1008fd4:	e0bffd15 	stw	r2,-12(fp)
 1008fd8:	e0bfff17 	ldw	r2,-4(fp)
 1008fdc:	108003cc 	andi	r2,r2,15
 1008fe0:	10800104 	addi	r2,r2,4
 1008fe4:	1004913a 	slli	r2,r2,4
 1008fe8:	1007883a 	mov	r3,r2
 1008fec:	e0bffe17 	ldw	r2,-8(fp)
 1008ff0:	10801517 	ldw	r2,84(r2)
 1008ff4:	1885883a 	add	r2,r3,r2
 1008ff8:	1009883a 	mov	r4,r2
 1008ffc:	e0fffd17 	ldw	r3,-12(fp)
 1009000:	00b3d034 	movhi	r2,53056
 1009004:	10bfffc4 	addi	r2,r2,-1
 1009008:	1884703a 	and	r2,r3,r2
 100900c:	20800035 	stwio	r2,0(r4)
 1009010:	e037883a 	mov	sp,fp
 1009014:	df000017 	ldw	fp,0(sp)
 1009018:	dec00104 	addi	sp,sp,4
 100901c:	f800283a 	ret

01009020 <usb_initialize_descriptor>:
 1009020:	defffb04 	addi	sp,sp,-20
 1009024:	df000415 	stw	fp,16(sp)
 1009028:	df000404 	addi	fp,sp,16
 100902c:	e13ffc15 	stw	r4,-16(fp)
 1009030:	e17ffd15 	stw	r5,-12(fp)
 1009034:	e1bffe15 	stw	r6,-8(fp)
 1009038:	e1ffff15 	stw	r7,-4(fp)
 100903c:	e0bffc17 	ldw	r2,-16(fp)
 1009040:	e0fffd17 	ldw	r3,-12(fp)
 1009044:	10c00315 	stw	r3,12(r2)
 1009048:	e0bffc17 	ldw	r2,-16(fp)
 100904c:	e0fffe17 	ldw	r3,-8(fp)
 1009050:	10c00415 	stw	r3,16(r2)
 1009054:	e0bffc17 	ldw	r2,-16(fp)
 1009058:	e0ffff17 	ldw	r3,-4(fp)
 100905c:	10c00515 	stw	r3,20(r2)
 1009060:	e0bffc17 	ldw	r2,-16(fp)
 1009064:	e0c00117 	ldw	r3,4(fp)
 1009068:	10c00615 	stw	r3,24(r2)
 100906c:	e0bffc17 	ldw	r2,-16(fp)
 1009070:	e0c00517 	ldw	r3,20(fp)
 1009074:	10c00715 	stw	r3,28(r2)
 1009078:	e0bffc17 	ldw	r2,-16(fp)
 100907c:	e0c00617 	ldw	r3,24(fp)
 1009080:	10c00815 	stw	r3,32(r2)
 1009084:	e0bffc17 	ldw	r2,-16(fp)
 1009088:	e0c00817 	ldw	r3,32(fp)
 100908c:	10c00915 	stw	r3,36(r2)
 1009090:	e0bffc17 	ldw	r2,-16(fp)
 1009094:	e0c00917 	ldw	r3,36(fp)
 1009098:	10c00a15 	stw	r3,40(r2)
 100909c:	e0bffc17 	ldw	r2,-16(fp)
 10090a0:	e0c00a17 	ldw	r3,40(fp)
 10090a4:	10c00b15 	stw	r3,44(r2)
 10090a8:	e0bffc17 	ldw	r2,-16(fp)
 10090ac:	e0c00217 	ldw	r3,8(fp)
 10090b0:	10c02f15 	stw	r3,188(r2)
 10090b4:	e0bffc17 	ldw	r2,-16(fp)
 10090b8:	e0c00317 	ldw	r3,12(fp)
 10090bc:	10c03015 	stw	r3,192(r2)
 10090c0:	e0bffc17 	ldw	r2,-16(fp)
 10090c4:	e0c00417 	ldw	r3,16(fp)
 10090c8:	10c03115 	stw	r3,196(r2)
 10090cc:	e0bffc17 	ldw	r2,-16(fp)
 10090d0:	e0c00717 	ldw	r3,28(fp)
 10090d4:	10c01815 	stw	r3,96(r2)
 10090d8:	e0bffc17 	ldw	r2,-16(fp)
 10090dc:	10003815 	stw	zero,224(r2)
 10090e0:	e0bffc17 	ldw	r2,-16(fp)
 10090e4:	10003915 	stw	zero,228(r2)
 10090e8:	e0bffc17 	ldw	r2,-16(fp)
 10090ec:	10003615 	stw	zero,216(r2)
 10090f0:	e0bffc17 	ldw	r2,-16(fp)
 10090f4:	10003715 	stw	zero,220(r2)
 10090f8:	e0bffc17 	ldw	r2,-16(fp)
 10090fc:	10003a15 	stw	zero,232(r2)
 1009100:	e0bffc17 	ldw	r2,-16(fp)
 1009104:	10003b15 	stw	zero,236(r2)
 1009108:	e037883a 	mov	sp,fp
 100910c:	df000017 	ldw	fp,0(sp)
 1009110:	dec00104 	addi	sp,sp,4
 1009114:	f800283a 	ret

01009118 <usb_ep_config>:
 1009118:	defffb04 	addi	sp,sp,-20
 100911c:	df000415 	stw	fp,16(sp)
 1009120:	df000404 	addi	fp,sp,16
 1009124:	e13ffc15 	stw	r4,-16(fp)
 1009128:	e17ffd15 	stw	r5,-12(fp)
 100912c:	e1bffe15 	stw	r6,-8(fp)
 1009130:	e1ffff15 	stw	r7,-4(fp)
 1009134:	e0bffc17 	ldw	r2,-16(fp)
 1009138:	e0fffd17 	ldw	r3,-12(fp)
 100913c:	10c01915 	stw	r3,100(r2)
 1009140:	e0bffc17 	ldw	r2,-16(fp)
 1009144:	e0fffe17 	ldw	r3,-8(fp)
 1009148:	10c01a15 	stw	r3,104(r2)
 100914c:	e0bffc17 	ldw	r2,-16(fp)
 1009150:	e0ffff17 	ldw	r3,-4(fp)
 1009154:	10c01b15 	stw	r3,108(r2)
 1009158:	e0bffc17 	ldw	r2,-16(fp)
 100915c:	e0c00117 	ldw	r3,4(fp)
 1009160:	10c01c15 	stw	r3,112(r2)
 1009164:	e0bffc17 	ldw	r2,-16(fp)
 1009168:	e0c00217 	ldw	r3,8(fp)
 100916c:	10c01d15 	stw	r3,116(r2)
 1009170:	e0bffc17 	ldw	r2,-16(fp)
 1009174:	e0c00317 	ldw	r3,12(fp)
 1009178:	10c01e15 	stw	r3,120(r2)
 100917c:	e0bffc17 	ldw	r2,-16(fp)
 1009180:	e0c00417 	ldw	r3,16(fp)
 1009184:	10c01f15 	stw	r3,124(r2)
 1009188:	e0bffc17 	ldw	r2,-16(fp)
 100918c:	e0c00517 	ldw	r3,20(fp)
 1009190:	10c02015 	stw	r3,128(r2)
 1009194:	e0bffc17 	ldw	r2,-16(fp)
 1009198:	e0c00617 	ldw	r3,24(fp)
 100919c:	10c02115 	stw	r3,132(r2)
 10091a0:	e0bffc17 	ldw	r2,-16(fp)
 10091a4:	e0c00717 	ldw	r3,28(fp)
 10091a8:	10c02215 	stw	r3,136(r2)
 10091ac:	e0bffc17 	ldw	r2,-16(fp)
 10091b0:	e0c00817 	ldw	r3,32(fp)
 10091b4:	10c02315 	stw	r3,140(r2)
 10091b8:	e0bffc17 	ldw	r2,-16(fp)
 10091bc:	e0c00917 	ldw	r3,36(fp)
 10091c0:	10c02415 	stw	r3,144(r2)
 10091c4:	e0bffc17 	ldw	r2,-16(fp)
 10091c8:	e0c00a17 	ldw	r3,40(fp)
 10091cc:	10c02515 	stw	r3,148(r2)
 10091d0:	e0bffc17 	ldw	r2,-16(fp)
 10091d4:	e0c00b17 	ldw	r3,44(fp)
 10091d8:	10c02615 	stw	r3,152(r2)
 10091dc:	e037883a 	mov	sp,fp
 10091e0:	df000017 	ldw	fp,0(sp)
 10091e4:	dec00104 	addi	sp,sp,4
 10091e8:	f800283a 	ret

010091ec <dma_config>:
 10091ec:	defffb04 	addi	sp,sp,-20
 10091f0:	df000415 	stw	fp,16(sp)
 10091f4:	df000404 	addi	fp,sp,16
 10091f8:	e13ffc15 	stw	r4,-16(fp)
 10091fc:	e17ffd15 	stw	r5,-12(fp)
 1009200:	e1bffe15 	stw	r6,-8(fp)
 1009204:	e1ffff15 	stw	r7,-4(fp)
 1009208:	e0800117 	ldw	r2,4(fp)
 100920c:	10000a1e 	bne	r2,zero,1009238 <dma_config+0x4c>
 1009210:	e0fffd17 	ldw	r3,-12(fp)
 1009214:	e0bffc17 	ldw	r2,-16(fp)
 1009218:	10c01215 	stw	r3,72(r2)
 100921c:	e0fffe17 	ldw	r3,-8(fp)
 1009220:	e0bffc17 	ldw	r2,-16(fp)
 1009224:	10c01415 	stw	r3,80(r2)
 1009228:	e0bffc17 	ldw	r2,-16(fp)
 100922c:	e0ffff17 	ldw	r3,-4(fp)
 1009230:	10c01315 	stw	r3,76(r2)
 1009234:	00000906 	br	100925c <dma_config+0x70>
 1009238:	e0fffd17 	ldw	r3,-12(fp)
 100923c:	e0bffc17 	ldw	r2,-16(fp)
 1009240:	10c01715 	stw	r3,92(r2)
 1009244:	e0fffe17 	ldw	r3,-8(fp)
 1009248:	e0bffc17 	ldw	r2,-16(fp)
 100924c:	10c01115 	stw	r3,68(r2)
 1009250:	e0bffc17 	ldw	r2,-16(fp)
 1009254:	e0ffff17 	ldw	r3,-4(fp)
 1009258:	10c00215 	stw	r3,8(r2)
 100925c:	e037883a 	mov	sp,fp
 1009260:	df000017 	ldw	fp,0(sp)
 1009264:	dec00104 	addi	sp,sp,4
 1009268:	f800283a 	ret

0100926c <USB_EnableEP>:
 100926c:	defff804 	addi	sp,sp,-32
 1009270:	df000715 	stw	fp,28(sp)
 1009274:	df000704 	addi	fp,sp,28
 1009278:	e13ffe15 	stw	r4,-8(fp)
 100927c:	e17fff15 	stw	r5,-4(fp)
 1009280:	e0bffe17 	ldw	r2,-8(fp)
 1009284:	10c01a17 	ldw	r3,104(r2)
 1009288:	e0bffe17 	ldw	r2,-8(fp)
 100928c:	10802817 	ldw	r2,160(r2)
 1009290:	1085883a 	add	r2,r2,r2
 1009294:	1085883a 	add	r2,r2,r2
 1009298:	10bfff04 	addi	r2,r2,-4
 100929c:	1885883a 	add	r2,r3,r2
 10092a0:	10800017 	ldw	r2,0(r2)
 10092a4:	e0bffd15 	stw	r2,-12(fp)
 10092a8:	e0bffd17 	ldw	r2,-12(fp)
 10092ac:	10ffffcc 	andi	r3,r2,65535
 10092b0:	e0bfff17 	ldw	r2,-4(fp)
 10092b4:	10bfffc4 	addi	r2,r2,-1
 10092b8:	1885d83a 	sra	r2,r3,r2
 10092bc:	1080004c 	andi	r2,r2,1
 10092c0:	10011b26 	beq	r2,zero,1009730 <USB_EnableEP+0x4c4>
 10092c4:	e0bffe17 	ldw	r2,-8(fp)
 10092c8:	10800c17 	ldw	r2,48(r2)
 10092cc:	10800058 	cmpnei	r2,r2,1
 10092d0:	1000311e 	bne	r2,zero,1009398 <USB_EnableEP+0x12c>
 10092d4:	e0bffe17 	ldw	r2,-8(fp)
 10092d8:	10c01b17 	ldw	r3,108(r2)
 10092dc:	e0bffe17 	ldw	r2,-8(fp)
 10092e0:	11002817 	ldw	r4,160(r2)
 10092e4:	e0bfff17 	ldw	r2,-4(fp)
 10092e8:	2085883a 	add	r2,r4,r2
 10092ec:	1085883a 	add	r2,r2,r2
 10092f0:	1085883a 	add	r2,r2,r2
 10092f4:	10bffe04 	addi	r2,r2,-8
 10092f8:	1885883a 	add	r2,r3,r2
 10092fc:	10800017 	ldw	r2,0(r2)
 1009300:	e0bffc15 	stw	r2,-16(fp)
 1009304:	e0bffe17 	ldw	r2,-8(fp)
 1009308:	10c02417 	ldw	r3,144(r2)
 100930c:	e0bffe17 	ldw	r2,-8(fp)
 1009310:	11002817 	ldw	r4,160(r2)
 1009314:	e0bfff17 	ldw	r2,-4(fp)
 1009318:	2085883a 	add	r2,r4,r2
 100931c:	1085883a 	add	r2,r2,r2
 1009320:	1085883a 	add	r2,r2,r2
 1009324:	10bffe04 	addi	r2,r2,-8
 1009328:	1885883a 	add	r2,r3,r2
 100932c:	10800017 	ldw	r2,0(r2)
 1009330:	e0bff915 	stw	r2,-28(fp)
 1009334:	e0bffe17 	ldw	r2,-8(fp)
 1009338:	10c01e17 	ldw	r3,120(r2)
 100933c:	e0bffe17 	ldw	r2,-8(fp)
 1009340:	11002817 	ldw	r4,160(r2)
 1009344:	e0bfff17 	ldw	r2,-4(fp)
 1009348:	2085883a 	add	r2,r4,r2
 100934c:	1085883a 	add	r2,r2,r2
 1009350:	1085883a 	add	r2,r2,r2
 1009354:	10bffe04 	addi	r2,r2,-8
 1009358:	1885883a 	add	r2,r3,r2
 100935c:	10800017 	ldw	r2,0(r2)
 1009360:	e0bffa15 	stw	r2,-24(fp)
 1009364:	e0bffe17 	ldw	r2,-8(fp)
 1009368:	10c01f17 	ldw	r3,124(r2)
 100936c:	e0bffe17 	ldw	r2,-8(fp)
 1009370:	11002817 	ldw	r4,160(r2)
 1009374:	e0bfff17 	ldw	r2,-4(fp)
 1009378:	2085883a 	add	r2,r4,r2
 100937c:	1085883a 	add	r2,r2,r2
 1009380:	1085883a 	add	r2,r2,r2
 1009384:	10bffe04 	addi	r2,r2,-8
 1009388:	1885883a 	add	r2,r3,r2
 100938c:	10800017 	ldw	r2,0(r2)
 1009390:	e0bffb15 	stw	r2,-20(fp)
 1009394:	00006806 	br	1009538 <USB_EnableEP+0x2cc>
 1009398:	e0bffe17 	ldw	r2,-8(fp)
 100939c:	10800c17 	ldw	r2,48(r2)
 10093a0:	1000311e 	bne	r2,zero,1009468 <USB_EnableEP+0x1fc>
 10093a4:	e0bffe17 	ldw	r2,-8(fp)
 10093a8:	10c01c17 	ldw	r3,112(r2)
 10093ac:	e0bffe17 	ldw	r2,-8(fp)
 10093b0:	11002817 	ldw	r4,160(r2)
 10093b4:	e0bfff17 	ldw	r2,-4(fp)
 10093b8:	2085883a 	add	r2,r4,r2
 10093bc:	1085883a 	add	r2,r2,r2
 10093c0:	1085883a 	add	r2,r2,r2
 10093c4:	10bffe04 	addi	r2,r2,-8
 10093c8:	1885883a 	add	r2,r3,r2
 10093cc:	10800017 	ldw	r2,0(r2)
 10093d0:	e0bffc15 	stw	r2,-16(fp)
 10093d4:	e0bffe17 	ldw	r2,-8(fp)
 10093d8:	10c02517 	ldw	r3,148(r2)
 10093dc:	e0bffe17 	ldw	r2,-8(fp)
 10093e0:	11002817 	ldw	r4,160(r2)
 10093e4:	e0bfff17 	ldw	r2,-4(fp)
 10093e8:	2085883a 	add	r2,r4,r2
 10093ec:	1085883a 	add	r2,r2,r2
 10093f0:	1085883a 	add	r2,r2,r2
 10093f4:	10bffe04 	addi	r2,r2,-8
 10093f8:	1885883a 	add	r2,r3,r2
 10093fc:	10800017 	ldw	r2,0(r2)
 1009400:	e0bff915 	stw	r2,-28(fp)
 1009404:	e0bffe17 	ldw	r2,-8(fp)
 1009408:	10c02017 	ldw	r3,128(r2)
 100940c:	e0bffe17 	ldw	r2,-8(fp)
 1009410:	11002817 	ldw	r4,160(r2)
 1009414:	e0bfff17 	ldw	r2,-4(fp)
 1009418:	2085883a 	add	r2,r4,r2
 100941c:	1085883a 	add	r2,r2,r2
 1009420:	1085883a 	add	r2,r2,r2
 1009424:	10bffe04 	addi	r2,r2,-8
 1009428:	1885883a 	add	r2,r3,r2
 100942c:	10800017 	ldw	r2,0(r2)
 1009430:	e0bffa15 	stw	r2,-24(fp)
 1009434:	e0bffe17 	ldw	r2,-8(fp)
 1009438:	10c02117 	ldw	r3,132(r2)
 100943c:	e0bffe17 	ldw	r2,-8(fp)
 1009440:	11002817 	ldw	r4,160(r2)
 1009444:	e0bfff17 	ldw	r2,-4(fp)
 1009448:	2085883a 	add	r2,r4,r2
 100944c:	1085883a 	add	r2,r2,r2
 1009450:	1085883a 	add	r2,r2,r2
 1009454:	10bffe04 	addi	r2,r2,-8
 1009458:	1885883a 	add	r2,r3,r2
 100945c:	10800017 	ldw	r2,0(r2)
 1009460:	e0bffb15 	stw	r2,-20(fp)
 1009464:	00003406 	br	1009538 <USB_EnableEP+0x2cc>
 1009468:	e0bffe17 	ldw	r2,-8(fp)
 100946c:	10800c17 	ldw	r2,48(r2)
 1009470:	10800098 	cmpnei	r2,r2,2
 1009474:	1000301e 	bne	r2,zero,1009538 <USB_EnableEP+0x2cc>
 1009478:	e0bffe17 	ldw	r2,-8(fp)
 100947c:	10c01d17 	ldw	r3,116(r2)
 1009480:	e0bffe17 	ldw	r2,-8(fp)
 1009484:	11002817 	ldw	r4,160(r2)
 1009488:	e0bfff17 	ldw	r2,-4(fp)
 100948c:	2085883a 	add	r2,r4,r2
 1009490:	1085883a 	add	r2,r2,r2
 1009494:	1085883a 	add	r2,r2,r2
 1009498:	10bffe04 	addi	r2,r2,-8
 100949c:	1885883a 	add	r2,r3,r2
 10094a0:	10800017 	ldw	r2,0(r2)
 10094a4:	e0bffc15 	stw	r2,-16(fp)
 10094a8:	e0bffe17 	ldw	r2,-8(fp)
 10094ac:	10c02617 	ldw	r3,152(r2)
 10094b0:	e0bffe17 	ldw	r2,-8(fp)
 10094b4:	11002817 	ldw	r4,160(r2)
 10094b8:	e0bfff17 	ldw	r2,-4(fp)
 10094bc:	2085883a 	add	r2,r4,r2
 10094c0:	1085883a 	add	r2,r2,r2
 10094c4:	1085883a 	add	r2,r2,r2
 10094c8:	10bffe04 	addi	r2,r2,-8
 10094cc:	1885883a 	add	r2,r3,r2
 10094d0:	10800017 	ldw	r2,0(r2)
 10094d4:	e0bff915 	stw	r2,-28(fp)
 10094d8:	e0bffe17 	ldw	r2,-8(fp)
 10094dc:	10c02217 	ldw	r3,136(r2)
 10094e0:	e0bffe17 	ldw	r2,-8(fp)
 10094e4:	11002817 	ldw	r4,160(r2)
 10094e8:	e0bfff17 	ldw	r2,-4(fp)
 10094ec:	2085883a 	add	r2,r4,r2
 10094f0:	1085883a 	add	r2,r2,r2
 10094f4:	1085883a 	add	r2,r2,r2
 10094f8:	10bffe04 	addi	r2,r2,-8
 10094fc:	1885883a 	add	r2,r3,r2
 1009500:	10800017 	ldw	r2,0(r2)
 1009504:	e0bffa15 	stw	r2,-24(fp)
 1009508:	e0bffe17 	ldw	r2,-8(fp)
 100950c:	10c02317 	ldw	r3,140(r2)
 1009510:	e0bffe17 	ldw	r2,-8(fp)
 1009514:	11002817 	ldw	r4,160(r2)
 1009518:	e0bfff17 	ldw	r2,-4(fp)
 100951c:	2085883a 	add	r2,r4,r2
 1009520:	1085883a 	add	r2,r2,r2
 1009524:	1085883a 	add	r2,r2,r2
 1009528:	10bffe04 	addi	r2,r2,-8
 100952c:	1885883a 	add	r2,r3,r2
 1009530:	10800017 	ldw	r2,0(r2)
 1009534:	e0bffb15 	stw	r2,-20(fp)
 1009538:	e0bfff17 	ldw	r2,-4(fp)
 100953c:	10800104 	addi	r2,r2,4
 1009540:	1004913a 	slli	r2,r2,4
 1009544:	1007883a 	mov	r3,r2
 1009548:	e0bffe17 	ldw	r2,-8(fp)
 100954c:	10801517 	ldw	r2,84(r2)
 1009550:	1885883a 	add	r2,r3,r2
 1009554:	1007883a 	mov	r3,r2
 1009558:	e0bffc17 	ldw	r2,-16(fp)
 100955c:	18800035 	stwio	r2,0(r3)
 1009560:	e0bfff17 	ldw	r2,-4(fp)
 1009564:	1004913a 	slli	r2,r2,4
 1009568:	1007883a 	mov	r3,r2
 100956c:	e0bffe17 	ldw	r2,-8(fp)
 1009570:	10801517 	ldw	r2,84(r2)
 1009574:	1885883a 	add	r2,r3,r2
 1009578:	10801104 	addi	r2,r2,68
 100957c:	1007883a 	mov	r3,r2
 1009580:	e0bff917 	ldw	r2,-28(fp)
 1009584:	18800035 	stwio	r2,0(r3)
 1009588:	e0bffa17 	ldw	r2,-24(fp)
 100958c:	109fffac 	andhi	r2,r2,32766
 1009590:	1005d47a 	srai	r2,r2,17
 1009594:	1009883a 	mov	r4,r2
 1009598:	e0fffe17 	ldw	r3,-8(fp)
 100959c:	e0bfff17 	ldw	r2,-4(fp)
 10095a0:	10805684 	addi	r2,r2,346
 10095a4:	1085883a 	add	r2,r2,r2
 10095a8:	1085883a 	add	r2,r2,r2
 10095ac:	1885883a 	add	r2,r3,r2
 10095b0:	11000015 	stw	r4,0(r2)
 10095b4:	e0fffa17 	ldw	r3,-24(fp)
 10095b8:	008000b4 	movhi	r2,2
 10095bc:	10bfffc4 	addi	r2,r2,-1
 10095c0:	1886703a 	and	r3,r3,r2
 10095c4:	e13ffe17 	ldw	r4,-8(fp)
 10095c8:	e0bfff17 	ldw	r2,-4(fp)
 10095cc:	10805e84 	addi	r2,r2,378
 10095d0:	1085883a 	add	r2,r2,r2
 10095d4:	1085883a 	add	r2,r2,r2
 10095d8:	2085883a 	add	r2,r4,r2
 10095dc:	10c00015 	stw	r3,0(r2)
 10095e0:	e0bfff17 	ldw	r2,-4(fp)
 10095e4:	1004913a 	slli	r2,r2,4
 10095e8:	1007883a 	mov	r3,r2
 10095ec:	e0bffe17 	ldw	r2,-8(fp)
 10095f0:	10801517 	ldw	r2,84(r2)
 10095f4:	1885883a 	add	r2,r3,r2
 10095f8:	10801204 	addi	r2,r2,72
 10095fc:	1007883a 	mov	r3,r2
 1009600:	e0bffa17 	ldw	r2,-24(fp)
 1009604:	18800035 	stwio	r2,0(r3)
 1009608:	e0bffb17 	ldw	r2,-20(fp)
 100960c:	109fffac 	andhi	r2,r2,32766
 1009610:	1005d47a 	srai	r2,r2,17
 1009614:	1009883a 	mov	r4,r2
 1009618:	e0fffe17 	ldw	r3,-8(fp)
 100961c:	e0bfff17 	ldw	r2,-4(fp)
 1009620:	10805a84 	addi	r2,r2,362
 1009624:	1085883a 	add	r2,r2,r2
 1009628:	1085883a 	add	r2,r2,r2
 100962c:	1885883a 	add	r2,r3,r2
 1009630:	11000015 	stw	r4,0(r2)
 1009634:	e0fffb17 	ldw	r3,-20(fp)
 1009638:	008000b4 	movhi	r2,2
 100963c:	10bfffc4 	addi	r2,r2,-1
 1009640:	1886703a 	and	r3,r3,r2
 1009644:	e13ffe17 	ldw	r4,-8(fp)
 1009648:	e0bfff17 	ldw	r2,-4(fp)
 100964c:	10806284 	addi	r2,r2,394
 1009650:	1085883a 	add	r2,r2,r2
 1009654:	1085883a 	add	r2,r2,r2
 1009658:	2085883a 	add	r2,r4,r2
 100965c:	10c00015 	stw	r3,0(r2)
 1009660:	e0bfff17 	ldw	r2,-4(fp)
 1009664:	1004913a 	slli	r2,r2,4
 1009668:	1007883a 	mov	r3,r2
 100966c:	e0bffe17 	ldw	r2,-8(fp)
 1009670:	10801517 	ldw	r2,84(r2)
 1009674:	1885883a 	add	r2,r3,r2
 1009678:	10801304 	addi	r2,r2,76
 100967c:	1007883a 	mov	r3,r2
 1009680:	e0bffb17 	ldw	r2,-20(fp)
 1009684:	18800035 	stwio	r2,0(r3)
 1009688:	e0bfff17 	ldw	r2,-4(fp)
 100968c:	1085883a 	add	r2,r2,r2
 1009690:	1085883a 	add	r2,r2,r2
 1009694:	10800484 	addi	r2,r2,18
 1009698:	1009883a 	mov	r4,r2
 100969c:	e0fffe17 	ldw	r3,-8(fp)
 10096a0:	e0bfff17 	ldw	r2,-4(fp)
 10096a4:	1885883a 	add	r2,r3,r2
 10096a8:	10819a04 	addi	r2,r2,1640
 10096ac:	11000005 	stb	r4,0(r2)
 10096b0:	e0bfff17 	ldw	r2,-4(fp)
 10096b4:	1085883a 	add	r2,r2,r2
 10096b8:	1085883a 	add	r2,r2,r2
 10096bc:	108004c4 	addi	r2,r2,19
 10096c0:	1009883a 	mov	r4,r2
 10096c4:	e0fffe17 	ldw	r3,-8(fp)
 10096c8:	e0bfff17 	ldw	r2,-4(fp)
 10096cc:	1885883a 	add	r2,r3,r2
 10096d0:	10819e04 	addi	r2,r2,1656
 10096d4:	11000005 	stb	r4,0(r2)
 10096d8:	e0fffe17 	ldw	r3,-8(fp)
 10096dc:	e0bfff17 	ldw	r2,-4(fp)
 10096e0:	10805684 	addi	r2,r2,346
 10096e4:	1085883a 	add	r2,r2,r2
 10096e8:	1085883a 	add	r2,r2,r2
 10096ec:	1885883a 	add	r2,r3,r2
 10096f0:	10c00017 	ldw	r3,0(r2)
 10096f4:	e13ffe17 	ldw	r4,-8(fp)
 10096f8:	e0bfff17 	ldw	r2,-4(fp)
 10096fc:	10805284 	addi	r2,r2,330
 1009700:	1085883a 	add	r2,r2,r2
 1009704:	1085883a 	add	r2,r2,r2
 1009708:	2085883a 	add	r2,r4,r2
 100970c:	10c00015 	stw	r3,0(r2)
 1009710:	e0fffe17 	ldw	r3,-8(fp)
 1009714:	e0bfff17 	ldw	r2,-4(fp)
 1009718:	10804284 	addi	r2,r2,266
 100971c:	1085883a 	add	r2,r2,r2
 1009720:	1085883a 	add	r2,r2,r2
 1009724:	1885883a 	add	r2,r3,r2
 1009728:	00c5c034 	movhi	r3,5888
 100972c:	10c00015 	stw	r3,0(r2)
 1009730:	e0bffd17 	ldw	r2,-12(fp)
 1009734:	1007d3fa 	srai	r3,r2,15
 1009738:	e0bfff17 	ldw	r2,-4(fp)
 100973c:	1885d83a 	sra	r2,r3,r2
 1009740:	1080004c 	andi	r2,r2,1
 1009744:	10011e26 	beq	r2,zero,1009bc0 <USB_EnableEP+0x954>
 1009748:	e0bfff17 	ldw	r2,-4(fp)
 100974c:	108003cc 	andi	r2,r2,15
 1009750:	e0bfff15 	stw	r2,-4(fp)
 1009754:	e0bffe17 	ldw	r2,-8(fp)
 1009758:	10800c17 	ldw	r2,48(r2)
 100975c:	10800058 	cmpnei	r2,r2,1
 1009760:	1000311e 	bne	r2,zero,1009828 <USB_EnableEP+0x5bc>
 1009764:	e0bffe17 	ldw	r2,-8(fp)
 1009768:	10c01b17 	ldw	r3,108(r2)
 100976c:	e0bffe17 	ldw	r2,-8(fp)
 1009770:	11002817 	ldw	r4,160(r2)
 1009774:	e0bfff17 	ldw	r2,-4(fp)
 1009778:	2085883a 	add	r2,r4,r2
 100977c:	1085883a 	add	r2,r2,r2
 1009780:	1085883a 	add	r2,r2,r2
 1009784:	10bffe04 	addi	r2,r2,-8
 1009788:	1885883a 	add	r2,r3,r2
 100978c:	10800017 	ldw	r2,0(r2)
 1009790:	e0bffc15 	stw	r2,-16(fp)
 1009794:	e0bffe17 	ldw	r2,-8(fp)
 1009798:	10c02417 	ldw	r3,144(r2)
 100979c:	e0bffe17 	ldw	r2,-8(fp)
 10097a0:	11002817 	ldw	r4,160(r2)
 10097a4:	e0bfff17 	ldw	r2,-4(fp)
 10097a8:	2085883a 	add	r2,r4,r2
 10097ac:	1085883a 	add	r2,r2,r2
 10097b0:	1085883a 	add	r2,r2,r2
 10097b4:	10bffe04 	addi	r2,r2,-8
 10097b8:	1885883a 	add	r2,r3,r2
 10097bc:	10800017 	ldw	r2,0(r2)
 10097c0:	e0bff915 	stw	r2,-28(fp)
 10097c4:	e0bffe17 	ldw	r2,-8(fp)
 10097c8:	10c01e17 	ldw	r3,120(r2)
 10097cc:	e0bffe17 	ldw	r2,-8(fp)
 10097d0:	11002817 	ldw	r4,160(r2)
 10097d4:	e0bfff17 	ldw	r2,-4(fp)
 10097d8:	2085883a 	add	r2,r4,r2
 10097dc:	1085883a 	add	r2,r2,r2
 10097e0:	1085883a 	add	r2,r2,r2
 10097e4:	10bffe04 	addi	r2,r2,-8
 10097e8:	1885883a 	add	r2,r3,r2
 10097ec:	10800017 	ldw	r2,0(r2)
 10097f0:	e0bffa15 	stw	r2,-24(fp)
 10097f4:	e0bffe17 	ldw	r2,-8(fp)
 10097f8:	10c01f17 	ldw	r3,124(r2)
 10097fc:	e0bffe17 	ldw	r2,-8(fp)
 1009800:	11002817 	ldw	r4,160(r2)
 1009804:	e0bfff17 	ldw	r2,-4(fp)
 1009808:	2085883a 	add	r2,r4,r2
 100980c:	1085883a 	add	r2,r2,r2
 1009810:	1085883a 	add	r2,r2,r2
 1009814:	10bffe04 	addi	r2,r2,-8
 1009818:	1885883a 	add	r2,r3,r2
 100981c:	10800017 	ldw	r2,0(r2)
 1009820:	e0bffb15 	stw	r2,-20(fp)
 1009824:	00006806 	br	10099c8 <USB_EnableEP+0x75c>
 1009828:	e0bffe17 	ldw	r2,-8(fp)
 100982c:	10800c17 	ldw	r2,48(r2)
 1009830:	1000311e 	bne	r2,zero,10098f8 <USB_EnableEP+0x68c>
 1009834:	e0bffe17 	ldw	r2,-8(fp)
 1009838:	10c01c17 	ldw	r3,112(r2)
 100983c:	e0bffe17 	ldw	r2,-8(fp)
 1009840:	11002817 	ldw	r4,160(r2)
 1009844:	e0bfff17 	ldw	r2,-4(fp)
 1009848:	2085883a 	add	r2,r4,r2
 100984c:	1085883a 	add	r2,r2,r2
 1009850:	1085883a 	add	r2,r2,r2
 1009854:	10bffe04 	addi	r2,r2,-8
 1009858:	1885883a 	add	r2,r3,r2
 100985c:	10800017 	ldw	r2,0(r2)
 1009860:	e0bffc15 	stw	r2,-16(fp)
 1009864:	e0bffe17 	ldw	r2,-8(fp)
 1009868:	10c02517 	ldw	r3,148(r2)
 100986c:	e0bffe17 	ldw	r2,-8(fp)
 1009870:	11002817 	ldw	r4,160(r2)
 1009874:	e0bfff17 	ldw	r2,-4(fp)
 1009878:	2085883a 	add	r2,r4,r2
 100987c:	1085883a 	add	r2,r2,r2
 1009880:	1085883a 	add	r2,r2,r2
 1009884:	10bffe04 	addi	r2,r2,-8
 1009888:	1885883a 	add	r2,r3,r2
 100988c:	10800017 	ldw	r2,0(r2)
 1009890:	e0bff915 	stw	r2,-28(fp)
 1009894:	e0bffe17 	ldw	r2,-8(fp)
 1009898:	10c02017 	ldw	r3,128(r2)
 100989c:	e0bffe17 	ldw	r2,-8(fp)
 10098a0:	11002817 	ldw	r4,160(r2)
 10098a4:	e0bfff17 	ldw	r2,-4(fp)
 10098a8:	2085883a 	add	r2,r4,r2
 10098ac:	1085883a 	add	r2,r2,r2
 10098b0:	1085883a 	add	r2,r2,r2
 10098b4:	10bffe04 	addi	r2,r2,-8
 10098b8:	1885883a 	add	r2,r3,r2
 10098bc:	10800017 	ldw	r2,0(r2)
 10098c0:	e0bffa15 	stw	r2,-24(fp)
 10098c4:	e0bffe17 	ldw	r2,-8(fp)
 10098c8:	10c02117 	ldw	r3,132(r2)
 10098cc:	e0bffe17 	ldw	r2,-8(fp)
 10098d0:	11002817 	ldw	r4,160(r2)
 10098d4:	e0bfff17 	ldw	r2,-4(fp)
 10098d8:	2085883a 	add	r2,r4,r2
 10098dc:	1085883a 	add	r2,r2,r2
 10098e0:	1085883a 	add	r2,r2,r2
 10098e4:	10bffe04 	addi	r2,r2,-8
 10098e8:	1885883a 	add	r2,r3,r2
 10098ec:	10800017 	ldw	r2,0(r2)
 10098f0:	e0bffb15 	stw	r2,-20(fp)
 10098f4:	00003406 	br	10099c8 <USB_EnableEP+0x75c>
 10098f8:	e0bffe17 	ldw	r2,-8(fp)
 10098fc:	10800c17 	ldw	r2,48(r2)
 1009900:	10800098 	cmpnei	r2,r2,2
 1009904:	1000301e 	bne	r2,zero,10099c8 <USB_EnableEP+0x75c>
 1009908:	e0bffe17 	ldw	r2,-8(fp)
 100990c:	10c01d17 	ldw	r3,116(r2)
 1009910:	e0bffe17 	ldw	r2,-8(fp)
 1009914:	11002817 	ldw	r4,160(r2)
 1009918:	e0bfff17 	ldw	r2,-4(fp)
 100991c:	2085883a 	add	r2,r4,r2
 1009920:	1085883a 	add	r2,r2,r2
 1009924:	1085883a 	add	r2,r2,r2
 1009928:	10bffe04 	addi	r2,r2,-8
 100992c:	1885883a 	add	r2,r3,r2
 1009930:	10800017 	ldw	r2,0(r2)
 1009934:	e0bffc15 	stw	r2,-16(fp)
 1009938:	e0bffe17 	ldw	r2,-8(fp)
 100993c:	10c02617 	ldw	r3,152(r2)
 1009940:	e0bffe17 	ldw	r2,-8(fp)
 1009944:	11002817 	ldw	r4,160(r2)
 1009948:	e0bfff17 	ldw	r2,-4(fp)
 100994c:	2085883a 	add	r2,r4,r2
 1009950:	1085883a 	add	r2,r2,r2
 1009954:	1085883a 	add	r2,r2,r2
 1009958:	10bffe04 	addi	r2,r2,-8
 100995c:	1885883a 	add	r2,r3,r2
 1009960:	10800017 	ldw	r2,0(r2)
 1009964:	e0bff915 	stw	r2,-28(fp)
 1009968:	e0bffe17 	ldw	r2,-8(fp)
 100996c:	10c02217 	ldw	r3,136(r2)
 1009970:	e0bffe17 	ldw	r2,-8(fp)
 1009974:	11002817 	ldw	r4,160(r2)
 1009978:	e0bfff17 	ldw	r2,-4(fp)
 100997c:	2085883a 	add	r2,r4,r2
 1009980:	1085883a 	add	r2,r2,r2
 1009984:	1085883a 	add	r2,r2,r2
 1009988:	10bffe04 	addi	r2,r2,-8
 100998c:	1885883a 	add	r2,r3,r2
 1009990:	10800017 	ldw	r2,0(r2)
 1009994:	e0bffa15 	stw	r2,-24(fp)
 1009998:	e0bffe17 	ldw	r2,-8(fp)
 100999c:	10c02317 	ldw	r3,140(r2)
 10099a0:	e0bffe17 	ldw	r2,-8(fp)
 10099a4:	11002817 	ldw	r4,160(r2)
 10099a8:	e0bfff17 	ldw	r2,-4(fp)
 10099ac:	2085883a 	add	r2,r4,r2
 10099b0:	1085883a 	add	r2,r2,r2
 10099b4:	1085883a 	add	r2,r2,r2
 10099b8:	10bffe04 	addi	r2,r2,-8
 10099bc:	1885883a 	add	r2,r3,r2
 10099c0:	10800017 	ldw	r2,0(r2)
 10099c4:	e0bffb15 	stw	r2,-20(fp)
 10099c8:	e0bfff17 	ldw	r2,-4(fp)
 10099cc:	10800104 	addi	r2,r2,4
 10099d0:	1004913a 	slli	r2,r2,4
 10099d4:	1007883a 	mov	r3,r2
 10099d8:	e0bffe17 	ldw	r2,-8(fp)
 10099dc:	10801517 	ldw	r2,84(r2)
 10099e0:	1885883a 	add	r2,r3,r2
 10099e4:	1007883a 	mov	r3,r2
 10099e8:	e0bffc17 	ldw	r2,-16(fp)
 10099ec:	18800035 	stwio	r2,0(r3)
 10099f0:	e0bfff17 	ldw	r2,-4(fp)
 10099f4:	1004913a 	slli	r2,r2,4
 10099f8:	1007883a 	mov	r3,r2
 10099fc:	e0bffe17 	ldw	r2,-8(fp)
 1009a00:	10801517 	ldw	r2,84(r2)
 1009a04:	1885883a 	add	r2,r3,r2
 1009a08:	10801104 	addi	r2,r2,68
 1009a0c:	1007883a 	mov	r3,r2
 1009a10:	e0bff917 	ldw	r2,-28(fp)
 1009a14:	18800035 	stwio	r2,0(r3)
 1009a18:	e0bffa17 	ldw	r2,-24(fp)
 1009a1c:	109fffac 	andhi	r2,r2,32766
 1009a20:	1005d47a 	srai	r2,r2,17
 1009a24:	1009883a 	mov	r4,r2
 1009a28:	e0fffe17 	ldw	r3,-8(fp)
 1009a2c:	e0bfff17 	ldw	r2,-4(fp)
 1009a30:	10802844 	addi	r2,r2,161
 1009a34:	1085883a 	add	r2,r2,r2
 1009a38:	1085883a 	add	r2,r2,r2
 1009a3c:	1885883a 	add	r2,r3,r2
 1009a40:	11000015 	stw	r4,0(r2)
 1009a44:	e0fffa17 	ldw	r3,-24(fp)
 1009a48:	008000b4 	movhi	r2,2
 1009a4c:	10bfffc4 	addi	r2,r2,-1
 1009a50:	1886703a 	and	r3,r3,r2
 1009a54:	e13ffe17 	ldw	r4,-8(fp)
 1009a58:	e0bfff17 	ldw	r2,-4(fp)
 1009a5c:	10803044 	addi	r2,r2,193
 1009a60:	1085883a 	add	r2,r2,r2
 1009a64:	1085883a 	add	r2,r2,r2
 1009a68:	2085883a 	add	r2,r4,r2
 1009a6c:	10c00015 	stw	r3,0(r2)
 1009a70:	e0bfff17 	ldw	r2,-4(fp)
 1009a74:	1004913a 	slli	r2,r2,4
 1009a78:	1007883a 	mov	r3,r2
 1009a7c:	e0bffe17 	ldw	r2,-8(fp)
 1009a80:	10801517 	ldw	r2,84(r2)
 1009a84:	1885883a 	add	r2,r3,r2
 1009a88:	10801204 	addi	r2,r2,72
 1009a8c:	1007883a 	mov	r3,r2
 1009a90:	e0bffa17 	ldw	r2,-24(fp)
 1009a94:	18800035 	stwio	r2,0(r3)
 1009a98:	e0bffb17 	ldw	r2,-20(fp)
 1009a9c:	109fffac 	andhi	r2,r2,32766
 1009aa0:	1005d47a 	srai	r2,r2,17
 1009aa4:	1009883a 	mov	r4,r2
 1009aa8:	e0fffe17 	ldw	r3,-8(fp)
 1009aac:	e0bfff17 	ldw	r2,-4(fp)
 1009ab0:	10802c44 	addi	r2,r2,177
 1009ab4:	1085883a 	add	r2,r2,r2
 1009ab8:	1085883a 	add	r2,r2,r2
 1009abc:	1885883a 	add	r2,r3,r2
 1009ac0:	11000015 	stw	r4,0(r2)
 1009ac4:	e0fffb17 	ldw	r3,-20(fp)
 1009ac8:	008000b4 	movhi	r2,2
 1009acc:	10bfffc4 	addi	r2,r2,-1
 1009ad0:	1886703a 	and	r3,r3,r2
 1009ad4:	e13ffe17 	ldw	r4,-8(fp)
 1009ad8:	e0bfff17 	ldw	r2,-4(fp)
 1009adc:	10803444 	addi	r2,r2,209
 1009ae0:	1085883a 	add	r2,r2,r2
 1009ae4:	1085883a 	add	r2,r2,r2
 1009ae8:	2085883a 	add	r2,r4,r2
 1009aec:	10c00015 	stw	r3,0(r2)
 1009af0:	e0bfff17 	ldw	r2,-4(fp)
 1009af4:	1004913a 	slli	r2,r2,4
 1009af8:	1007883a 	mov	r3,r2
 1009afc:	e0bffe17 	ldw	r2,-8(fp)
 1009b00:	10801517 	ldw	r2,84(r2)
 1009b04:	1885883a 	add	r2,r3,r2
 1009b08:	10801304 	addi	r2,r2,76
 1009b0c:	1007883a 	mov	r3,r2
 1009b10:	e0bffb17 	ldw	r2,-20(fp)
 1009b14:	18800035 	stwio	r2,0(r3)
 1009b18:	e0bfff17 	ldw	r2,-4(fp)
 1009b1c:	1085883a 	add	r2,r2,r2
 1009b20:	1085883a 	add	r2,r2,r2
 1009b24:	10800484 	addi	r2,r2,18
 1009b28:	1009883a 	mov	r4,r2
 1009b2c:	e0fffe17 	ldw	r3,-8(fp)
 1009b30:	e0bfff17 	ldw	r2,-4(fp)
 1009b34:	1885883a 	add	r2,r3,r2
 1009b38:	1080e104 	addi	r2,r2,900
 1009b3c:	11000005 	stb	r4,0(r2)
 1009b40:	e0bfff17 	ldw	r2,-4(fp)
 1009b44:	1085883a 	add	r2,r2,r2
 1009b48:	1085883a 	add	r2,r2,r2
 1009b4c:	108004c4 	addi	r2,r2,19
 1009b50:	1009883a 	mov	r4,r2
 1009b54:	e0fffe17 	ldw	r3,-8(fp)
 1009b58:	e0bfff17 	ldw	r2,-4(fp)
 1009b5c:	1885883a 	add	r2,r3,r2
 1009b60:	1080e504 	addi	r2,r2,916
 1009b64:	11000005 	stb	r4,0(r2)
 1009b68:	e0fffe17 	ldw	r3,-8(fp)
 1009b6c:	e0bfff17 	ldw	r2,-4(fp)
 1009b70:	10802844 	addi	r2,r2,161
 1009b74:	1085883a 	add	r2,r2,r2
 1009b78:	1085883a 	add	r2,r2,r2
 1009b7c:	1885883a 	add	r2,r3,r2
 1009b80:	10c00017 	ldw	r3,0(r2)
 1009b84:	e13ffe17 	ldw	r4,-8(fp)
 1009b88:	e0bfff17 	ldw	r2,-4(fp)
 1009b8c:	10802444 	addi	r2,r2,145
 1009b90:	1085883a 	add	r2,r2,r2
 1009b94:	1085883a 	add	r2,r2,r2
 1009b98:	2085883a 	add	r2,r4,r2
 1009b9c:	10c00015 	stw	r3,0(r2)
 1009ba0:	e0fffe17 	ldw	r3,-8(fp)
 1009ba4:	e0bfff17 	ldw	r2,-4(fp)
 1009ba8:	10801444 	addi	r2,r2,81
 1009bac:	1085883a 	add	r2,r2,r2
 1009bb0:	1085883a 	add	r2,r2,r2
 1009bb4:	1885883a 	add	r2,r3,r2
 1009bb8:	00c5c034 	movhi	r3,5888
 1009bbc:	10c00015 	stw	r3,0(r2)
 1009bc0:	e037883a 	mov	sp,fp
 1009bc4:	df000017 	ldw	fp,0(sp)
 1009bc8:	dec00104 	addi	sp,sp,4
 1009bcc:	f800283a 	ret

01009bd0 <USB_DisableEP>:
 1009bd0:	defffc04 	addi	sp,sp,-16
 1009bd4:	df000315 	stw	fp,12(sp)
 1009bd8:	df000304 	addi	fp,sp,12
 1009bdc:	e13ffe15 	stw	r4,-8(fp)
 1009be0:	e17fff15 	stw	r5,-4(fp)
 1009be4:	e0bffe17 	ldw	r2,-8(fp)
 1009be8:	10c01a17 	ldw	r3,104(r2)
 1009bec:	e0bffe17 	ldw	r2,-8(fp)
 1009bf0:	10802817 	ldw	r2,160(r2)
 1009bf4:	1085883a 	add	r2,r2,r2
 1009bf8:	1085883a 	add	r2,r2,r2
 1009bfc:	10bfff04 	addi	r2,r2,-4
 1009c00:	1885883a 	add	r2,r3,r2
 1009c04:	10800017 	ldw	r2,0(r2)
 1009c08:	e0bffd15 	stw	r2,-12(fp)
 1009c0c:	e0bffd17 	ldw	r2,-12(fp)
 1009c10:	10ffffcc 	andi	r3,r2,65535
 1009c14:	e0bfff17 	ldw	r2,-4(fp)
 1009c18:	10bfffc4 	addi	r2,r2,-1
 1009c1c:	1885d83a 	sra	r2,r3,r2
 1009c20:	1080004c 	andi	r2,r2,1
 1009c24:	10001e26 	beq	r2,zero,1009ca0 <USB_DisableEP+0xd0>
 1009c28:	e0bfff17 	ldw	r2,-4(fp)
 1009c2c:	10800104 	addi	r2,r2,4
 1009c30:	1004913a 	slli	r2,r2,4
 1009c34:	1007883a 	mov	r3,r2
 1009c38:	e0bffe17 	ldw	r2,-8(fp)
 1009c3c:	10801517 	ldw	r2,84(r2)
 1009c40:	1885883a 	add	r2,r3,r2
 1009c44:	1007883a 	mov	r3,r2
 1009c48:	00802034 	movhi	r2,128
 1009c4c:	18800035 	stwio	r2,0(r3)
 1009c50:	e0bfff17 	ldw	r2,-4(fp)
 1009c54:	1004913a 	slli	r2,r2,4
 1009c58:	1007883a 	mov	r3,r2
 1009c5c:	e0bffe17 	ldw	r2,-8(fp)
 1009c60:	10801517 	ldw	r2,84(r2)
 1009c64:	1885883a 	add	r2,r3,r2
 1009c68:	10801204 	addi	r2,r2,72
 1009c6c:	1007883a 	mov	r3,r2
 1009c70:	00bfffc4 	movi	r2,-1
 1009c74:	18800035 	stwio	r2,0(r3)
 1009c78:	e0bfff17 	ldw	r2,-4(fp)
 1009c7c:	1004913a 	slli	r2,r2,4
 1009c80:	1007883a 	mov	r3,r2
 1009c84:	e0bffe17 	ldw	r2,-8(fp)
 1009c88:	10801517 	ldw	r2,84(r2)
 1009c8c:	1885883a 	add	r2,r3,r2
 1009c90:	10801304 	addi	r2,r2,76
 1009c94:	1007883a 	mov	r3,r2
 1009c98:	00bfffc4 	movi	r2,-1
 1009c9c:	18800035 	stwio	r2,0(r3)
 1009ca0:	e0bffd17 	ldw	r2,-12(fp)
 1009ca4:	1007d3fa 	srai	r3,r2,15
 1009ca8:	e0bfff17 	ldw	r2,-4(fp)
 1009cac:	1885d83a 	sra	r2,r3,r2
 1009cb0:	1080004c 	andi	r2,r2,1
 1009cb4:	10001e26 	beq	r2,zero,1009d30 <USB_DisableEP+0x160>
 1009cb8:	e0bfff17 	ldw	r2,-4(fp)
 1009cbc:	10800104 	addi	r2,r2,4
 1009cc0:	1004913a 	slli	r2,r2,4
 1009cc4:	1007883a 	mov	r3,r2
 1009cc8:	e0bffe17 	ldw	r2,-8(fp)
 1009ccc:	10801517 	ldw	r2,84(r2)
 1009cd0:	1885883a 	add	r2,r3,r2
 1009cd4:	1007883a 	mov	r3,r2
 1009cd8:	00802034 	movhi	r2,128
 1009cdc:	18800035 	stwio	r2,0(r3)
 1009ce0:	e0bfff17 	ldw	r2,-4(fp)
 1009ce4:	1004913a 	slli	r2,r2,4
 1009ce8:	1007883a 	mov	r3,r2
 1009cec:	e0bffe17 	ldw	r2,-8(fp)
 1009cf0:	10801517 	ldw	r2,84(r2)
 1009cf4:	1885883a 	add	r2,r3,r2
 1009cf8:	10801204 	addi	r2,r2,72
 1009cfc:	1007883a 	mov	r3,r2
 1009d00:	00bfffc4 	movi	r2,-1
 1009d04:	18800035 	stwio	r2,0(r3)
 1009d08:	e0bfff17 	ldw	r2,-4(fp)
 1009d0c:	1004913a 	slli	r2,r2,4
 1009d10:	1007883a 	mov	r3,r2
 1009d14:	e0bffe17 	ldw	r2,-8(fp)
 1009d18:	10801517 	ldw	r2,84(r2)
 1009d1c:	1885883a 	add	r2,r3,r2
 1009d20:	10801304 	addi	r2,r2,76
 1009d24:	1007883a 	mov	r3,r2
 1009d28:	00bfffc4 	movi	r2,-1
 1009d2c:	18800035 	stwio	r2,0(r3)
 1009d30:	e037883a 	mov	sp,fp
 1009d34:	df000017 	ldw	fp,0(sp)
 1009d38:	dec00104 	addi	sp,sp,4
 1009d3c:	f800283a 	ret

01009d40 <usb20sr_connect>:
 1009d40:	defffe04 	addi	sp,sp,-8
 1009d44:	df000115 	stw	fp,4(sp)
 1009d48:	df000104 	addi	fp,sp,4
 1009d4c:	e13fff15 	stw	r4,-4(fp)
 1009d50:	e0bfff17 	ldw	r2,-4(fp)
 1009d54:	10c1b304 	addi	r3,r2,1740
 1009d58:	e0bfff17 	ldw	r2,-4(fp)
 1009d5c:	10c03f15 	stw	r3,252(r2)
 1009d60:	e0bfff17 	ldw	r2,-4(fp)
 1009d64:	10c1b504 	addi	r3,r2,1748
 1009d68:	e0bfff17 	ldw	r2,-4(fp)
 1009d6c:	10c04015 	stw	r3,256(r2)
 1009d70:	e0bfff17 	ldw	r2,-4(fp)
 1009d74:	10804017 	ldw	r2,256(r2)
 1009d78:	00c00104 	movi	r3,4
 1009d7c:	10c00215 	stw	r3,8(r2)
 1009d80:	e0bfff17 	ldw	r2,-4(fp)
 1009d84:	10801517 	ldw	r2,84(r2)
 1009d88:	10807f04 	addi	r2,r2,508
 1009d8c:	1007883a 	mov	r3,r2
 1009d90:	00800044 	movi	r2,1
 1009d94:	18800025 	stbio	r2,0(r3)
 1009d98:	e037883a 	mov	sp,fp
 1009d9c:	df000017 	ldw	fp,0(sp)
 1009da0:	dec00104 	addi	sp,sp,4
 1009da4:	f800283a 	ret

01009da8 <usb20sr_disconnect>:
 1009da8:	defffe04 	addi	sp,sp,-8
 1009dac:	df000115 	stw	fp,4(sp)
 1009db0:	df000104 	addi	fp,sp,4
 1009db4:	e13fff15 	stw	r4,-4(fp)
 1009db8:	e0bfff17 	ldw	r2,-4(fp)
 1009dbc:	10801517 	ldw	r2,84(r2)
 1009dc0:	10807f04 	addi	r2,r2,508
 1009dc4:	0007883a 	mov	r3,zero
 1009dc8:	10c00025 	stbio	r3,0(r2)
 1009dcc:	e0bfff17 	ldw	r2,-4(fp)
 1009dd0:	00c00044 	movi	r3,1
 1009dd4:	10c00e15 	stw	r3,56(r2)
 1009dd8:	e037883a 	mov	sp,fp
 1009ddc:	df000017 	ldw	fp,0(sp)
 1009de0:	dec00104 	addi	sp,sp,4
 1009de4:	f800283a 	ret

01009de8 <sls_avalon_usb20_irq>:
 1009de8:	deffd204 	addi	sp,sp,-184
 1009dec:	dfc02d15 	stw	ra,180(sp)
 1009df0:	df002c15 	stw	fp,176(sp)
 1009df4:	df002c04 	addi	fp,sp,176
 1009df8:	e13fff15 	stw	r4,-4(fp)
 1009dfc:	e0bfff17 	ldw	r2,-4(fp)
 1009e00:	e0bfd815 	stw	r2,-160(fp)
 1009e04:	e03fe345 	stb	zero,-115(fp)
 1009e08:	e03fe415 	stw	zero,-112(fp)
 1009e0c:	e03fe815 	stw	zero,-96(fp)
 1009e10:	e03fe915 	stw	zero,-92(fp)
 1009e14:	e03fee15 	stw	zero,-72(fp)
 1009e18:	e03fef15 	stw	zero,-68(fp)
 1009e1c:	e03ff015 	stw	zero,-64(fp)
 1009e20:	e03ff115 	stw	zero,-60(fp)
 1009e24:	e0bfd817 	ldw	r2,-160(fp)
 1009e28:	10803217 	ldw	r2,200(r2)
 1009e2c:	e0bff215 	stw	r2,-56(fp)
 1009e30:	e03fd90d 	sth	zero,-156(fp)
 1009e34:	e03fd98d 	sth	zero,-154(fp)
 1009e38:	e03fda0d 	sth	zero,-152(fp)
 1009e3c:	e03fdb15 	stw	zero,-148(fp)
 1009e40:	e0bfd817 	ldw	r2,-160(fp)
 1009e44:	10800043 	ldbu	r2,1(r2)
 1009e48:	10803fcc 	andi	r2,r2,255
 1009e4c:	e0bff615 	stw	r2,-40(fp)
 1009e50:	e0bfd817 	ldw	r2,-160(fp)
 1009e54:	10801517 	ldw	r2,84(r2)
 1009e58:	e0bff715 	stw	r2,-36(fp)
 1009e5c:	e0bfd817 	ldw	r2,-160(fp)
 1009e60:	10803f17 	ldw	r2,252(r2)
 1009e64:	e0bfdc15 	stw	r2,-144(fp)
 1009e68:	e0bfd817 	ldw	r2,-160(fp)
 1009e6c:	10804017 	ldw	r2,256(r2)
 1009e70:	e0bfdd15 	stw	r2,-140(fp)
 1009e74:	e0bff717 	ldw	r2,-36(fp)
 1009e78:	10800304 	addi	r2,r2,12
 1009e7c:	10800037 	ldwio	r2,0(r2)
 1009e80:	e0bfee15 	stw	r2,-72(fp)
 1009e84:	e0bfee17 	ldw	r2,-72(fp)
 1009e88:	1084002c 	andhi	r2,r2,4096
 1009e8c:	10004d26 	beq	r2,zero,1009fc4 <sls_avalon_usb20_irq+0x1dc>
 1009e90:	e0bfd817 	ldw	r2,-160(fp)
 1009e94:	10803317 	ldw	r2,204(r2)
 1009e98:	1000031e 	bne	r2,zero,1009ea8 <sls_avalon_usb20_irq+0xc0>
 1009e9c:	e0bfd817 	ldw	r2,-160(fp)
 1009ea0:	00c00044 	movi	r3,1
 1009ea4:	10c03315 	stw	r3,204(r2)
 1009ea8:	e0bfd817 	ldw	r2,-160(fp)
 1009eac:	10003215 	stw	zero,200(r2)
 1009eb0:	e0bfdd17 	ldw	r2,-140(fp)
 1009eb4:	00c00084 	movi	r3,2
 1009eb8:	10c00215 	stw	r3,8(r2)
 1009ebc:	e0bfd817 	ldw	r2,-160(fp)
 1009ec0:	10000005 	stb	zero,0(r2)
 1009ec4:	e0bfd817 	ldw	r2,-160(fp)
 1009ec8:	10002815 	stw	zero,160(r2)
 1009ecc:	e0bfd817 	ldw	r2,-160(fp)
 1009ed0:	10002915 	stw	zero,164(r2)
 1009ed4:	e0bfd817 	ldw	r2,-160(fp)
 1009ed8:	10002c15 	stw	zero,176(r2)
 1009edc:	e0bfd817 	ldw	r2,-160(fp)
 1009ee0:	10002d15 	stw	zero,180(r2)
 1009ee4:	e0bfd817 	ldw	r2,-160(fp)
 1009ee8:	00c00044 	movi	r3,1
 1009eec:	10c00f15 	stw	r3,60(r2)
 1009ef0:	e0bfd817 	ldw	r2,-160(fp)
 1009ef4:	10000e15 	stw	zero,56(r2)
 1009ef8:	e0bfd817 	ldw	r2,-160(fp)
 1009efc:	10003415 	stw	zero,208(r2)
 1009f00:	e0bfdd17 	ldw	r2,-140(fp)
 1009f04:	10000415 	stw	zero,16(r2)
 1009f08:	e0bfd817 	ldw	r2,-160(fp)
 1009f0c:	1001bc45 	stb	zero,1777(r2)
 1009f10:	e0bfd817 	ldw	r2,-160(fp)
 1009f14:	1001bc05 	stb	zero,1776(r2)
 1009f18:	e0bfd817 	ldw	r2,-160(fp)
 1009f1c:	10803817 	ldw	r2,224(r2)
 1009f20:	10000426 	beq	r2,zero,1009f34 <sls_avalon_usb20_irq+0x14c>
 1009f24:	e0bfd817 	ldw	r2,-160(fp)
 1009f28:	10803817 	ldw	r2,224(r2)
 1009f2c:	e13fd817 	ldw	r4,-160(fp)
 1009f30:	103ee83a 	callr	r2
 1009f34:	e03fe415 	stw	zero,-112(fp)
 1009f38:	00001106 	br	1009f80 <sls_avalon_usb20_irq+0x198>
 1009f3c:	e0bfe417 	ldw	r2,-112(fp)
 1009f40:	e0ffd817 	ldw	r3,-160(fp)
 1009f44:	10803a44 	addi	r2,r2,233
 1009f48:	1085883a 	add	r2,r2,r2
 1009f4c:	1085883a 	add	r2,r2,r2
 1009f50:	1885883a 	add	r2,r3,r2
 1009f54:	10000015 	stw	zero,0(r2)
 1009f58:	e0bfe417 	ldw	r2,-112(fp)
 1009f5c:	e0ffd817 	ldw	r3,-160(fp)
 1009f60:	10806884 	addi	r2,r2,418
 1009f64:	1085883a 	add	r2,r2,r2
 1009f68:	1085883a 	add	r2,r2,r2
 1009f6c:	1885883a 	add	r2,r3,r2
 1009f70:	10000015 	stw	zero,0(r2)
 1009f74:	e0bfe417 	ldw	r2,-112(fp)
 1009f78:	10800044 	addi	r2,r2,1
 1009f7c:	e0bfe415 	stw	r2,-112(fp)
 1009f80:	e0bfe417 	ldw	r2,-112(fp)
 1009f84:	108003f0 	cmpltui	r2,r2,15
 1009f88:	103fec1e 	bne	r2,zero,1009f3c <__alt_data_end+0xfffe973c>
 1009f8c:	e0bff717 	ldw	r2,-36(fp)
 1009f90:	10801004 	addi	r2,r2,64
 1009f94:	1007883a 	mov	r3,r2
 1009f98:	e0bff617 	ldw	r2,-40(fp)
 1009f9c:	1080c0f4 	orhi	r2,r2,771
 1009fa0:	18800035 	stwio	r2,0(r3)
 1009fa4:	e0bff717 	ldw	r2,-36(fp)
 1009fa8:	10801104 	addi	r2,r2,68
 1009fac:	1007883a 	mov	r3,r2
 1009fb0:	008fc034 	movhi	r2,16128
 1009fb4:	18800035 	stwio	r2,0(r3)
 1009fb8:	e0bfd817 	ldw	r2,-160(fp)
 1009fbc:	00c00084 	movi	r3,2
 1009fc0:	10c00c15 	stw	r3,48(r2)
 1009fc4:	e0bfee17 	ldw	r2,-72(fp)
 1009fc8:	1088002c 	andhi	r2,r2,8192
 1009fcc:	10006726 	beq	r2,zero,100a16c <sls_avalon_usb20_irq+0x384>
 1009fd0:	e0bfdd17 	ldw	r2,-140(fp)
 1009fd4:	00c00084 	movi	r3,2
 1009fd8:	10c00215 	stw	r3,8(r2)
 1009fdc:	e03fe415 	stw	zero,-112(fp)
 1009fe0:	00001106 	br	100a028 <sls_avalon_usb20_irq+0x240>
 1009fe4:	e0bfe417 	ldw	r2,-112(fp)
 1009fe8:	e0ffd817 	ldw	r3,-160(fp)
 1009fec:	10803a44 	addi	r2,r2,233
 1009ff0:	1085883a 	add	r2,r2,r2
 1009ff4:	1085883a 	add	r2,r2,r2
 1009ff8:	1885883a 	add	r2,r3,r2
 1009ffc:	10000015 	stw	zero,0(r2)
 100a000:	e0bfe417 	ldw	r2,-112(fp)
 100a004:	e0ffd817 	ldw	r3,-160(fp)
 100a008:	10806884 	addi	r2,r2,418
 100a00c:	1085883a 	add	r2,r2,r2
 100a010:	1085883a 	add	r2,r2,r2
 100a014:	1885883a 	add	r2,r3,r2
 100a018:	10000015 	stw	zero,0(r2)
 100a01c:	e0bfe417 	ldw	r2,-112(fp)
 100a020:	10800044 	addi	r2,r2,1
 100a024:	e0bfe415 	stw	r2,-112(fp)
 100a028:	e0bfe417 	ldw	r2,-112(fp)
 100a02c:	10800430 	cmpltui	r2,r2,16
 100a030:	103fec1e 	bne	r2,zero,1009fe4 <__alt_data_end+0xfffe97e4>
 100a034:	e0bff717 	ldw	r2,-36(fp)
 100a038:	10800404 	addi	r2,r2,16
 100a03c:	10800037 	ldwio	r2,0(r2)
 100a040:	1080008c 	andi	r2,r2,2
 100a044:	10002626 	beq	r2,zero,100a0e0 <sls_avalon_usb20_irq+0x2f8>
 100a048:	e0bfd817 	ldw	r2,-160(fp)
 100a04c:	10800317 	ldw	r2,12(r2)
 100a050:	10800084 	addi	r2,r2,2
 100a054:	10000005 	stb	zero,0(r2)
 100a058:	e0bfd817 	ldw	r2,-160(fp)
 100a05c:	10800317 	ldw	r2,12(r2)
 100a060:	108000c4 	addi	r2,r2,3
 100a064:	00c00084 	movi	r3,2
 100a068:	10c00005 	stb	r3,0(r2)
 100a06c:	d0a00217 	ldw	r2,-32760(gp)
 100a070:	10bfffe0 	cmpeqi	r2,r2,-1
 100a074:	1000021e 	bne	r2,zero,100a080 <sls_avalon_usb20_irq+0x298>
 100a078:	d0a00217 	ldw	r2,-32760(gp)
 100a07c:	1000051e 	bne	r2,zero,100a094 <sls_avalon_usb20_irq+0x2ac>
 100a080:	00800044 	movi	r2,1
 100a084:	d0a00215 	stw	r2,-32760(gp)
 100a088:	e0bfd817 	ldw	r2,-160(fp)
 100a08c:	00c00044 	movi	r3,1
 100a090:	10c00e15 	stw	r3,56(r2)
 100a094:	e0bfd817 	ldw	r2,-160(fp)
 100a098:	00c00044 	movi	r3,1
 100a09c:	10c00c15 	stw	r3,48(r2)
 100a0a0:	e0bfd817 	ldw	r2,-160(fp)
 100a0a4:	1001bc45 	stb	zero,1777(r2)
 100a0a8:	e0bff717 	ldw	r2,-36(fp)
 100a0ac:	10801004 	addi	r2,r2,64
 100a0b0:	1009883a 	mov	r4,r2
 100a0b4:	e0fff617 	ldw	r3,-40(fp)
 100a0b8:	0080c0f4 	movhi	r2,771
 100a0bc:	10820004 	addi	r2,r2,2048
 100a0c0:	1884b03a 	or	r2,r3,r2
 100a0c4:	20800035 	stwio	r2,0(r4)
 100a0c8:	e0bff717 	ldw	r2,-36(fp)
 100a0cc:	10801104 	addi	r2,r2,68
 100a0d0:	1007883a 	mov	r3,r2
 100a0d4:	008fc034 	movhi	r2,16128
 100a0d8:	18800035 	stwio	r2,0(r3)
 100a0dc:	00002306 	br	100a16c <sls_avalon_usb20_irq+0x384>
 100a0e0:	e0bfd817 	ldw	r2,-160(fp)
 100a0e4:	10800317 	ldw	r2,12(r2)
 100a0e8:	10800084 	addi	r2,r2,2
 100a0ec:	00c00404 	movi	r3,16
 100a0f0:	10c00005 	stb	r3,0(r2)
 100a0f4:	e0bfd817 	ldw	r2,-160(fp)
 100a0f8:	10800317 	ldw	r2,12(r2)
 100a0fc:	108000c4 	addi	r2,r2,3
 100a100:	00c00044 	movi	r3,1
 100a104:	10c00005 	stb	r3,0(r2)
 100a108:	d0a00217 	ldw	r2,-32760(gp)
 100a10c:	10bfffe0 	cmpeqi	r2,r2,-1
 100a110:	1000031e 	bne	r2,zero,100a120 <sls_avalon_usb20_irq+0x338>
 100a114:	d0a00217 	ldw	r2,-32760(gp)
 100a118:	10800058 	cmpnei	r2,r2,1
 100a11c:	1000041e 	bne	r2,zero,100a130 <sls_avalon_usb20_irq+0x348>
 100a120:	d0200215 	stw	zero,-32760(gp)
 100a124:	e0bfd817 	ldw	r2,-160(fp)
 100a128:	00c00044 	movi	r3,1
 100a12c:	10c00e15 	stw	r3,56(r2)
 100a130:	e0bfd817 	ldw	r2,-160(fp)
 100a134:	10000c15 	stw	zero,48(r2)
 100a138:	e0bfd817 	ldw	r2,-160(fp)
 100a13c:	1001bc45 	stb	zero,1777(r2)
 100a140:	e0bff717 	ldw	r2,-36(fp)
 100a144:	10801004 	addi	r2,r2,64
 100a148:	1007883a 	mov	r3,r2
 100a14c:	e0bff617 	ldw	r2,-40(fp)
 100a150:	1080c0f4 	orhi	r2,r2,771
 100a154:	18800035 	stwio	r2,0(r3)
 100a158:	e0bff717 	ldw	r2,-36(fp)
 100a15c:	10801104 	addi	r2,r2,68
 100a160:	1007883a 	mov	r3,r2
 100a164:	008fc034 	movhi	r2,16128
 100a168:	18800035 	stwio	r2,0(r3)
 100a16c:	e0bfee17 	ldw	r2,-72(fp)
 100a170:	1080004c 	andi	r2,r2,1
 100a174:	1001e326 	beq	r2,zero,100a904 <sls_avalon_usb20_irq+0xb1c>
 100a178:	e0bff717 	ldw	r2,-36(fp)
 100a17c:	10801104 	addi	r2,r2,68
 100a180:	10800037 	ldwio	r2,0(r2)
 100a184:	e0bfe915 	stw	r2,-92(fp)
 100a188:	e0bfe917 	ldw	r2,-92(fp)
 100a18c:	1080040c 	andi	r2,r2,16
 100a190:	1000af26 	beq	r2,zero,100a450 <sls_avalon_usb20_irq+0x668>
 100a194:	e0bff217 	ldw	r2,-56(fp)
 100a198:	10002226 	beq	r2,zero,100a224 <sls_avalon_usb20_irq+0x43c>
 100a19c:	e0bff217 	ldw	r2,-56(fp)
 100a1a0:	10800058 	cmpnei	r2,r2,1
 100a1a4:	1000051e 	bne	r2,zero,100a1bc <sls_avalon_usb20_irq+0x3d4>
 100a1a8:	e0bff717 	ldw	r2,-36(fp)
 100a1ac:	10800804 	addi	r2,r2,32
 100a1b0:	1007883a 	mov	r3,r2
 100a1b4:	00800444 	movi	r2,17
 100a1b8:	18800025 	stbio	r2,0(r3)
 100a1bc:	e0bff217 	ldw	r2,-56(fp)
 100a1c0:	10800098 	cmpnei	r2,r2,2
 100a1c4:	1000051e 	bne	r2,zero,100a1dc <sls_avalon_usb20_irq+0x3f4>
 100a1c8:	e0bff717 	ldw	r2,-36(fp)
 100a1cc:	10800804 	addi	r2,r2,32
 100a1d0:	1007883a 	mov	r3,r2
 100a1d4:	00800484 	movi	r2,18
 100a1d8:	18800025 	stbio	r2,0(r3)
 100a1dc:	e0bff217 	ldw	r2,-56(fp)
 100a1e0:	10800118 	cmpnei	r2,r2,4
 100a1e4:	1000051e 	bne	r2,zero,100a1fc <sls_avalon_usb20_irq+0x414>
 100a1e8:	e0bff717 	ldw	r2,-36(fp)
 100a1ec:	10800804 	addi	r2,r2,32
 100a1f0:	1007883a 	mov	r3,r2
 100a1f4:	00800504 	movi	r2,20
 100a1f8:	18800025 	stbio	r2,0(r3)
 100a1fc:	e0bff217 	ldw	r2,-56(fp)
 100a200:	10800218 	cmpnei	r2,r2,8
 100a204:	1000051e 	bne	r2,zero,100a21c <sls_avalon_usb20_irq+0x434>
 100a208:	e0bff717 	ldw	r2,-36(fp)
 100a20c:	10800804 	addi	r2,r2,32
 100a210:	1007883a 	mov	r3,r2
 100a214:	00800604 	movi	r2,24
 100a218:	18800025 	stbio	r2,0(r3)
 100a21c:	e0bfd817 	ldw	r2,-160(fp)
 100a220:	10003215 	stw	zero,200(r2)
 100a224:	e0bfdd17 	ldw	r2,-140(fp)
 100a228:	10800617 	ldw	r2,24(r2)
 100a22c:	10c00183 	ldbu	r3,6(r2)
 100a230:	108001c3 	ldbu	r2,7(r2)
 100a234:	1004923a 	slli	r2,r2,8
 100a238:	10c4b03a 	or	r2,r2,r3
 100a23c:	10bfffcc 	andi	r2,r2,65535
 100a240:	1000061e 	bne	r2,zero,100a25c <sls_avalon_usb20_irq+0x474>
 100a244:	e0bfdd17 	ldw	r2,-140(fp)
 100a248:	10800217 	ldw	r2,8(r2)
 100a24c:	1000031e 	bne	r2,zero,100a25c <sls_avalon_usb20_irq+0x474>
 100a250:	e0bfdd17 	ldw	r2,-140(fp)
 100a254:	00c00084 	movi	r3,2
 100a258:	10c00215 	stw	r3,8(r2)
 100a25c:	e0bfdd17 	ldw	r2,-140(fp)
 100a260:	10800617 	ldw	r2,24(r2)
 100a264:	10c00183 	ldbu	r3,6(r2)
 100a268:	108001c3 	ldbu	r2,7(r2)
 100a26c:	1004923a 	slli	r2,r2,8
 100a270:	10c4b03a 	or	r2,r2,r3
 100a274:	10bfffcc 	andi	r2,r2,65535
 100a278:	10006626 	beq	r2,zero,100a414 <sls_avalon_usb20_irq+0x62c>
 100a27c:	e0bfdd17 	ldw	r2,-140(fp)
 100a280:	10800217 	ldw	r2,8(r2)
 100a284:	1000631e 	bne	r2,zero,100a414 <sls_avalon_usb20_irq+0x62c>
 100a288:	e03fec15 	stw	zero,-80(fp)
 100a28c:	e0bfd817 	ldw	r2,-160(fp)
 100a290:	10803417 	ldw	r2,208(r2)
 100a294:	e0bfe615 	stw	r2,-104(fp)
 100a298:	e0bfdd17 	ldw	r2,-140(fp)
 100a29c:	10800417 	ldw	r2,16(r2)
 100a2a0:	e0ffe617 	ldw	r3,-104(fp)
 100a2a4:	18803c2e 	bgeu	r3,r2,100a398 <sls_avalon_usb20_irq+0x5b0>
 100a2a8:	e0bfdd17 	ldw	r2,-140(fp)
 100a2ac:	10c00417 	ldw	r3,16(r2)
 100a2b0:	e0bfe617 	ldw	r2,-104(fp)
 100a2b4:	1885c83a 	sub	r2,r3,r2
 100a2b8:	e0bfec15 	stw	r2,-80(fp)
 100a2bc:	e0bff617 	ldw	r2,-40(fp)
 100a2c0:	1007883a 	mov	r3,r2
 100a2c4:	e0bfec17 	ldw	r2,-80(fp)
 100a2c8:	1880022e 	bgeu	r3,r2,100a2d4 <sls_avalon_usb20_irq+0x4ec>
 100a2cc:	e0bff617 	ldw	r2,-40(fp)
 100a2d0:	e0bfec15 	stw	r2,-80(fp)
 100a2d4:	e03fed15 	stw	zero,-76(fp)
 100a2d8:	00001406 	br	100a32c <sls_avalon_usb20_irq+0x544>
 100a2dc:	e0bfed17 	ldw	r2,-76(fp)
 100a2e0:	e0fff717 	ldw	r3,-36(fp)
 100a2e4:	10c7883a 	add	r3,r2,r3
 100a2e8:	008000b4 	movhi	r2,2
 100a2ec:	1885883a 	add	r2,r3,r2
 100a2f0:	100b883a 	mov	r5,r2
 100a2f4:	e0bfdd17 	ldw	r2,-140(fp)
 100a2f8:	10c00117 	ldw	r3,4(r2)
 100a2fc:	e13fed17 	ldw	r4,-76(fp)
 100a300:	e0bfe617 	ldw	r2,-104(fp)
 100a304:	2085883a 	add	r2,r4,r2
 100a308:	1885883a 	add	r2,r3,r2
 100a30c:	10800003 	ldbu	r2,0(r2)
 100a310:	10803fcc 	andi	r2,r2,255
 100a314:	1080201c 	xori	r2,r2,128
 100a318:	10bfe004 	addi	r2,r2,-128
 100a31c:	28800025 	stbio	r2,0(r5)
 100a320:	e0bfed17 	ldw	r2,-76(fp)
 100a324:	10800044 	addi	r2,r2,1
 100a328:	e0bfed15 	stw	r2,-76(fp)
 100a32c:	e0ffed17 	ldw	r3,-76(fp)
 100a330:	e0bfec17 	ldw	r2,-80(fp)
 100a334:	18bfe936 	bltu	r3,r2,100a2dc <__alt_data_end+0xfffe9adc>
 100a338:	e0bff717 	ldw	r2,-36(fp)
 100a33c:	10801304 	addi	r2,r2,76
 100a340:	1007883a 	mov	r3,r2
 100a344:	e0bfec17 	ldw	r2,-80(fp)
 100a348:	1004947a 	slli	r2,r2,17
 100a34c:	18800035 	stwio	r2,0(r3)
 100a350:	e0bfec17 	ldw	r2,-80(fp)
 100a354:	e0ffd817 	ldw	r3,-160(fp)
 100a358:	18c03417 	ldw	r3,208(r3)
 100a35c:	1887883a 	add	r3,r3,r2
 100a360:	e0bfd817 	ldw	r2,-160(fp)
 100a364:	10c03415 	stw	r3,208(r2)
 100a368:	e0bfd817 	ldw	r2,-160(fp)
 100a36c:	1081bc43 	ldbu	r2,1777(r2)
 100a370:	10803fcc 	andi	r2,r2,255
 100a374:	1000071e 	bne	r2,zero,100a394 <sls_avalon_usb20_irq+0x5ac>
 100a378:	e0bff717 	ldw	r2,-36(fp)
 100a37c:	10801204 	addi	r2,r2,72
 100a380:	1007883a 	mov	r3,r2
 100a384:	e0bff617 	ldw	r2,-40(fp)
 100a388:	1004947a 	slli	r2,r2,17
 100a38c:	18800035 	stwio	r2,0(r3)
 100a390:	00015c06 	br	100a904 <sls_avalon_usb20_irq+0xb1c>
 100a394:	00015b06 	br	100a904 <sls_avalon_usb20_irq+0xb1c>
 100a398:	e0bfd817 	ldw	r2,-160(fp)
 100a39c:	10c03417 	ldw	r3,208(r2)
 100a3a0:	e0bfdd17 	ldw	r2,-140(fp)
 100a3a4:	10800417 	ldw	r2,16(r2)
 100a3a8:	18801936 	bltu	r3,r2,100a410 <sls_avalon_usb20_irq+0x628>
 100a3ac:	e0bfdd17 	ldw	r2,-140(fp)
 100a3b0:	10800417 	ldw	r2,16(r2)
 100a3b4:	e0fff617 	ldw	r3,-40(fp)
 100a3b8:	1009883a 	mov	r4,r2
 100a3bc:	180b883a 	mov	r5,r3
 100a3c0:	100f7cc0 	call	100f7cc <__umodsi3>
 100a3c4:	1000041e 	bne	r2,zero,100a3d8 <sls_avalon_usb20_irq+0x5f0>
 100a3c8:	e0bff717 	ldw	r2,-36(fp)
 100a3cc:	10801304 	addi	r2,r2,76
 100a3d0:	0007883a 	mov	r3,zero
 100a3d4:	10c00035 	stwio	r3,0(r2)
 100a3d8:	e0bff717 	ldw	r2,-36(fp)
 100a3dc:	10801204 	addi	r2,r2,72
 100a3e0:	1007883a 	mov	r3,r2
 100a3e4:	e0bff617 	ldw	r2,-40(fp)
 100a3e8:	1004947a 	slli	r2,r2,17
 100a3ec:	18800035 	stwio	r2,0(r3)
 100a3f0:	e0bfdd17 	ldw	r2,-140(fp)
 100a3f4:	00c00044 	movi	r3,1
 100a3f8:	10c00215 	stw	r3,8(r2)
 100a3fc:	e0bfd817 	ldw	r2,-160(fp)
 100a400:	10003415 	stw	zero,208(r2)
 100a404:	e0bfdd17 	ldw	r2,-140(fp)
 100a408:	10000415 	stw	zero,16(r2)
 100a40c:	00001006 	br	100a450 <sls_avalon_usb20_irq+0x668>
 100a410:	00000f06 	br	100a450 <sls_avalon_usb20_irq+0x668>
 100a414:	e0bfdd17 	ldw	r2,-140(fp)
 100a418:	10800617 	ldw	r2,24(r2)
 100a41c:	10c00183 	ldbu	r3,6(r2)
 100a420:	108001c3 	ldbu	r2,7(r2)
 100a424:	1004923a 	slli	r2,r2,8
 100a428:	10c4b03a 	or	r2,r2,r3
 100a42c:	10bfffcc 	andi	r2,r2,65535
 100a430:	10000726 	beq	r2,zero,100a450 <sls_avalon_usb20_irq+0x668>
 100a434:	e0bfdd17 	ldw	r2,-140(fp)
 100a438:	10800217 	ldw	r2,8(r2)
 100a43c:	10800058 	cmpnei	r2,r2,1
 100a440:	1000031e 	bne	r2,zero,100a450 <sls_avalon_usb20_irq+0x668>
 100a444:	e0bfdd17 	ldw	r2,-140(fp)
 100a448:	00c00084 	movi	r3,2
 100a44c:	10c00215 	stw	r3,8(r2)
 100a450:	e0bfe917 	ldw	r2,-92(fp)
 100a454:	1080020c 	andi	r2,r2,8
 100a458:	10011d26 	beq	r2,zero,100a8d0 <sls_avalon_usb20_irq+0xae8>
 100a45c:	e0bfdd17 	ldw	r2,-140(fp)
 100a460:	10800617 	ldw	r2,24(r2)
 100a464:	10c00183 	ldbu	r3,6(r2)
 100a468:	108001c3 	ldbu	r2,7(r2)
 100a46c:	1004923a 	slli	r2,r2,8
 100a470:	10c4b03a 	or	r2,r2,r3
 100a474:	10bfffcc 	andi	r2,r2,65535
 100a478:	1000a026 	beq	r2,zero,100a6fc <sls_avalon_usb20_irq+0x914>
 100a47c:	e0bfdd17 	ldw	r2,-140(fp)
 100a480:	10800617 	ldw	r2,24(r2)
 100a484:	10c00003 	ldbu	r3,0(r2)
 100a488:	00bfe004 	movi	r2,-128
 100a48c:	1884703a 	and	r2,r3,r2
 100a490:	10803fcc 	andi	r2,r2,255
 100a494:	1000991e 	bne	r2,zero,100a6fc <sls_avalon_usb20_irq+0x914>
 100a498:	e0bfdd17 	ldw	r2,-140(fp)
 100a49c:	10800217 	ldw	r2,8(r2)
 100a4a0:	1000961e 	bne	r2,zero,100a6fc <sls_avalon_usb20_irq+0x914>
 100a4a4:	e0bff717 	ldw	r2,-36(fp)
 100a4a8:	10801204 	addi	r2,r2,72
 100a4ac:	10800037 	ldwio	r2,0(r2)
 100a4b0:	e0bff815 	stw	r2,-32(fp)
 100a4b4:	e0fff617 	ldw	r3,-40(fp)
 100a4b8:	e0bff817 	ldw	r2,-32(fp)
 100a4bc:	109fffac 	andhi	r2,r2,32766
 100a4c0:	1005d47a 	srai	r2,r2,17
 100a4c4:	1885c83a 	sub	r2,r3,r2
 100a4c8:	e0bfe715 	stw	r2,-100(fp)
 100a4cc:	e0bfdd17 	ldw	r2,-140(fp)
 100a4d0:	10c00417 	ldw	r3,16(r2)
 100a4d4:	e0bfdd17 	ldw	r2,-140(fp)
 100a4d8:	10800617 	ldw	r2,24(r2)
 100a4dc:	11000183 	ldbu	r4,6(r2)
 100a4e0:	108001c3 	ldbu	r2,7(r2)
 100a4e4:	1004923a 	slli	r2,r2,8
 100a4e8:	1104b03a 	or	r2,r2,r4
 100a4ec:	10bfffcc 	andi	r2,r2,65535
 100a4f0:	1880332e 	bgeu	r3,r2,100a5c0 <sls_avalon_usb20_irq+0x7d8>
 100a4f4:	e0bfdd17 	ldw	r2,-140(fp)
 100a4f8:	10800417 	ldw	r2,16(r2)
 100a4fc:	e0bfec15 	stw	r2,-80(fp)
 100a500:	e03fe415 	stw	zero,-112(fp)
 100a504:	00001406 	br	100a558 <sls_avalon_usb20_irq+0x770>
 100a508:	e0bfdd17 	ldw	r2,-140(fp)
 100a50c:	10c00117 	ldw	r3,4(r2)
 100a510:	e13fe417 	ldw	r4,-112(fp)
 100a514:	e0bfec17 	ldw	r2,-80(fp)
 100a518:	2085883a 	add	r2,r4,r2
 100a51c:	1885883a 	add	r2,r3,r2
 100a520:	e0fff717 	ldw	r3,-36(fp)
 100a524:	1809883a 	mov	r4,r3
 100a528:	e0ffe417 	ldw	r3,-112(fp)
 100a52c:	20c9883a 	add	r4,r4,r3
 100a530:	00c000b4 	movhi	r3,2
 100a534:	20c7883a 	add	r3,r4,r3
 100a538:	18c00003 	ldbu	r3,0(r3)
 100a53c:	18c03fcc 	andi	r3,r3,255
 100a540:	18c0201c 	xori	r3,r3,128
 100a544:	18ffe004 	addi	r3,r3,-128
 100a548:	10c00025 	stbio	r3,0(r2)
 100a54c:	e0bfe417 	ldw	r2,-112(fp)
 100a550:	10800044 	addi	r2,r2,1
 100a554:	e0bfe415 	stw	r2,-112(fp)
 100a558:	e0ffe417 	ldw	r3,-112(fp)
 100a55c:	e0bfe717 	ldw	r2,-100(fp)
 100a560:	18bfe936 	bltu	r3,r2,100a508 <__alt_data_end+0xfffe9d08>
 100a564:	e0bfe717 	ldw	r2,-100(fp)
 100a568:	e0ffdd17 	ldw	r3,-140(fp)
 100a56c:	18c00417 	ldw	r3,16(r3)
 100a570:	1887883a 	add	r3,r3,r2
 100a574:	e0bfdd17 	ldw	r2,-140(fp)
 100a578:	10c00415 	stw	r3,16(r2)
 100a57c:	e0bfdd17 	ldw	r2,-140(fp)
 100a580:	10c00417 	ldw	r3,16(r2)
 100a584:	e0bfdd17 	ldw	r2,-140(fp)
 100a588:	10800617 	ldw	r2,24(r2)
 100a58c:	11000183 	ldbu	r4,6(r2)
 100a590:	108001c3 	ldbu	r2,7(r2)
 100a594:	1004923a 	slli	r2,r2,8
 100a598:	1104b03a 	or	r2,r2,r4
 100a59c:	10bfffcc 	andi	r2,r2,65535
 100a5a0:	1880072e 	bgeu	r3,r2,100a5c0 <sls_avalon_usb20_irq+0x7d8>
 100a5a4:	e0bff717 	ldw	r2,-36(fp)
 100a5a8:	10801204 	addi	r2,r2,72
 100a5ac:	1007883a 	mov	r3,r2
 100a5b0:	e0bff617 	ldw	r2,-40(fp)
 100a5b4:	1004947a 	slli	r2,r2,17
 100a5b8:	18800035 	stwio	r2,0(r3)
 100a5bc:	0000d106 	br	100a904 <sls_avalon_usb20_irq+0xb1c>
 100a5c0:	e0bfdd17 	ldw	r2,-140(fp)
 100a5c4:	00c00044 	movi	r3,1
 100a5c8:	10c00215 	stw	r3,8(r2)
 100a5cc:	e0bfdd17 	ldw	r2,-140(fp)
 100a5d0:	10000015 	stw	zero,0(r2)
 100a5d4:	e0bfdd17 	ldw	r2,-140(fp)
 100a5d8:	10000515 	stw	zero,20(r2)
 100a5dc:	e0bfd817 	ldw	r2,-160(fp)
 100a5e0:	10803d17 	ldw	r2,244(r2)
 100a5e4:	10000f26 	beq	r2,zero,100a624 <sls_avalon_usb20_irq+0x83c>
 100a5e8:	e0bfd817 	ldw	r2,-160(fp)
 100a5ec:	10803d17 	ldw	r2,244(r2)
 100a5f0:	e0fff717 	ldw	r3,-36(fp)
 100a5f4:	e13fdd17 	ldw	r4,-140(fp)
 100a5f8:	180b883a 	mov	r5,r3
 100a5fc:	01800044 	movi	r6,1
 100a600:	103ee83a 	callr	r2
 100a604:	e0bfd817 	ldw	r2,-160(fp)
 100a608:	10003415 	stw	zero,208(r2)
 100a60c:	e0bfdd17 	ldw	r2,-140(fp)
 100a610:	10000415 	stw	zero,16(r2)
 100a614:	e0bfdd17 	ldw	r2,-140(fp)
 100a618:	10800517 	ldw	r2,20(r2)
 100a61c:	1000171e 	bne	r2,zero,100a67c <sls_avalon_usb20_irq+0x894>
 100a620:	00000b06 	br	100a650 <sls_avalon_usb20_irq+0x868>
 100a624:	e13fd817 	ldw	r4,-160(fp)
 100a628:	01402004 	movi	r5,128
 100a62c:	1008f200 	call	1008f20 <USB_SetStallEP>
 100a630:	e0bfdd17 	ldw	r2,-140(fp)
 100a634:	00c00084 	movi	r3,2
 100a638:	10c00215 	stw	r3,8(r2)
 100a63c:	e0bfd817 	ldw	r2,-160(fp)
 100a640:	10003415 	stw	zero,208(r2)
 100a644:	e0bfdd17 	ldw	r2,-140(fp)
 100a648:	10000415 	stw	zero,16(r2)
 100a64c:	0000ad06 	br	100a904 <sls_avalon_usb20_irq+0xb1c>
 100a650:	e0bff717 	ldw	r2,-36(fp)
 100a654:	10801204 	addi	r2,r2,72
 100a658:	1007883a 	mov	r3,r2
 100a65c:	e0bff617 	ldw	r2,-40(fp)
 100a660:	1004947a 	slli	r2,r2,17
 100a664:	18800035 	stwio	r2,0(r3)
 100a668:	e0bff717 	ldw	r2,-36(fp)
 100a66c:	10801304 	addi	r2,r2,76
 100a670:	0007883a 	mov	r3,zero
 100a674:	10c00035 	stwio	r3,0(r2)
 100a678:	0000a206 	br	100a904 <sls_avalon_usb20_irq+0xb1c>
 100a67c:	e03fe415 	stw	zero,-112(fp)
 100a680:	00001206 	br	100a6cc <sls_avalon_usb20_irq+0x8e4>
 100a684:	e0bfdd17 	ldw	r2,-140(fp)
 100a688:	10c00017 	ldw	r3,0(r2)
 100a68c:	e0bfe417 	ldw	r2,-112(fp)
 100a690:	1885883a 	add	r2,r3,r2
 100a694:	10800003 	ldbu	r2,0(r2)
 100a698:	e0bfe305 	stb	r2,-116(fp)
 100a69c:	e0bfe417 	ldw	r2,-112(fp)
 100a6a0:	e0fff717 	ldw	r3,-36(fp)
 100a6a4:	10c7883a 	add	r3,r2,r3
 100a6a8:	008000b4 	movhi	r2,2
 100a6ac:	1885883a 	add	r2,r3,r2
 100a6b0:	1007883a 	mov	r3,r2
 100a6b4:	e0bfe303 	ldbu	r2,-116(fp)
 100a6b8:	10803fcc 	andi	r2,r2,255
 100a6bc:	18800025 	stbio	r2,0(r3)
 100a6c0:	e0bfe417 	ldw	r2,-112(fp)
 100a6c4:	10800044 	addi	r2,r2,1
 100a6c8:	e0bfe415 	stw	r2,-112(fp)
 100a6cc:	e0bfdd17 	ldw	r2,-140(fp)
 100a6d0:	10800517 	ldw	r2,20(r2)
 100a6d4:	e0ffe417 	ldw	r3,-112(fp)
 100a6d8:	18bfea36 	bltu	r3,r2,100a684 <__alt_data_end+0xfffe9e84>
 100a6dc:	e0bff717 	ldw	r2,-36(fp)
 100a6e0:	10801304 	addi	r2,r2,76
 100a6e4:	1007883a 	mov	r3,r2
 100a6e8:	e0bfdd17 	ldw	r2,-140(fp)
 100a6ec:	10800517 	ldw	r2,20(r2)
 100a6f0:	1004947a 	slli	r2,r2,17
 100a6f4:	18800035 	stwio	r2,0(r3)
 100a6f8:	00008206 	br	100a904 <sls_avalon_usb20_irq+0xb1c>
 100a6fc:	e0bfdd17 	ldw	r2,-140(fp)
 100a700:	10800617 	ldw	r2,24(r2)
 100a704:	10c00183 	ldbu	r3,6(r2)
 100a708:	108001c3 	ldbu	r2,7(r2)
 100a70c:	1004923a 	slli	r2,r2,8
 100a710:	10c4b03a 	or	r2,r2,r3
 100a714:	10bfffcc 	andi	r2,r2,65535
 100a718:	10000a26 	beq	r2,zero,100a744 <sls_avalon_usb20_irq+0x95c>
 100a71c:	e0bfdd17 	ldw	r2,-140(fp)
 100a720:	10800217 	ldw	r2,8(r2)
 100a724:	10800058 	cmpnei	r2,r2,1
 100a728:	1000061e 	bne	r2,zero,100a744 <sls_avalon_usb20_irq+0x95c>
 100a72c:	e0bfdd17 	ldw	r2,-140(fp)
 100a730:	10000515 	stw	zero,20(r2)
 100a734:	e0bfdd17 	ldw	r2,-140(fp)
 100a738:	00c00084 	movi	r3,2
 100a73c:	10c00215 	stw	r3,8(r2)
 100a740:	00006306 	br	100a8d0 <sls_avalon_usb20_irq+0xae8>
 100a744:	e0bfdd17 	ldw	r2,-140(fp)
 100a748:	10800617 	ldw	r2,24(r2)
 100a74c:	10c00183 	ldbu	r3,6(r2)
 100a750:	108001c3 	ldbu	r2,7(r2)
 100a754:	1004923a 	slli	r2,r2,8
 100a758:	10c4b03a 	or	r2,r2,r3
 100a75c:	10bfffcc 	andi	r2,r2,65535
 100a760:	10005b1e 	bne	r2,zero,100a8d0 <sls_avalon_usb20_irq+0xae8>
 100a764:	e0bfdd17 	ldw	r2,-140(fp)
 100a768:	10800617 	ldw	r2,24(r2)
 100a76c:	10c00003 	ldbu	r3,0(r2)
 100a770:	00bfe004 	movi	r2,-128
 100a774:	1884703a 	and	r2,r3,r2
 100a778:	10803fcc 	andi	r2,r2,255
 100a77c:	1000541e 	bne	r2,zero,100a8d0 <sls_avalon_usb20_irq+0xae8>
 100a780:	e0bfdd17 	ldw	r2,-140(fp)
 100a784:	10800217 	ldw	r2,8(r2)
 100a788:	1000511e 	bne	r2,zero,100a8d0 <sls_avalon_usb20_irq+0xae8>
 100a78c:	e0bfdd17 	ldw	r2,-140(fp)
 100a790:	10800417 	ldw	r2,16(r2)
 100a794:	e0fff617 	ldw	r3,-40(fp)
 100a798:	18ffffc4 	addi	r3,r3,-1
 100a79c:	10c4703a 	and	r2,r2,r3
 100a7a0:	10004b1e 	bne	r2,zero,100a8d0 <sls_avalon_usb20_irq+0xae8>
 100a7a4:	e0bfdd17 	ldw	r2,-140(fp)
 100a7a8:	00c00044 	movi	r3,1
 100a7ac:	10c00215 	stw	r3,8(r2)
 100a7b0:	e0bfdd17 	ldw	r2,-140(fp)
 100a7b4:	10000515 	stw	zero,20(r2)
 100a7b8:	e0bfdd17 	ldw	r2,-140(fp)
 100a7bc:	10000015 	stw	zero,0(r2)
 100a7c0:	e0bfd817 	ldw	r2,-160(fp)
 100a7c4:	10803d17 	ldw	r2,244(r2)
 100a7c8:	10000f26 	beq	r2,zero,100a808 <sls_avalon_usb20_irq+0xa20>
 100a7cc:	e0bfd817 	ldw	r2,-160(fp)
 100a7d0:	10803d17 	ldw	r2,244(r2)
 100a7d4:	e0fff717 	ldw	r3,-36(fp)
 100a7d8:	e13fdd17 	ldw	r4,-140(fp)
 100a7dc:	180b883a 	mov	r5,r3
 100a7e0:	01800044 	movi	r6,1
 100a7e4:	103ee83a 	callr	r2
 100a7e8:	e0bfd817 	ldw	r2,-160(fp)
 100a7ec:	10003415 	stw	zero,208(r2)
 100a7f0:	e0bfdd17 	ldw	r2,-140(fp)
 100a7f4:	10000415 	stw	zero,16(r2)
 100a7f8:	e0bfdd17 	ldw	r2,-140(fp)
 100a7fc:	10800517 	ldw	r2,20(r2)
 100a800:	1000111e 	bne	r2,zero,100a848 <sls_avalon_usb20_irq+0xa60>
 100a804:	00000b06 	br	100a834 <sls_avalon_usb20_irq+0xa4c>
 100a808:	e13fd817 	ldw	r4,-160(fp)
 100a80c:	01402004 	movi	r5,128
 100a810:	1008f200 	call	1008f20 <USB_SetStallEP>
 100a814:	e0bfdd17 	ldw	r2,-140(fp)
 100a818:	00c00084 	movi	r3,2
 100a81c:	10c00215 	stw	r3,8(r2)
 100a820:	e0bfd817 	ldw	r2,-160(fp)
 100a824:	10003415 	stw	zero,208(r2)
 100a828:	e0bfdd17 	ldw	r2,-140(fp)
 100a82c:	10000415 	stw	zero,16(r2)
 100a830:	00003406 	br	100a904 <sls_avalon_usb20_irq+0xb1c>
 100a834:	e0bff717 	ldw	r2,-36(fp)
 100a838:	10801304 	addi	r2,r2,76
 100a83c:	0007883a 	mov	r3,zero
 100a840:	10c00035 	stwio	r3,0(r2)
 100a844:	00002f06 	br	100a904 <sls_avalon_usb20_irq+0xb1c>
 100a848:	e03fe415 	stw	zero,-112(fp)
 100a84c:	00001206 	br	100a898 <sls_avalon_usb20_irq+0xab0>
 100a850:	e0bfdd17 	ldw	r2,-140(fp)
 100a854:	10c00017 	ldw	r3,0(r2)
 100a858:	e0bfe417 	ldw	r2,-112(fp)
 100a85c:	1885883a 	add	r2,r3,r2
 100a860:	10800003 	ldbu	r2,0(r2)
 100a864:	e0bfe305 	stb	r2,-116(fp)
 100a868:	e0bfe417 	ldw	r2,-112(fp)
 100a86c:	e0fff717 	ldw	r3,-36(fp)
 100a870:	10c7883a 	add	r3,r2,r3
 100a874:	008000b4 	movhi	r2,2
 100a878:	1885883a 	add	r2,r3,r2
 100a87c:	1007883a 	mov	r3,r2
 100a880:	e0bfe303 	ldbu	r2,-116(fp)
 100a884:	10803fcc 	andi	r2,r2,255
 100a888:	18800025 	stbio	r2,0(r3)
 100a88c:	e0bfe417 	ldw	r2,-112(fp)
 100a890:	10800044 	addi	r2,r2,1
 100a894:	e0bfe415 	stw	r2,-112(fp)
 100a898:	e0bfdd17 	ldw	r2,-140(fp)
 100a89c:	10800517 	ldw	r2,20(r2)
 100a8a0:	e0ffe417 	ldw	r3,-112(fp)
 100a8a4:	18bfea36 	bltu	r3,r2,100a850 <__alt_data_end+0xfffea050>
 100a8a8:	e0bff717 	ldw	r2,-36(fp)
 100a8ac:	10801304 	addi	r2,r2,76
 100a8b0:	1007883a 	mov	r3,r2
 100a8b4:	e0bfdd17 	ldw	r2,-140(fp)
 100a8b8:	10800517 	ldw	r2,20(r2)
 100a8bc:	1004947a 	slli	r2,r2,17
 100a8c0:	18800035 	stwio	r2,0(r3)
 100a8c4:	e0bfdd17 	ldw	r2,-140(fp)
 100a8c8:	10000515 	stw	zero,20(r2)
 100a8cc:	00000d06 	br	100a904 <sls_avalon_usb20_irq+0xb1c>
 100a8d0:	e0bfe917 	ldw	r2,-92(fp)
 100a8d4:	108009cc 	andi	r2,r2,39
 100a8d8:	10000a26 	beq	r2,zero,100a904 <sls_avalon_usb20_irq+0xb1c>
 100a8dc:	e0bfd817 	ldw	r2,-160(fp)
 100a8e0:	10803c17 	ldw	r2,240(r2)
 100a8e4:	10000726 	beq	r2,zero,100a904 <sls_avalon_usb20_irq+0xb1c>
 100a8e8:	e0bfd817 	ldw	r2,-160(fp)
 100a8ec:	10803c17 	ldw	r2,240(r2)
 100a8f0:	e0ffe917 	ldw	r3,-92(fp)
 100a8f4:	18c029cc 	andi	r3,r3,167
 100a8f8:	18f00034 	orhi	r3,r3,49152
 100a8fc:	1809883a 	mov	r4,r3
 100a900:	103ee83a 	callr	r2
 100a904:	e0bfe917 	ldw	r2,-92(fp)
 100a908:	1080100c 	andi	r2,r2,64
 100a90c:	10083026 	beq	r2,zero,100c9d0 <sls_avalon_usb20_irq+0x2be8>
 100a910:	e0bff717 	ldw	r2,-36(fp)
 100a914:	10800c04 	addi	r2,r2,48
 100a918:	10800037 	ldwio	r2,0(r2)
 100a91c:	e0bfe915 	stw	r2,-92(fp)
 100a920:	e0bfe917 	ldw	r2,-92(fp)
 100a924:	1080200c 	andi	r2,r2,128
 100a928:	1004d1fa 	srli	r2,r2,7
 100a92c:	e0bff315 	stw	r2,-52(fp)
 100a930:	e0bfe917 	ldw	r2,-92(fp)
 100a934:	1080180c 	andi	r2,r2,96
 100a938:	1004d17a 	srli	r2,r2,5
 100a93c:	e0bff415 	stw	r2,-48(fp)
 100a940:	e0bfe917 	ldw	r2,-92(fp)
 100a944:	108007cc 	andi	r2,r2,31
 100a948:	e0bff515 	stw	r2,-44(fp)
 100a94c:	e0bfe917 	ldw	r2,-92(fp)
 100a950:	10bfc00c 	andi	r2,r2,65280
 100a954:	1004d23a 	srli	r2,r2,8
 100a958:	e0bfdb15 	stw	r2,-148(fp)
 100a95c:	e0bfe917 	ldw	r2,-92(fp)
 100a960:	1004d43a 	srli	r2,r2,16
 100a964:	e0bfd90d 	sth	r2,-156(fp)
 100a968:	e0bff717 	ldw	r2,-36(fp)
 100a96c:	10800d04 	addi	r2,r2,52
 100a970:	10800037 	ldwio	r2,0(r2)
 100a974:	e0bfe915 	stw	r2,-92(fp)
 100a978:	e0bfe917 	ldw	r2,-92(fp)
 100a97c:	e0bfd98d 	sth	r2,-154(fp)
 100a980:	e0bfe917 	ldw	r2,-92(fp)
 100a984:	1004d43a 	srli	r2,r2,16
 100a988:	e0bfda0d 	sth	r2,-152(fp)
 100a98c:	e0bff517 	ldw	r2,-44(fp)
 100a990:	108007cc 	andi	r2,r2,31
 100a994:	1007883a 	mov	r3,r2
 100a998:	e0bfdc17 	ldw	r2,-144(fp)
 100a99c:	194007cc 	andi	r5,r3,31
 100a9a0:	11000003 	ldbu	r4,0(r2)
 100a9a4:	00fff804 	movi	r3,-32
 100a9a8:	20c6703a 	and	r3,r4,r3
 100a9ac:	1809883a 	mov	r4,r3
 100a9b0:	2807883a 	mov	r3,r5
 100a9b4:	20c6b03a 	or	r3,r4,r3
 100a9b8:	10c00005 	stb	r3,0(r2)
 100a9bc:	e0bff417 	ldw	r2,-48(fp)
 100a9c0:	108000cc 	andi	r2,r2,3
 100a9c4:	1007883a 	mov	r3,r2
 100a9c8:	e0bfdc17 	ldw	r2,-144(fp)
 100a9cc:	18c000cc 	andi	r3,r3,3
 100a9d0:	180a917a 	slli	r5,r3,5
 100a9d4:	11000003 	ldbu	r4,0(r2)
 100a9d8:	00ffe7c4 	movi	r3,-97
 100a9dc:	20c6703a 	and	r3,r4,r3
 100a9e0:	1809883a 	mov	r4,r3
 100a9e4:	2807883a 	mov	r3,r5
 100a9e8:	20c6b03a 	or	r3,r4,r3
 100a9ec:	10c00005 	stb	r3,0(r2)
 100a9f0:	e0bff317 	ldw	r2,-52(fp)
 100a9f4:	1080004c 	andi	r2,r2,1
 100a9f8:	1007883a 	mov	r3,r2
 100a9fc:	e0bfdc17 	ldw	r2,-144(fp)
 100aa00:	180a91fa 	slli	r5,r3,7
 100aa04:	10c00003 	ldbu	r3,0(r2)
 100aa08:	18c01fcc 	andi	r3,r3,127
 100aa0c:	1809883a 	mov	r4,r3
 100aa10:	2807883a 	mov	r3,r5
 100aa14:	20c6b03a 	or	r3,r4,r3
 100aa18:	10c00005 	stb	r3,0(r2)
 100aa1c:	e0bfdb17 	ldw	r2,-148(fp)
 100aa20:	1007883a 	mov	r3,r2
 100aa24:	e0bfdc17 	ldw	r2,-144(fp)
 100aa28:	10c00045 	stb	r3,1(r2)
 100aa2c:	e0bfdc17 	ldw	r2,-144(fp)
 100aa30:	e0ffd90b 	ldhu	r3,-156(fp)
 100aa34:	19403fcc 	andi	r5,r3,255
 100aa38:	10c00103 	ldbu	r3,4(r2)
 100aa3c:	1806703a 	and	r3,r3,zero
 100aa40:	1809883a 	mov	r4,r3
 100aa44:	2807883a 	mov	r3,r5
 100aa48:	20c6b03a 	or	r3,r4,r3
 100aa4c:	10c00105 	stb	r3,4(r2)
 100aa50:	e0ffd90b 	ldhu	r3,-156(fp)
 100aa54:	1806d23a 	srli	r3,r3,8
 100aa58:	197fffcc 	andi	r5,r3,65535
 100aa5c:	10c00143 	ldbu	r3,5(r2)
 100aa60:	1806703a 	and	r3,r3,zero
 100aa64:	1809883a 	mov	r4,r3
 100aa68:	2807883a 	mov	r3,r5
 100aa6c:	20c6b03a 	or	r3,r4,r3
 100aa70:	10c00145 	stb	r3,5(r2)
 100aa74:	e0bfdc17 	ldw	r2,-144(fp)
 100aa78:	e0ffd98b 	ldhu	r3,-154(fp)
 100aa7c:	19403fcc 	andi	r5,r3,255
 100aa80:	10c00083 	ldbu	r3,2(r2)
 100aa84:	1806703a 	and	r3,r3,zero
 100aa88:	1809883a 	mov	r4,r3
 100aa8c:	2807883a 	mov	r3,r5
 100aa90:	20c6b03a 	or	r3,r4,r3
 100aa94:	10c00085 	stb	r3,2(r2)
 100aa98:	e0ffd98b 	ldhu	r3,-154(fp)
 100aa9c:	1806d23a 	srli	r3,r3,8
 100aaa0:	197fffcc 	andi	r5,r3,65535
 100aaa4:	10c000c3 	ldbu	r3,3(r2)
 100aaa8:	1806703a 	and	r3,r3,zero
 100aaac:	1809883a 	mov	r4,r3
 100aab0:	2807883a 	mov	r3,r5
 100aab4:	20c6b03a 	or	r3,r4,r3
 100aab8:	10c000c5 	stb	r3,3(r2)
 100aabc:	e0bfdc17 	ldw	r2,-144(fp)
 100aac0:	e0ffda0b 	ldhu	r3,-152(fp)
 100aac4:	19403fcc 	andi	r5,r3,255
 100aac8:	10c00183 	ldbu	r3,6(r2)
 100aacc:	1806703a 	and	r3,r3,zero
 100aad0:	1809883a 	mov	r4,r3
 100aad4:	2807883a 	mov	r3,r5
 100aad8:	20c6b03a 	or	r3,r4,r3
 100aadc:	10c00185 	stb	r3,6(r2)
 100aae0:	e0ffda0b 	ldhu	r3,-152(fp)
 100aae4:	1806d23a 	srli	r3,r3,8
 100aae8:	197fffcc 	andi	r5,r3,65535
 100aaec:	10c001c3 	ldbu	r3,7(r2)
 100aaf0:	1806703a 	and	r3,r3,zero
 100aaf4:	1809883a 	mov	r4,r3
 100aaf8:	2807883a 	mov	r3,r5
 100aafc:	20c6b03a 	or	r3,r4,r3
 100ab00:	10c001c5 	stb	r3,7(r2)
 100ab04:	e0bfdd17 	ldw	r2,-140(fp)
 100ab08:	e0ffdc17 	ldw	r3,-144(fp)
 100ab0c:	10c00615 	stw	r3,24(r2)
 100ab10:	e0bfdd17 	ldw	r2,-140(fp)
 100ab14:	10000215 	stw	zero,8(r2)
 100ab18:	e0bfdd17 	ldw	r2,-140(fp)
 100ab1c:	10000515 	stw	zero,20(r2)
 100ab20:	e0bfdd17 	ldw	r2,-140(fp)
 100ab24:	10000415 	stw	zero,16(r2)
 100ab28:	e0bfdc17 	ldw	r2,-144(fp)
 100ab2c:	10c00183 	ldbu	r3,6(r2)
 100ab30:	18c03fcc 	andi	r3,r3,255
 100ab34:	108001c3 	ldbu	r2,7(r2)
 100ab38:	10803fcc 	andi	r2,r2,255
 100ab3c:	1004923a 	slli	r2,r2,8
 100ab40:	10c4b03a 	or	r2,r2,r3
 100ab44:	10bfffcc 	andi	r2,r2,65535
 100ab48:	1000041e 	bne	r2,zero,100ab5c <sls_avalon_usb20_irq+0xd74>
 100ab4c:	e0bfdd17 	ldw	r2,-140(fp)
 100ab50:	00c00084 	movi	r3,2
 100ab54:	10c00315 	stw	r3,12(r2)
 100ab58:	00001206 	br	100aba4 <sls_avalon_usb20_irq+0xdbc>
 100ab5c:	e0bfdc17 	ldw	r2,-144(fp)
 100ab60:	10800003 	ldbu	r2,0(r2)
 100ab64:	10803fcc 	andi	r2,r2,255
 100ab68:	1004d1fa 	srli	r2,r2,7
 100ab6c:	10803fcc 	andi	r2,r2,255
 100ab70:	1000021e 	bne	r2,zero,100ab7c <sls_avalon_usb20_irq+0xd94>
 100ab74:	e0bfdd17 	ldw	r2,-140(fp)
 100ab78:	10000315 	stw	zero,12(r2)
 100ab7c:	e0bfdc17 	ldw	r2,-144(fp)
 100ab80:	10800003 	ldbu	r2,0(r2)
 100ab84:	10803fcc 	andi	r2,r2,255
 100ab88:	1004d1fa 	srli	r2,r2,7
 100ab8c:	10803fcc 	andi	r2,r2,255
 100ab90:	10800058 	cmpnei	r2,r2,1
 100ab94:	1000031e 	bne	r2,zero,100aba4 <sls_avalon_usb20_irq+0xdbc>
 100ab98:	e0bfdd17 	ldw	r2,-140(fp)
 100ab9c:	00c00044 	movi	r3,1
 100aba0:	10c00315 	stw	r3,12(r2)
 100aba4:	e0bfdc17 	ldw	r2,-144(fp)
 100aba8:	10800003 	ldbu	r2,0(r2)
 100abac:	10803fcc 	andi	r2,r2,255
 100abb0:	1004d17a 	srli	r2,r2,5
 100abb4:	108000cc 	andi	r2,r2,3
 100abb8:	10803fcc 	andi	r2,r2,255
 100abbc:	1006bd1e 	bne	r2,zero,100c6b4 <sls_avalon_usb20_irq+0x28cc>
 100abc0:	e0bfdb17 	ldw	r2,-148(fp)
 100abc4:	10800328 	cmpgeui	r2,r2,12
 100abc8:	10080e1e 	bne	r2,zero,100cc04 <sls_avalon_usb20_irq+0x2e1c>
 100abcc:	e0bfdb17 	ldw	r2,-148(fp)
 100abd0:	100690ba 	slli	r3,r2,2
 100abd4:	00804074 	movhi	r2,257
 100abd8:	10aafa04 	addi	r2,r2,-21528
 100abdc:	1885883a 	add	r2,r3,r2
 100abe0:	10800017 	ldw	r2,0(r2)
 100abe4:	1000683a 	jmp	r2
 100abe8:	0100ac18 	cmpnei	r4,zero,688
 100abec:	0100c098 	cmpnei	r4,zero,770
 100abf0:	0100cc04 	movi	r4,816
 100abf4:	0100bdf8 	rdprs	r4,zero,759
 100abf8:	0100cc04 	movi	r4,816
 100abfc:	0100b794 	movui	r4,734
 100ac00:	0100ad98 	cmpnei	r4,zero,694
 100ac04:	0100cc04 	movi	r4,816
 100ac08:	0100bd30 	cmpltui	r4,zero,756
 100ac0c:	0100b80c 	andi	r4,zero,736
 100ac10:	0100c60c 	andi	r4,zero,792
 100ac14:	0100c270 	cmpltui	r4,zero,777
 100ac18:	e0bff517 	ldw	r2,-44(fp)
 100ac1c:	10c00060 	cmpeqi	r3,r2,1
 100ac20:	1800131e 	bne	r3,zero,100ac70 <sls_avalon_usb20_irq+0xe88>
 100ac24:	10c000a0 	cmpeqi	r3,r2,2
 100ac28:	18002c1e 	bne	r3,zero,100acdc <sls_avalon_usb20_irq+0xef4>
 100ac2c:	10000126 	beq	r2,zero,100ac34 <sls_avalon_usb20_irq+0xe4c>
 100ac30:	0007f506 	br	100cc08 <sls_avalon_usb20_irq+0x2e20>
 100ac34:	e0bff717 	ldw	r2,-36(fp)
 100ac38:	1007883a 	mov	r3,r2
 100ac3c:	008000b4 	movhi	r2,2
 100ac40:	1885883a 	add	r2,r3,r2
 100ac44:	1007883a 	mov	r3,r2
 100ac48:	e0bfd817 	ldw	r2,-160(fp)
 100ac4c:	10802917 	ldw	r2,164(r2)
 100ac50:	18800035 	stwio	r2,0(r3)
 100ac54:	e0bff717 	ldw	r2,-36(fp)
 100ac58:	10801304 	addi	r2,r2,76
 100ac5c:	1007883a 	mov	r3,r2
 100ac60:	e0bfda0b 	ldhu	r2,-152(fp)
 100ac64:	1004947a 	slli	r2,r2,17
 100ac68:	18800035 	stwio	r2,0(r3)
 100ac6c:	0007e606 	br	100cc08 <sls_avalon_usb20_irq+0x2e20>
 100ac70:	e0bfd817 	ldw	r2,-160(fp)
 100ac74:	10802817 	ldw	r2,160(r2)
 100ac78:	10001126 	beq	r2,zero,100acc0 <sls_avalon_usb20_irq+0xed8>
 100ac7c:	e0ffd98b 	ldhu	r3,-154(fp)
 100ac80:	e0bfd817 	ldw	r2,-160(fp)
 100ac84:	10802e17 	ldw	r2,184(r2)
 100ac88:	18800d2e 	bgeu	r3,r2,100acc0 <sls_avalon_usb20_irq+0xed8>
 100ac8c:	e0bff717 	ldw	r2,-36(fp)
 100ac90:	1007883a 	mov	r3,r2
 100ac94:	008000b4 	movhi	r2,2
 100ac98:	1885883a 	add	r2,r3,r2
 100ac9c:	0007883a 	mov	r3,zero
 100aca0:	10c00035 	stwio	r3,0(r2)
 100aca4:	e0bff717 	ldw	r2,-36(fp)
 100aca8:	10801304 	addi	r2,r2,76
 100acac:	1007883a 	mov	r3,r2
 100acb0:	e0bfda0b 	ldhu	r2,-152(fp)
 100acb4:	1004947a 	slli	r2,r2,17
 100acb8:	18800035 	stwio	r2,0(r3)
 100acbc:	0007d206 	br	100cc08 <sls_avalon_usb20_irq+0x2e20>
 100acc0:	e13fd817 	ldw	r4,-160(fp)
 100acc4:	01402004 	movi	r5,128
 100acc8:	1008f200 	call	1008f20 <USB_SetStallEP>
 100accc:	e0bfdd17 	ldw	r2,-140(fp)
 100acd0:	00c00084 	movi	r3,2
 100acd4:	10c00215 	stw	r3,8(r2)
 100acd8:	0007cb06 	br	100cc08 <sls_avalon_usb20_irq+0x2e20>
 100acdc:	e0bfd98b 	ldhu	r2,-154(fp)
 100ace0:	108023cc 	andi	r2,r2,143
 100ace4:	e0bfe615 	stw	r2,-104(fp)
 100ace8:	e0bfd817 	ldw	r2,-160(fp)
 100acec:	10802817 	ldw	r2,160(r2)
 100acf0:	1000031e 	bne	r2,zero,100ad00 <sls_avalon_usb20_irq+0xf18>
 100acf4:	e0bfe617 	ldw	r2,-104(fp)
 100acf8:	108003cc 	andi	r2,r2,15
 100acfc:	10001f1e 	bne	r2,zero,100ad7c <sls_avalon_usb20_irq+0xf94>
 100ad00:	e0bfd98b 	ldhu	r2,-154(fp)
 100ad04:	108003cc 	andi	r2,r2,15
 100ad08:	10800104 	addi	r2,r2,4
 100ad0c:	1004913a 	slli	r2,r2,4
 100ad10:	1007883a 	mov	r3,r2
 100ad14:	e0bff717 	ldw	r2,-36(fp)
 100ad18:	1885883a 	add	r2,r3,r2
 100ad1c:	10800037 	ldwio	r2,0(r2)
 100ad20:	1080202c 	andhi	r2,r2,128
 100ad24:	10000826 	beq	r2,zero,100ad48 <sls_avalon_usb20_irq+0xf60>
 100ad28:	e0bff717 	ldw	r2,-36(fp)
 100ad2c:	1007883a 	mov	r3,r2
 100ad30:	008000b4 	movhi	r2,2
 100ad34:	1885883a 	add	r2,r3,r2
 100ad38:	1007883a 	mov	r3,r2
 100ad3c:	00800044 	movi	r2,1
 100ad40:	18800025 	stbio	r2,0(r3)
 100ad44:	00000606 	br	100ad60 <sls_avalon_usb20_irq+0xf78>
 100ad48:	e0bff717 	ldw	r2,-36(fp)
 100ad4c:	1007883a 	mov	r3,r2
 100ad50:	008000b4 	movhi	r2,2
 100ad54:	1885883a 	add	r2,r3,r2
 100ad58:	0007883a 	mov	r3,zero
 100ad5c:	10c00025 	stbio	r3,0(r2)
 100ad60:	e0bff717 	ldw	r2,-36(fp)
 100ad64:	10801304 	addi	r2,r2,76
 100ad68:	1007883a 	mov	r3,r2
 100ad6c:	e0bfda0b 	ldhu	r2,-152(fp)
 100ad70:	1004947a 	slli	r2,r2,17
 100ad74:	18800035 	stwio	r2,0(r3)
 100ad78:	0007a306 	br	100cc08 <sls_avalon_usb20_irq+0x2e20>
 100ad7c:	e13fd817 	ldw	r4,-160(fp)
 100ad80:	01402004 	movi	r5,128
 100ad84:	1008f200 	call	1008f20 <USB_SetStallEP>
 100ad88:	e0bfdd17 	ldw	r2,-140(fp)
 100ad8c:	00c00084 	movi	r3,2
 100ad90:	10c00215 	stw	r3,8(r2)
 100ad94:	00079c06 	br	100cc08 <sls_avalon_usb20_irq+0x2e20>
 100ad98:	e0bff517 	ldw	r2,-44(fp)
 100ad9c:	10c00060 	cmpeqi	r3,r2,1
 100ada0:	18020b1e 	bne	r3,zero,100b5d0 <sls_avalon_usb20_irq+0x17e8>
 100ada4:	10c000a0 	cmpeqi	r3,r2,2
 100ada8:	1802441e 	bne	r3,zero,100b6bc <sls_avalon_usb20_irq+0x18d4>
 100adac:	1002711e 	bne	r2,zero,100b774 <sls_avalon_usb20_irq+0x198c>
 100adb0:	e0bfd90b 	ldhu	r2,-156(fp)
 100adb4:	1004d23a 	srli	r2,r2,8
 100adb8:	10bfffcc 	andi	r2,r2,65535
 100adbc:	10c00228 	cmpgeui	r3,r2,8
 100adc0:	1801fb1e 	bne	r3,zero,100b5b0 <sls_avalon_usb20_irq+0x17c8>
 100adc4:	100690ba 	slli	r3,r2,2
 100adc8:	00804074 	movhi	r2,257
 100adcc:	10ab7704 	addi	r2,r2,-21028
 100add0:	1885883a 	add	r2,r3,r2
 100add4:	10800017 	ldw	r2,0(r2)
 100add8:	1000683a 	jmp	r2
 100addc:	0100b5b0 	cmpltui	r4,zero,726
 100ade0:	0100adfc 	xorhi	r4,zero,695
 100ade4:	0100aed4 	movui	r4,699
 100ade8:	0100b1c0 	call	100b1c <__reset-0xeff4e4>
 100adec:	0100b5b0 	cmpltui	r4,zero,726
 100adf0:	0100b5b0 	cmpltui	r4,zero,726
 100adf4:	0100b34c 	andi	r4,zero,717
 100adf8:	0100b438 	rdprs	r4,zero,720
 100adfc:	e0bfda0b 	ldhu	r2,-152(fp)
 100ae00:	108004e8 	cmpgeui	r2,r2,19
 100ae04:	1000021e 	bne	r2,zero,100ae10 <sls_avalon_usb20_irq+0x1028>
 100ae08:	e0bfda0b 	ldhu	r2,-152(fp)
 100ae0c:	00000106 	br	100ae14 <sls_avalon_usb20_irq+0x102c>
 100ae10:	00800484 	movi	r2,18
 100ae14:	e0bfe015 	stw	r2,-128(fp)
 100ae18:	e0ffe017 	ldw	r3,-128(fp)
 100ae1c:	e0bfd817 	ldw	r2,-160(fp)
 100ae20:	10c03415 	stw	r3,208(r2)
 100ae24:	e0fff617 	ldw	r3,-40(fp)
 100ae28:	e0bfe017 	ldw	r2,-128(fp)
 100ae2c:	1880040e 	bge	r3,r2,100ae40 <sls_avalon_usb20_irq+0x1058>
 100ae30:	e0bff617 	ldw	r2,-40(fp)
 100ae34:	1007883a 	mov	r3,r2
 100ae38:	e0bfd817 	ldw	r2,-160(fp)
 100ae3c:	10c03415 	stw	r3,208(r2)
 100ae40:	e03fe415 	stw	zero,-112(fp)
 100ae44:	00001006 	br	100ae88 <sls_avalon_usb20_irq+0x10a0>
 100ae48:	e0bfe417 	ldw	r2,-112(fp)
 100ae4c:	e0fff717 	ldw	r3,-36(fp)
 100ae50:	10c7883a 	add	r3,r2,r3
 100ae54:	008000b4 	movhi	r2,2
 100ae58:	1885883a 	add	r2,r3,r2
 100ae5c:	1009883a 	mov	r4,r2
 100ae60:	e0bfd817 	ldw	r2,-160(fp)
 100ae64:	10c00317 	ldw	r3,12(r2)
 100ae68:	e0bfe417 	ldw	r2,-112(fp)
 100ae6c:	1885883a 	add	r2,r3,r2
 100ae70:	10800003 	ldbu	r2,0(r2)
 100ae74:	10803fcc 	andi	r2,r2,255
 100ae78:	20800025 	stbio	r2,0(r4)
 100ae7c:	e0bfe417 	ldw	r2,-112(fp)
 100ae80:	10800044 	addi	r2,r2,1
 100ae84:	e0bfe415 	stw	r2,-112(fp)
 100ae88:	e0bfd817 	ldw	r2,-160(fp)
 100ae8c:	10803417 	ldw	r2,208(r2)
 100ae90:	e0ffe417 	ldw	r3,-112(fp)
 100ae94:	18bfec36 	bltu	r3,r2,100ae48 <__alt_data_end+0xfffea648>
 100ae98:	e0bfd817 	ldw	r2,-160(fp)
 100ae9c:	10c00317 	ldw	r3,12(r2)
 100aea0:	e0bfdd17 	ldw	r2,-140(fp)
 100aea4:	10c00115 	stw	r3,4(r2)
 100aea8:	e0ffe017 	ldw	r3,-128(fp)
 100aeac:	e0bfdd17 	ldw	r2,-140(fp)
 100aeb0:	10c00415 	stw	r3,16(r2)
 100aeb4:	e0bff717 	ldw	r2,-36(fp)
 100aeb8:	10801304 	addi	r2,r2,76
 100aebc:	1007883a 	mov	r3,r2
 100aec0:	e0bfd817 	ldw	r2,-160(fp)
 100aec4:	10803417 	ldw	r2,208(r2)
 100aec8:	1004947a 	slli	r2,r2,17
 100aecc:	18800035 	stwio	r2,0(r3)
 100aed0:	0001be06 	br	100b5cc <sls_avalon_usb20_irq+0x17e4>
 100aed4:	e0bfd817 	ldw	r2,-160(fp)
 100aed8:	10800317 	ldw	r2,12(r2)
 100aedc:	e0bfde15 	stw	r2,-136(fp)
 100aee0:	e0bfde17 	ldw	r2,-136(fp)
 100aee4:	10800443 	ldbu	r2,17(r2)
 100aee8:	10c03fcc 	andi	r3,r2,255
 100aeec:	e0bfd90b 	ldhu	r2,-156(fp)
 100aef0:	10803fcc 	andi	r2,r2,255
 100aef4:	10800044 	addi	r2,r2,1
 100aef8:	1880070e 	bge	r3,r2,100af18 <sls_avalon_usb20_irq+0x1130>
 100aefc:	e13fd817 	ldw	r4,-160(fp)
 100af00:	01402004 	movi	r5,128
 100af04:	1008f200 	call	1008f20 <USB_SetStallEP>
 100af08:	e0bfdd17 	ldw	r2,-140(fp)
 100af0c:	00c00084 	movi	r3,2
 100af10:	10c00215 	stw	r3,8(r2)
 100af14:	00073c06 	br	100cc08 <sls_avalon_usb20_irq+0x2e20>
 100af18:	e0bfd817 	ldw	r2,-160(fp)
 100af1c:	10800c17 	ldw	r2,48(r2)
 100af20:	10800058 	cmpnei	r2,r2,1
 100af24:	1000041e 	bne	r2,zero,100af38 <sls_avalon_usb20_irq+0x1150>
 100af28:	e0bfd817 	ldw	r2,-160(fp)
 100af2c:	10800417 	ldw	r2,16(r2)
 100af30:	e0bfd415 	stw	r2,-176(fp)
 100af34:	00000e06 	br	100af70 <sls_avalon_usb20_irq+0x1188>
 100af38:	e0bfd817 	ldw	r2,-160(fp)
 100af3c:	10800c17 	ldw	r2,48(r2)
 100af40:	1000041e 	bne	r2,zero,100af54 <sls_avalon_usb20_irq+0x116c>
 100af44:	e0bfd817 	ldw	r2,-160(fp)
 100af48:	10800517 	ldw	r2,20(r2)
 100af4c:	e0bfd415 	stw	r2,-176(fp)
 100af50:	00000706 	br	100af70 <sls_avalon_usb20_irq+0x1188>
 100af54:	e0bfd817 	ldw	r2,-160(fp)
 100af58:	10800c17 	ldw	r2,48(r2)
 100af5c:	10800098 	cmpnei	r2,r2,2
 100af60:	1000031e 	bne	r2,zero,100af70 <sls_avalon_usb20_irq+0x1188>
 100af64:	e0bfd817 	ldw	r2,-160(fp)
 100af68:	10800617 	ldw	r2,24(r2)
 100af6c:	e0bfd415 	stw	r2,-176(fp)
 100af70:	e0bfd417 	ldw	r2,-176(fp)
 100af74:	10800003 	ldbu	r2,0(r2)
 100af78:	10803fcc 	andi	r2,r2,255
 100af7c:	e0bfec15 	stw	r2,-80(fp)
 100af80:	e0bfd417 	ldw	r2,-176(fp)
 100af84:	10c00083 	ldbu	r3,2(r2)
 100af88:	108000c3 	ldbu	r2,3(r2)
 100af8c:	1004923a 	slli	r2,r2,8
 100af90:	10c4b03a 	or	r2,r2,r3
 100af94:	10bfffcc 	andi	r2,r2,65535
 100af98:	e0bfe515 	stw	r2,-108(fp)
 100af9c:	e03fe615 	stw	zero,-104(fp)
 100afa0:	00000906 	br	100afc8 <sls_avalon_usb20_irq+0x11e0>
 100afa4:	e0bfec17 	ldw	r2,-80(fp)
 100afa8:	10000426 	beq	r2,zero,100afbc <sls_avalon_usb20_irq+0x11d4>
 100afac:	e0bfe517 	ldw	r2,-108(fp)
 100afb0:	e0ffd417 	ldw	r3,-176(fp)
 100afb4:	1885883a 	add	r2,r3,r2
 100afb8:	e0bfd415 	stw	r2,-176(fp)
 100afbc:	e0bfe617 	ldw	r2,-104(fp)
 100afc0:	10800044 	addi	r2,r2,1
 100afc4:	e0bfe615 	stw	r2,-104(fp)
 100afc8:	e0bfd90b 	ldhu	r2,-156(fp)
 100afcc:	10c03fcc 	andi	r3,r2,255
 100afd0:	e0bfe617 	ldw	r2,-104(fp)
 100afd4:	18bff31e 	bne	r3,r2,100afa4 <__alt_data_end+0xfffea7a4>
 100afd8:	e0bfd417 	ldw	r2,-176(fp)
 100afdc:	10800003 	ldbu	r2,0(r2)
 100afe0:	10803fcc 	andi	r2,r2,255
 100afe4:	e0bfec15 	stw	r2,-80(fp)
 100afe8:	e0bfec17 	ldw	r2,-80(fp)
 100afec:	1000071e 	bne	r2,zero,100b00c <sls_avalon_usb20_irq+0x1224>
 100aff0:	e13fd817 	ldw	r4,-160(fp)
 100aff4:	01402004 	movi	r5,128
 100aff8:	1008f200 	call	1008f20 <USB_SetStallEP>
 100affc:	e0bfdd17 	ldw	r2,-140(fp)
 100b000:	00c00084 	movi	r3,2
 100b004:	10c00215 	stw	r3,8(r2)
 100b008:	0006ff06 	br	100cc08 <sls_avalon_usb20_irq+0x2e20>
 100b00c:	e0bfd417 	ldw	r2,-176(fp)
 100b010:	e0bfdf15 	stw	r2,-132(fp)
 100b014:	e0bfda0b 	ldhu	r2,-152(fp)
 100b018:	10800258 	cmpnei	r2,r2,9
 100b01c:	1000281e 	bne	r2,zero,100b0c0 <sls_avalon_usb20_irq+0x12d8>
 100b020:	e0bfda0b 	ldhu	r2,-152(fp)
 100b024:	e0bfe715 	stw	r2,-100(fp)
 100b028:	e0ffe717 	ldw	r3,-100(fp)
 100b02c:	e0bfdd17 	ldw	r2,-140(fp)
 100b030:	10c00415 	stw	r3,16(r2)
 100b034:	e0ffe717 	ldw	r3,-100(fp)
 100b038:	e0bfd817 	ldw	r2,-160(fp)
 100b03c:	10c03415 	stw	r3,208(r2)
 100b040:	e03ff915 	stw	zero,-28(fp)
 100b044:	00001306 	br	100b094 <sls_avalon_usb20_irq+0x12ac>
 100b048:	e0bff917 	ldw	r2,-28(fp)
 100b04c:	1007883a 	mov	r3,r2
 100b050:	e0bff717 	ldw	r2,-36(fp)
 100b054:	1887883a 	add	r3,r3,r2
 100b058:	008000b4 	movhi	r2,2
 100b05c:	1885883a 	add	r2,r3,r2
 100b060:	1007883a 	mov	r3,r2
 100b064:	e0bff917 	ldw	r2,-28(fp)
 100b068:	1009883a 	mov	r4,r2
 100b06c:	e0bfdf17 	ldw	r2,-132(fp)
 100b070:	1105883a 	add	r2,r2,r4
 100b074:	10800003 	ldbu	r2,0(r2)
 100b078:	10803fcc 	andi	r2,r2,255
 100b07c:	1080201c 	xori	r2,r2,128
 100b080:	10bfe004 	addi	r2,r2,-128
 100b084:	18800025 	stbio	r2,0(r3)
 100b088:	e0bff917 	ldw	r2,-28(fp)
 100b08c:	10800044 	addi	r2,r2,1
 100b090:	e0bff915 	stw	r2,-28(fp)
 100b094:	e0bff917 	ldw	r2,-28(fp)
 100b098:	1007883a 	mov	r3,r2
 100b09c:	e0bfe717 	ldw	r2,-100(fp)
 100b0a0:	18bfe936 	bltu	r3,r2,100b048 <__alt_data_end+0xfffea848>
 100b0a4:	e0bff717 	ldw	r2,-36(fp)
 100b0a8:	10801304 	addi	r2,r2,76
 100b0ac:	1007883a 	mov	r3,r2
 100b0b0:	e0bfe717 	ldw	r2,-100(fp)
 100b0b4:	1004947a 	slli	r2,r2,17
 100b0b8:	18800035 	stwio	r2,0(r3)
 100b0bc:	00014306 	br	100b5cc <sls_avalon_usb20_irq+0x17e4>
 100b0c0:	e0bfdd17 	ldw	r2,-140(fp)
 100b0c4:	e0ffd417 	ldw	r3,-176(fp)
 100b0c8:	10c00115 	stw	r3,4(r2)
 100b0cc:	e0bfdf17 	ldw	r2,-132(fp)
 100b0d0:	10c00083 	ldbu	r3,2(r2)
 100b0d4:	108000c3 	ldbu	r2,3(r2)
 100b0d8:	1004923a 	slli	r2,r2,8
 100b0dc:	10c4b03a 	or	r2,r2,r3
 100b0e0:	10bfffcc 	andi	r2,r2,65535
 100b0e4:	e0bfe715 	stw	r2,-100(fp)
 100b0e8:	e0ffda0b 	ldhu	r3,-152(fp)
 100b0ec:	e0bfe717 	ldw	r2,-100(fp)
 100b0f0:	1880022e 	bgeu	r3,r2,100b0fc <sls_avalon_usb20_irq+0x1314>
 100b0f4:	e0bfda0b 	ldhu	r2,-152(fp)
 100b0f8:	e0bfe715 	stw	r2,-100(fp)
 100b0fc:	e0ffe717 	ldw	r3,-100(fp)
 100b100:	e0bfdd17 	ldw	r2,-140(fp)
 100b104:	10c00415 	stw	r3,16(r2)
 100b108:	e0ffe717 	ldw	r3,-100(fp)
 100b10c:	e0bfd817 	ldw	r2,-160(fp)
 100b110:	10c03415 	stw	r3,208(r2)
 100b114:	e0bff617 	ldw	r2,-40(fp)
 100b118:	1007883a 	mov	r3,r2
 100b11c:	e0bfe717 	ldw	r2,-100(fp)
 100b120:	1880042e 	bgeu	r3,r2,100b134 <sls_avalon_usb20_irq+0x134c>
 100b124:	e0bff617 	ldw	r2,-40(fp)
 100b128:	1007883a 	mov	r3,r2
 100b12c:	e0bfd817 	ldw	r2,-160(fp)
 100b130:	10c03415 	stw	r3,208(r2)
 100b134:	e0bfd817 	ldw	r2,-160(fp)
 100b138:	10803417 	ldw	r2,208(r2)
 100b13c:	e0bfe715 	stw	r2,-100(fp)
 100b140:	e03ffa15 	stw	zero,-24(fp)
 100b144:	00001306 	br	100b194 <sls_avalon_usb20_irq+0x13ac>
 100b148:	e0bffa17 	ldw	r2,-24(fp)
 100b14c:	1007883a 	mov	r3,r2
 100b150:	e0bff717 	ldw	r2,-36(fp)
 100b154:	1887883a 	add	r3,r3,r2
 100b158:	008000b4 	movhi	r2,2
 100b15c:	1885883a 	add	r2,r3,r2
 100b160:	1007883a 	mov	r3,r2
 100b164:	e0bffa17 	ldw	r2,-24(fp)
 100b168:	1009883a 	mov	r4,r2
 100b16c:	e0bfdf17 	ldw	r2,-132(fp)
 100b170:	1105883a 	add	r2,r2,r4
 100b174:	10800003 	ldbu	r2,0(r2)
 100b178:	10803fcc 	andi	r2,r2,255
 100b17c:	1080201c 	xori	r2,r2,128
 100b180:	10bfe004 	addi	r2,r2,-128
 100b184:	18800025 	stbio	r2,0(r3)
 100b188:	e0bffa17 	ldw	r2,-24(fp)
 100b18c:	10800044 	addi	r2,r2,1
 100b190:	e0bffa15 	stw	r2,-24(fp)
 100b194:	e0bffa17 	ldw	r2,-24(fp)
 100b198:	1007883a 	mov	r3,r2
 100b19c:	e0bfe717 	ldw	r2,-100(fp)
 100b1a0:	18bfe936 	bltu	r3,r2,100b148 <__alt_data_end+0xfffea948>
 100b1a4:	e0bff717 	ldw	r2,-36(fp)
 100b1a8:	10801304 	addi	r2,r2,76
 100b1ac:	1007883a 	mov	r3,r2
 100b1b0:	e0bfe717 	ldw	r2,-100(fp)
 100b1b4:	1004947a 	slli	r2,r2,17
 100b1b8:	18800035 	stwio	r2,0(r3)
 100b1bc:	00010306 	br	100b5cc <sls_avalon_usb20_irq+0x17e4>
 100b1c0:	e0bfd90b 	ldhu	r2,-156(fp)
 100b1c4:	10c03fcc 	andi	r3,r2,255
 100b1c8:	e0bfd817 	ldw	r2,-160(fp)
 100b1cc:	10801817 	ldw	r2,96(r2)
 100b1d0:	1880032e 	bgeu	r3,r2,100b1e0 <sls_avalon_usb20_irq+0x13f8>
 100b1d4:	e0bfd817 	ldw	r2,-160(fp)
 100b1d8:	10800717 	ldw	r2,28(r2)
 100b1dc:	1000071e 	bne	r2,zero,100b1fc <sls_avalon_usb20_irq+0x1414>
 100b1e0:	e13fd817 	ldw	r4,-160(fp)
 100b1e4:	01402004 	movi	r5,128
 100b1e8:	1008f200 	call	1008f20 <USB_SetStallEP>
 100b1ec:	e0bfdd17 	ldw	r2,-140(fp)
 100b1f0:	00c00084 	movi	r3,2
 100b1f4:	10c00215 	stw	r3,8(r2)
 100b1f8:	00068306 	br	100cc08 <sls_avalon_usb20_irq+0x2e20>
 100b1fc:	e0bfd817 	ldw	r2,-160(fp)
 100b200:	10c00817 	ldw	r3,32(r2)
 100b204:	e0bfd817 	ldw	r2,-160(fp)
 100b208:	11000717 	ldw	r4,28(r2)
 100b20c:	e0bfd90b 	ldhu	r2,-156(fp)
 100b210:	10803fcc 	andi	r2,r2,255
 100b214:	1085883a 	add	r2,r2,r2
 100b218:	1085883a 	add	r2,r2,r2
 100b21c:	2085883a 	add	r2,r4,r2
 100b220:	10800017 	ldw	r2,0(r2)
 100b224:	1885883a 	add	r2,r3,r2
 100b228:	e0bfd415 	stw	r2,-176(fp)
 100b22c:	e0bfd417 	ldw	r2,-176(fp)
 100b230:	10800003 	ldbu	r2,0(r2)
 100b234:	10803fcc 	andi	r2,r2,255
 100b238:	e0bfec15 	stw	r2,-80(fp)
 100b23c:	e0bfec17 	ldw	r2,-80(fp)
 100b240:	e0bfe715 	stw	r2,-100(fp)
 100b244:	e0ffda0b 	ldhu	r3,-152(fp)
 100b248:	e0bfe717 	ldw	r2,-100(fp)
 100b24c:	1880022e 	bgeu	r3,r2,100b258 <sls_avalon_usb20_irq+0x1470>
 100b250:	e0bfda0b 	ldhu	r2,-152(fp)
 100b254:	e0bfe715 	stw	r2,-100(fp)
 100b258:	e0ffe717 	ldw	r3,-100(fp)
 100b25c:	e0bfdd17 	ldw	r2,-140(fp)
 100b260:	10c00415 	stw	r3,16(r2)
 100b264:	e0ffe717 	ldw	r3,-100(fp)
 100b268:	e0bfd817 	ldw	r2,-160(fp)
 100b26c:	10c03415 	stw	r3,208(r2)
 100b270:	e0bff617 	ldw	r2,-40(fp)
 100b274:	1007883a 	mov	r3,r2
 100b278:	e0bfe717 	ldw	r2,-100(fp)
 100b27c:	1880042e 	bgeu	r3,r2,100b290 <sls_avalon_usb20_irq+0x14a8>
 100b280:	e0bff617 	ldw	r2,-40(fp)
 100b284:	1007883a 	mov	r3,r2
 100b288:	e0bfd817 	ldw	r2,-160(fp)
 100b28c:	10c03415 	stw	r3,208(r2)
 100b290:	e0bfd817 	ldw	r2,-160(fp)
 100b294:	10803417 	ldw	r2,208(r2)
 100b298:	e0bfe715 	stw	r2,-100(fp)
 100b29c:	e0bfd817 	ldw	r2,-160(fp)
 100b2a0:	10c00817 	ldw	r3,32(r2)
 100b2a4:	e0bfd817 	ldw	r2,-160(fp)
 100b2a8:	11000717 	ldw	r4,28(r2)
 100b2ac:	e0bfd90b 	ldhu	r2,-156(fp)
 100b2b0:	10803fcc 	andi	r2,r2,255
 100b2b4:	1085883a 	add	r2,r2,r2
 100b2b8:	1085883a 	add	r2,r2,r2
 100b2bc:	2085883a 	add	r2,r4,r2
 100b2c0:	10800017 	ldw	r2,0(r2)
 100b2c4:	1885883a 	add	r2,r3,r2
 100b2c8:	e0bfd415 	stw	r2,-176(fp)
 100b2cc:	e0bfdd17 	ldw	r2,-140(fp)
 100b2d0:	e0ffd417 	ldw	r3,-176(fp)
 100b2d4:	10c00115 	stw	r3,4(r2)
 100b2d8:	e03fe415 	stw	zero,-112(fp)
 100b2dc:	00001106 	br	100b324 <sls_avalon_usb20_irq+0x153c>
 100b2e0:	e0bfe417 	ldw	r2,-112(fp)
 100b2e4:	e0fff717 	ldw	r3,-36(fp)
 100b2e8:	10c7883a 	add	r3,r2,r3
 100b2ec:	008000b4 	movhi	r2,2
 100b2f0:	1885883a 	add	r2,r3,r2
 100b2f4:	1009883a 	mov	r4,r2
 100b2f8:	e0bfe417 	ldw	r2,-112(fp)
 100b2fc:	e0ffd417 	ldw	r3,-176(fp)
 100b300:	1885883a 	add	r2,r3,r2
 100b304:	10800003 	ldbu	r2,0(r2)
 100b308:	10803fcc 	andi	r2,r2,255
 100b30c:	1080201c 	xori	r2,r2,128
 100b310:	10bfe004 	addi	r2,r2,-128
 100b314:	20800025 	stbio	r2,0(r4)
 100b318:	e0bfe417 	ldw	r2,-112(fp)
 100b31c:	10800044 	addi	r2,r2,1
 100b320:	e0bfe415 	stw	r2,-112(fp)
 100b324:	e0ffe417 	ldw	r3,-112(fp)
 100b328:	e0bfe717 	ldw	r2,-100(fp)
 100b32c:	18bfec36 	bltu	r3,r2,100b2e0 <__alt_data_end+0xfffeaae0>
 100b330:	e0bff717 	ldw	r2,-36(fp)
 100b334:	10801304 	addi	r2,r2,76
 100b338:	1007883a 	mov	r3,r2
 100b33c:	e0bfe717 	ldw	r2,-100(fp)
 100b340:	1004947a 	slli	r2,r2,17
 100b344:	18800035 	stwio	r2,0(r3)
 100b348:	0000a006 	br	100b5cc <sls_avalon_usb20_irq+0x17e4>
 100b34c:	e0bfd817 	ldw	r2,-160(fp)
 100b350:	10800917 	ldw	r2,36(r2)
 100b354:	e0bfd415 	stw	r2,-176(fp)
 100b358:	e0bfda0b 	ldhu	r2,-152(fp)
 100b35c:	10800118 	cmpnei	r2,r2,4
 100b360:	10001b1e 	bne	r2,zero,100b3d0 <sls_avalon_usb20_irq+0x15e8>
 100b364:	e03fe415 	stw	zero,-112(fp)
 100b368:	00000f06 	br	100b3a8 <sls_avalon_usb20_irq+0x15c0>
 100b36c:	e0bfe417 	ldw	r2,-112(fp)
 100b370:	e0fff717 	ldw	r3,-36(fp)
 100b374:	10c7883a 	add	r3,r2,r3
 100b378:	008000b4 	movhi	r2,2
 100b37c:	1885883a 	add	r2,r3,r2
 100b380:	1009883a 	mov	r4,r2
 100b384:	e0bfe417 	ldw	r2,-112(fp)
 100b388:	e0ffd417 	ldw	r3,-176(fp)
 100b38c:	1885883a 	add	r2,r3,r2
 100b390:	10800003 	ldbu	r2,0(r2)
 100b394:	10803fcc 	andi	r2,r2,255
 100b398:	20800025 	stbio	r2,0(r4)
 100b39c:	e0bfe417 	ldw	r2,-112(fp)
 100b3a0:	10800044 	addi	r2,r2,1
 100b3a4:	e0bfe415 	stw	r2,-112(fp)
 100b3a8:	e0bfda0b 	ldhu	r2,-152(fp)
 100b3ac:	e0ffe417 	ldw	r3,-112(fp)
 100b3b0:	18bfee36 	bltu	r3,r2,100b36c <__alt_data_end+0xfffeab6c>
 100b3b4:	e0bff717 	ldw	r2,-36(fp)
 100b3b8:	10801304 	addi	r2,r2,76
 100b3bc:	1007883a 	mov	r3,r2
 100b3c0:	e0bfda0b 	ldhu	r2,-152(fp)
 100b3c4:	1004947a 	slli	r2,r2,17
 100b3c8:	18800035 	stwio	r2,0(r3)
 100b3cc:	00007f06 	br	100b5cc <sls_avalon_usb20_irq+0x17e4>
 100b3d0:	e03fe415 	stw	zero,-112(fp)
 100b3d4:	00000f06 	br	100b414 <sls_avalon_usb20_irq+0x162c>
 100b3d8:	e0bfe417 	ldw	r2,-112(fp)
 100b3dc:	e0fff717 	ldw	r3,-36(fp)
 100b3e0:	10c7883a 	add	r3,r2,r3
 100b3e4:	008000b4 	movhi	r2,2
 100b3e8:	1885883a 	add	r2,r3,r2
 100b3ec:	1009883a 	mov	r4,r2
 100b3f0:	e0bfe417 	ldw	r2,-112(fp)
 100b3f4:	e0ffd417 	ldw	r3,-176(fp)
 100b3f8:	1885883a 	add	r2,r3,r2
 100b3fc:	10800003 	ldbu	r2,0(r2)
 100b400:	10803fcc 	andi	r2,r2,255
 100b404:	20800025 	stbio	r2,0(r4)
 100b408:	e0bfe417 	ldw	r2,-112(fp)
 100b40c:	10800044 	addi	r2,r2,1
 100b410:	e0bfe415 	stw	r2,-112(fp)
 100b414:	e0bfe417 	ldw	r2,-112(fp)
 100b418:	108002b0 	cmpltui	r2,r2,10
 100b41c:	103fee1e 	bne	r2,zero,100b3d8 <__alt_data_end+0xfffeabd8>
 100b420:	e0bff717 	ldw	r2,-36(fp)
 100b424:	10801304 	addi	r2,r2,76
 100b428:	1007883a 	mov	r3,r2
 100b42c:	00800534 	movhi	r2,20
 100b430:	18800035 	stwio	r2,0(r3)
 100b434:	00006506 	br	100b5cc <sls_avalon_usb20_irq+0x17e4>
 100b438:	e0bfd817 	ldw	r2,-160(fp)
 100b43c:	10800c17 	ldw	r2,48(r2)
 100b440:	10000426 	beq	r2,zero,100b454 <sls_avalon_usb20_irq+0x166c>
 100b444:	e0bfd817 	ldw	r2,-160(fp)
 100b448:	10800b17 	ldw	r2,44(r2)
 100b44c:	e0bfd415 	stw	r2,-176(fp)
 100b450:	00000306 	br	100b460 <sls_avalon_usb20_irq+0x1678>
 100b454:	e0bfd817 	ldw	r2,-160(fp)
 100b458:	10800a17 	ldw	r2,40(r2)
 100b45c:	e0bfd415 	stw	r2,-176(fp)
 100b460:	e0bfda0b 	ldhu	r2,-152(fp)
 100b464:	10800258 	cmpnei	r2,r2,9
 100b468:	10001b1e 	bne	r2,zero,100b4d8 <sls_avalon_usb20_irq+0x16f0>
 100b46c:	e03fe415 	stw	zero,-112(fp)
 100b470:	00000f06 	br	100b4b0 <sls_avalon_usb20_irq+0x16c8>
 100b474:	e0bfe417 	ldw	r2,-112(fp)
 100b478:	e0fff717 	ldw	r3,-36(fp)
 100b47c:	10c7883a 	add	r3,r2,r3
 100b480:	008000b4 	movhi	r2,2
 100b484:	1885883a 	add	r2,r3,r2
 100b488:	1009883a 	mov	r4,r2
 100b48c:	e0bfe417 	ldw	r2,-112(fp)
 100b490:	e0ffd417 	ldw	r3,-176(fp)
 100b494:	1885883a 	add	r2,r3,r2
 100b498:	10800003 	ldbu	r2,0(r2)
 100b49c:	10803fcc 	andi	r2,r2,255
 100b4a0:	20800025 	stbio	r2,0(r4)
 100b4a4:	e0bfe417 	ldw	r2,-112(fp)
 100b4a8:	10800044 	addi	r2,r2,1
 100b4ac:	e0bfe415 	stw	r2,-112(fp)
 100b4b0:	e0bfda0b 	ldhu	r2,-152(fp)
 100b4b4:	e0ffe417 	ldw	r3,-112(fp)
 100b4b8:	18bfee36 	bltu	r3,r2,100b474 <__alt_data_end+0xfffeac74>
 100b4bc:	e0bff717 	ldw	r2,-36(fp)
 100b4c0:	10801304 	addi	r2,r2,76
 100b4c4:	1007883a 	mov	r3,r2
 100b4c8:	e0bfda0b 	ldhu	r2,-152(fp)
 100b4cc:	1004947a 	slli	r2,r2,17
 100b4d0:	18800035 	stwio	r2,0(r3)
 100b4d4:	00003d06 	br	100b5cc <sls_avalon_usb20_irq+0x17e4>
 100b4d8:	e0bfd417 	ldw	r2,-176(fp)
 100b4dc:	10c00083 	ldbu	r3,2(r2)
 100b4e0:	108000c3 	ldbu	r2,3(r2)
 100b4e4:	1004923a 	slli	r2,r2,8
 100b4e8:	10c4b03a 	or	r2,r2,r3
 100b4ec:	10bfffcc 	andi	r2,r2,65535
 100b4f0:	e0bfe715 	stw	r2,-100(fp)
 100b4f4:	e0ffe717 	ldw	r3,-100(fp)
 100b4f8:	e0bfdd17 	ldw	r2,-140(fp)
 100b4fc:	10c00415 	stw	r3,16(r2)
 100b500:	e0ffe717 	ldw	r3,-100(fp)
 100b504:	e0bfd817 	ldw	r2,-160(fp)
 100b508:	10c03415 	stw	r3,208(r2)
 100b50c:	e0bff617 	ldw	r2,-40(fp)
 100b510:	1007883a 	mov	r3,r2
 100b514:	e0bfe717 	ldw	r2,-100(fp)
 100b518:	1880042e 	bgeu	r3,r2,100b52c <sls_avalon_usb20_irq+0x1744>
 100b51c:	e0bff617 	ldw	r2,-40(fp)
 100b520:	1007883a 	mov	r3,r2
 100b524:	e0bfd817 	ldw	r2,-160(fp)
 100b528:	10c03415 	stw	r3,208(r2)
 100b52c:	e0bfd817 	ldw	r2,-160(fp)
 100b530:	10803417 	ldw	r2,208(r2)
 100b534:	e0bfe715 	stw	r2,-100(fp)
 100b538:	e0bfdd17 	ldw	r2,-140(fp)
 100b53c:	e0ffd417 	ldw	r3,-176(fp)
 100b540:	10c00115 	stw	r3,4(r2)
 100b544:	e03fe415 	stw	zero,-112(fp)
 100b548:	00000f06 	br	100b588 <sls_avalon_usb20_irq+0x17a0>
 100b54c:	e0bfe417 	ldw	r2,-112(fp)
 100b550:	e0fff717 	ldw	r3,-36(fp)
 100b554:	10c7883a 	add	r3,r2,r3
 100b558:	008000b4 	movhi	r2,2
 100b55c:	1885883a 	add	r2,r3,r2
 100b560:	1009883a 	mov	r4,r2
 100b564:	e0bfe417 	ldw	r2,-112(fp)
 100b568:	e0ffd417 	ldw	r3,-176(fp)
 100b56c:	1885883a 	add	r2,r3,r2
 100b570:	10800003 	ldbu	r2,0(r2)
 100b574:	10803fcc 	andi	r2,r2,255
 100b578:	20800025 	stbio	r2,0(r4)
 100b57c:	e0bfe417 	ldw	r2,-112(fp)
 100b580:	10800044 	addi	r2,r2,1
 100b584:	e0bfe415 	stw	r2,-112(fp)
 100b588:	e0ffe417 	ldw	r3,-112(fp)
 100b58c:	e0bfe717 	ldw	r2,-100(fp)
 100b590:	18bfee36 	bltu	r3,r2,100b54c <__alt_data_end+0xfffead4c>
 100b594:	e0bff717 	ldw	r2,-36(fp)
 100b598:	10801304 	addi	r2,r2,76
 100b59c:	1007883a 	mov	r3,r2
 100b5a0:	e0bfe717 	ldw	r2,-100(fp)
 100b5a4:	1004947a 	slli	r2,r2,17
 100b5a8:	18800035 	stwio	r2,0(r3)
 100b5ac:	00000706 	br	100b5cc <sls_avalon_usb20_irq+0x17e4>
 100b5b0:	e13fd817 	ldw	r4,-160(fp)
 100b5b4:	01402004 	movi	r5,128
 100b5b8:	1008f200 	call	1008f20 <USB_SetStallEP>
 100b5bc:	e0bfdd17 	ldw	r2,-140(fp)
 100b5c0:	00c00084 	movi	r3,2
 100b5c4:	10c00215 	stw	r3,8(r2)
 100b5c8:	00058f06 	br	100cc08 <sls_avalon_usb20_irq+0x2e20>
 100b5cc:	00007006 	br	100b790 <sls_avalon_usb20_irq+0x19a8>
 100b5d0:	e0bfd90b 	ldhu	r2,-156(fp)
 100b5d4:	1004d23a 	srli	r2,r2,8
 100b5d8:	10bfffcc 	andi	r2,r2,65535
 100b5dc:	108008a0 	cmpeqi	r2,r2,34
 100b5e0:	10002f26 	beq	r2,zero,100b6a0 <sls_avalon_usb20_irq+0x18b8>
 100b5e4:	e0bfd817 	ldw	r2,-160(fp)
 100b5e8:	10803e17 	ldw	r2,248(r2)
 100b5ec:	10000726 	beq	r2,zero,100b60c <sls_avalon_usb20_irq+0x1824>
 100b5f0:	e0bfd817 	ldw	r2,-160(fp)
 100b5f4:	10803e17 	ldw	r2,248(r2)
 100b5f8:	e0fff717 	ldw	r3,-36(fp)
 100b5fc:	e13fdd17 	ldw	r4,-140(fp)
 100b600:	180b883a 	mov	r5,r3
 100b604:	01800044 	movi	r6,1
 100b608:	103ee83a 	callr	r2
 100b60c:	e0bfdd17 	ldw	r2,-140(fp)
 100b610:	10c00417 	ldw	r3,16(r2)
 100b614:	e0bfd817 	ldw	r2,-160(fp)
 100b618:	10c03415 	stw	r3,208(r2)
 100b61c:	e03fe415 	stw	zero,-112(fp)
 100b620:	00001206 	br	100b66c <sls_avalon_usb20_irq+0x1884>
 100b624:	e0bfe417 	ldw	r2,-112(fp)
 100b628:	e0fff717 	ldw	r3,-36(fp)
 100b62c:	10c7883a 	add	r3,r2,r3
 100b630:	008000b4 	movhi	r2,2
 100b634:	1885883a 	add	r2,r3,r2
 100b638:	1009883a 	mov	r4,r2
 100b63c:	e0bfdd17 	ldw	r2,-140(fp)
 100b640:	10c00117 	ldw	r3,4(r2)
 100b644:	e0bfe417 	ldw	r2,-112(fp)
 100b648:	1885883a 	add	r2,r3,r2
 100b64c:	10800003 	ldbu	r2,0(r2)
 100b650:	10803fcc 	andi	r2,r2,255
 100b654:	1080201c 	xori	r2,r2,128
 100b658:	10bfe004 	addi	r2,r2,-128
 100b65c:	20800025 	stbio	r2,0(r4)
 100b660:	e0bfe417 	ldw	r2,-112(fp)
 100b664:	10800044 	addi	r2,r2,1
 100b668:	e0bfe415 	stw	r2,-112(fp)
 100b66c:	e0bfd817 	ldw	r2,-160(fp)
 100b670:	10803417 	ldw	r2,208(r2)
 100b674:	e0ffe417 	ldw	r3,-112(fp)
 100b678:	18bfea36 	bltu	r3,r2,100b624 <__alt_data_end+0xfffeae24>
 100b67c:	e0bff717 	ldw	r2,-36(fp)
 100b680:	10801304 	addi	r2,r2,76
 100b684:	1007883a 	mov	r3,r2
 100b688:	e0bfd817 	ldw	r2,-160(fp)
 100b68c:	10803417 	ldw	r2,208(r2)
 100b690:	1004947a 	slli	r2,r2,17
 100b694:	18800035 	stwio	r2,0(r3)
 100b698:	0001883a 	nop
 100b69c:	00003c06 	br	100b790 <sls_avalon_usb20_irq+0x19a8>
 100b6a0:	e13fd817 	ldw	r4,-160(fp)
 100b6a4:	01402004 	movi	r5,128
 100b6a8:	1008f200 	call	1008f20 <USB_SetStallEP>
 100b6ac:	e0bfdd17 	ldw	r2,-140(fp)
 100b6b0:	00c00084 	movi	r3,2
 100b6b4:	10c00215 	stw	r3,8(r2)
 100b6b8:	00055306 	br	100cc08 <sls_avalon_usb20_irq+0x2e20>
 100b6bc:	e0bfd817 	ldw	r2,-160(fp)
 100b6c0:	10803e17 	ldw	r2,248(r2)
 100b6c4:	10000726 	beq	r2,zero,100b6e4 <sls_avalon_usb20_irq+0x18fc>
 100b6c8:	e0bfd817 	ldw	r2,-160(fp)
 100b6cc:	10803e17 	ldw	r2,248(r2)
 100b6d0:	e0fff717 	ldw	r3,-36(fp)
 100b6d4:	e13fdd17 	ldw	r4,-140(fp)
 100b6d8:	180b883a 	mov	r5,r3
 100b6dc:	01800084 	movi	r6,2
 100b6e0:	103ee83a 	callr	r2
 100b6e4:	e0bfdd17 	ldw	r2,-140(fp)
 100b6e8:	10c00417 	ldw	r3,16(r2)
 100b6ec:	e0bfd817 	ldw	r2,-160(fp)
 100b6f0:	10c03415 	stw	r3,208(r2)
 100b6f4:	e03fe415 	stw	zero,-112(fp)
 100b6f8:	00001206 	br	100b744 <sls_avalon_usb20_irq+0x195c>
 100b6fc:	e0bfe417 	ldw	r2,-112(fp)
 100b700:	e0fff717 	ldw	r3,-36(fp)
 100b704:	10c7883a 	add	r3,r2,r3
 100b708:	008000b4 	movhi	r2,2
 100b70c:	1885883a 	add	r2,r3,r2
 100b710:	1009883a 	mov	r4,r2
 100b714:	e0bfdd17 	ldw	r2,-140(fp)
 100b718:	10c00117 	ldw	r3,4(r2)
 100b71c:	e0bfe417 	ldw	r2,-112(fp)
 100b720:	1885883a 	add	r2,r3,r2
 100b724:	10800003 	ldbu	r2,0(r2)
 100b728:	10803fcc 	andi	r2,r2,255
 100b72c:	1080201c 	xori	r2,r2,128
 100b730:	10bfe004 	addi	r2,r2,-128
 100b734:	20800025 	stbio	r2,0(r4)
 100b738:	e0bfe417 	ldw	r2,-112(fp)
 100b73c:	10800044 	addi	r2,r2,1
 100b740:	e0bfe415 	stw	r2,-112(fp)
 100b744:	e0bfd817 	ldw	r2,-160(fp)
 100b748:	10803417 	ldw	r2,208(r2)
 100b74c:	e0ffe417 	ldw	r3,-112(fp)
 100b750:	18bfea36 	bltu	r3,r2,100b6fc <__alt_data_end+0xfffeaefc>
 100b754:	e0bff717 	ldw	r2,-36(fp)
 100b758:	10801304 	addi	r2,r2,76
 100b75c:	1007883a 	mov	r3,r2
 100b760:	e0bfd817 	ldw	r2,-160(fp)
 100b764:	10803417 	ldw	r2,208(r2)
 100b768:	1004947a 	slli	r2,r2,17
 100b76c:	18800035 	stwio	r2,0(r3)
 100b770:	00000706 	br	100b790 <sls_avalon_usb20_irq+0x19a8>
 100b774:	e13fd817 	ldw	r4,-160(fp)
 100b778:	01402004 	movi	r5,128
 100b77c:	1008f200 	call	1008f20 <USB_SetStallEP>
 100b780:	e0bfdd17 	ldw	r2,-140(fp)
 100b784:	00c00084 	movi	r3,2
 100b788:	10c00215 	stw	r3,8(r2)
 100b78c:	0001883a 	nop
 100b790:	00051d06 	br	100cc08 <sls_avalon_usb20_irq+0x2e20>
 100b794:	e0bff517 	ldw	r2,-44(fp)
 100b798:	10000926 	beq	r2,zero,100b7c0 <sls_avalon_usb20_irq+0x19d8>
 100b79c:	e0bfd817 	ldw	r2,-160(fp)
 100b7a0:	10000005 	stb	zero,0(r2)
 100b7a4:	e13fd817 	ldw	r4,-160(fp)
 100b7a8:	01402004 	movi	r5,128
 100b7ac:	1008f200 	call	1008f20 <USB_SetStallEP>
 100b7b0:	e0bfdd17 	ldw	r2,-140(fp)
 100b7b4:	00c00084 	movi	r3,2
 100b7b8:	10c00215 	stw	r3,8(r2)
 100b7bc:	00051206 	br	100cc08 <sls_avalon_usb20_irq+0x2e20>
 100b7c0:	e0bfd817 	ldw	r2,-160(fp)
 100b7c4:	00c00044 	movi	r3,1
 100b7c8:	10c1bc45 	stb	r3,1777(r2)
 100b7cc:	e0bfd90b 	ldhu	r2,-156(fp)
 100b7d0:	1007883a 	mov	r3,r2
 100b7d4:	e0bfd817 	ldw	r2,-160(fp)
 100b7d8:	10c00005 	stb	r3,0(r2)
 100b7dc:	e0bff717 	ldw	r2,-36(fp)
 100b7e0:	10800104 	addi	r2,r2,4
 100b7e4:	1007883a 	mov	r3,r2
 100b7e8:	e0bfd817 	ldw	r2,-160(fp)
 100b7ec:	10800003 	ldbu	r2,0(r2)
 100b7f0:	10803fcc 	andi	r2,r2,255
 100b7f4:	18800035 	stwio	r2,0(r3)
 100b7f8:	e0bff717 	ldw	r2,-36(fp)
 100b7fc:	10801304 	addi	r2,r2,76
 100b800:	0007883a 	mov	r3,zero
 100b804:	10c00035 	stwio	r3,0(r2)
 100b808:	0004ff06 	br	100cc08 <sls_avalon_usb20_irq+0x2e20>
 100b80c:	e0bfd817 	ldw	r2,-160(fp)
 100b810:	00c00044 	movi	r3,1
 100b814:	10c00e15 	stw	r3,56(r2)
 100b818:	e0bfdd17 	ldw	r2,-140(fp)
 100b81c:	10000415 	stw	zero,16(r2)
 100b820:	e0bfd817 	ldw	r2,-160(fp)
 100b824:	1001bc05 	stb	zero,1776(r2)
 100b828:	e03fe415 	stw	zero,-112(fp)
 100b82c:	00001106 	br	100b874 <sls_avalon_usb20_irq+0x1a8c>
 100b830:	e0bfe417 	ldw	r2,-112(fp)
 100b834:	e0ffd817 	ldw	r3,-160(fp)
 100b838:	10803a44 	addi	r2,r2,233
 100b83c:	1085883a 	add	r2,r2,r2
 100b840:	1085883a 	add	r2,r2,r2
 100b844:	1885883a 	add	r2,r3,r2
 100b848:	10000015 	stw	zero,0(r2)
 100b84c:	e0bfe417 	ldw	r2,-112(fp)
 100b850:	e0ffd817 	ldw	r3,-160(fp)
 100b854:	10806884 	addi	r2,r2,418
 100b858:	1085883a 	add	r2,r2,r2
 100b85c:	1085883a 	add	r2,r2,r2
 100b860:	1885883a 	add	r2,r3,r2
 100b864:	10000015 	stw	zero,0(r2)
 100b868:	e0bfe417 	ldw	r2,-112(fp)
 100b86c:	10800044 	addi	r2,r2,1
 100b870:	e0bfe415 	stw	r2,-112(fp)
 100b874:	e0bfe417 	ldw	r2,-112(fp)
 100b878:	108003f0 	cmpltui	r2,r2,15
 100b87c:	103fec1e 	bne	r2,zero,100b830 <__alt_data_end+0xfffeb030>
 100b880:	e0bfd817 	ldw	r2,-160(fp)
 100b884:	10803317 	ldw	r2,204(r2)
 100b888:	1000031e 	bne	r2,zero,100b898 <sls_avalon_usb20_irq+0x1ab0>
 100b88c:	e0bfd817 	ldw	r2,-160(fp)
 100b890:	00c00044 	movi	r3,1
 100b894:	10c03315 	stw	r3,204(r2)
 100b898:	e0bfd90b 	ldhu	r2,-156(fp)
 100b89c:	10803fcc 	andi	r2,r2,255
 100b8a0:	1000da26 	beq	r2,zero,100bc0c <sls_avalon_usb20_irq+0x1e24>
 100b8a4:	e0bfd817 	ldw	r2,-160(fp)
 100b8a8:	10800c17 	ldw	r2,48(r2)
 100b8ac:	10800058 	cmpnei	r2,r2,1
 100b8b0:	1000071e 	bne	r2,zero,100b8d0 <sls_avalon_usb20_irq+0x1ae8>
 100b8b4:	e0bfd817 	ldw	r2,-160(fp)
 100b8b8:	10800417 	ldw	r2,16(r2)
 100b8bc:	e0bfd515 	stw	r2,-172(fp)
 100b8c0:	e0bfd817 	ldw	r2,-160(fp)
 100b8c4:	10802f17 	ldw	r2,188(r2)
 100b8c8:	e0bfeb15 	stw	r2,-84(fp)
 100b8cc:	00001406 	br	100b920 <sls_avalon_usb20_irq+0x1b38>
 100b8d0:	e0bfd817 	ldw	r2,-160(fp)
 100b8d4:	10800c17 	ldw	r2,48(r2)
 100b8d8:	1000071e 	bne	r2,zero,100b8f8 <sls_avalon_usb20_irq+0x1b10>
 100b8dc:	e0bfd817 	ldw	r2,-160(fp)
 100b8e0:	10800517 	ldw	r2,20(r2)
 100b8e4:	e0bfd515 	stw	r2,-172(fp)
 100b8e8:	e0bfd817 	ldw	r2,-160(fp)
 100b8ec:	10803017 	ldw	r2,192(r2)
 100b8f0:	e0bfeb15 	stw	r2,-84(fp)
 100b8f4:	00000a06 	br	100b920 <sls_avalon_usb20_irq+0x1b38>
 100b8f8:	e0bfd817 	ldw	r2,-160(fp)
 100b8fc:	10800c17 	ldw	r2,48(r2)
 100b900:	10800098 	cmpnei	r2,r2,2
 100b904:	1000061e 	bne	r2,zero,100b920 <sls_avalon_usb20_irq+0x1b38>
 100b908:	e0bfd817 	ldw	r2,-160(fp)
 100b90c:	10800617 	ldw	r2,24(r2)
 100b910:	e0bfd515 	stw	r2,-172(fp)
 100b914:	e0bfd817 	ldw	r2,-160(fp)
 100b918:	10803117 	ldw	r2,196(r2)
 100b91c:	e0bfeb15 	stw	r2,-84(fp)
 100b920:	e03fea15 	stw	zero,-88(fp)
 100b924:	e0bfd517 	ldw	r2,-172(fp)
 100b928:	10800043 	ldbu	r2,1(r2)
 100b92c:	10803fcc 	andi	r2,r2,255
 100b930:	1080201c 	xori	r2,r2,128
 100b934:	10bfe004 	addi	r2,r2,-128
 100b938:	10c00120 	cmpeqi	r3,r2,4
 100b93c:	18006f1e 	bne	r3,zero,100bafc <sls_avalon_usb20_irq+0x1d14>
 100b940:	10c00160 	cmpeqi	r3,r2,5
 100b944:	1800721e 	bne	r3,zero,100bb10 <sls_avalon_usb20_irq+0x1d28>
 100b948:	108000a0 	cmpeqi	r2,r2,2
 100b94c:	10009426 	beq	r2,zero,100bba0 <sls_avalon_usb20_irq+0x1db8>
 100b950:	e0bfd517 	ldw	r2,-172(fp)
 100b954:	10800143 	ldbu	r2,5(r2)
 100b958:	10803fcc 	andi	r2,r2,255
 100b95c:	e0bfec15 	stw	r2,-80(fp)
 100b960:	e0bfd90b 	ldhu	r2,-156(fp)
 100b964:	10c03fcc 	andi	r3,r2,255
 100b968:	e0bfec17 	ldw	r2,-80(fp)
 100b96c:	1880511e 	bne	r3,r2,100bab4 <sls_avalon_usb20_irq+0x1ccc>
 100b970:	e0bfd90b 	ldhu	r2,-156(fp)
 100b974:	10c03fcc 	andi	r3,r2,255
 100b978:	e0bfd817 	ldw	r2,-160(fp)
 100b97c:	10c02815 	stw	r3,160(r2)
 100b980:	e0bfd517 	ldw	r2,-172(fp)
 100b984:	10800103 	ldbu	r2,4(r2)
 100b988:	10c03fcc 	andi	r3,r2,255
 100b98c:	e0bfd817 	ldw	r2,-160(fp)
 100b990:	10c02e15 	stw	r3,184(r2)
 100b994:	e03fe615 	stw	zero,-104(fp)
 100b998:	00000806 	br	100b9bc <sls_avalon_usb20_irq+0x1bd4>
 100b99c:	e0bfe617 	ldw	r2,-104(fp)
 100b9a0:	e0ffd817 	ldw	r3,-160(fp)
 100b9a4:	1885883a 	add	r2,r3,r2
 100b9a8:	10803504 	addi	r2,r2,212
 100b9ac:	10000005 	stb	zero,0(r2)
 100b9b0:	e0bfe617 	ldw	r2,-104(fp)
 100b9b4:	10800044 	addi	r2,r2,1
 100b9b8:	e0bfe615 	stw	r2,-104(fp)
 100b9bc:	e0bfe617 	ldw	r2,-104(fp)
 100b9c0:	10800130 	cmpltui	r2,r2,4
 100b9c4:	103ff51e 	bne	r2,zero,100b99c <__alt_data_end+0xfffeb19c>
 100b9c8:	00800044 	movi	r2,1
 100b9cc:	e0bfe615 	stw	r2,-104(fp)
 100b9d0:	00001c06 	br	100ba44 <sls_avalon_usb20_irq+0x1c5c>
 100b9d4:	e0bfd817 	ldw	r2,-160(fp)
 100b9d8:	10802c17 	ldw	r2,176(r2)
 100b9dc:	e0ffe617 	ldw	r3,-104(fp)
 100b9e0:	18ffffc4 	addi	r3,r3,-1
 100b9e4:	1809883a 	mov	r4,r3
 100b9e8:	00c00044 	movi	r3,1
 100b9ec:	1906983a 	sll	r3,r3,r4
 100b9f0:	10c4703a 	and	r2,r2,r3
 100b9f4:	10000426 	beq	r2,zero,100ba08 <sls_avalon_usb20_irq+0x1c20>
 100b9f8:	e0bfe617 	ldw	r2,-104(fp)
 100b9fc:	e13fd817 	ldw	r4,-160(fp)
 100ba00:	100b883a 	mov	r5,r2
 100ba04:	1009bd00 	call	1009bd0 <USB_DisableEP>
 100ba08:	e0bfd817 	ldw	r2,-160(fp)
 100ba0c:	10802c17 	ldw	r2,176(r2)
 100ba10:	e0ffe617 	ldw	r3,-104(fp)
 100ba14:	1809883a 	mov	r4,r3
 100ba18:	00e00014 	movui	r3,32768
 100ba1c:	1906983a 	sll	r3,r3,r4
 100ba20:	10c4703a 	and	r2,r2,r3
 100ba24:	10000426 	beq	r2,zero,100ba38 <sls_avalon_usb20_irq+0x1c50>
 100ba28:	e0bfe617 	ldw	r2,-104(fp)
 100ba2c:	e13fd817 	ldw	r4,-160(fp)
 100ba30:	100b883a 	mov	r5,r2
 100ba34:	1009bd00 	call	1009bd0 <USB_DisableEP>
 100ba38:	e0bfe617 	ldw	r2,-104(fp)
 100ba3c:	10800044 	addi	r2,r2,1
 100ba40:	e0bfe615 	stw	r2,-104(fp)
 100ba44:	e0bfe617 	ldw	r2,-104(fp)
 100ba48:	10800430 	cmpltui	r2,r2,16
 100ba4c:	103fe11e 	bne	r2,zero,100b9d4 <__alt_data_end+0xfffeb1d4>
 100ba50:	e0bfd817 	ldw	r2,-160(fp)
 100ba54:	10002d15 	stw	zero,180(r2)
 100ba58:	e0bfd817 	ldw	r2,-160(fp)
 100ba5c:	00c00084 	movi	r3,2
 100ba60:	10c1bc45 	stb	r3,1777(r2)
 100ba64:	e0bfd517 	ldw	r2,-172(fp)
 100ba68:	108001c3 	ldbu	r2,7(r2)
 100ba6c:	10803fcc 	andi	r2,r2,255
 100ba70:	e0bfec15 	stw	r2,-80(fp)
 100ba74:	e0bfec17 	ldw	r2,-80(fp)
 100ba78:	1080100c 	andi	r2,r2,64
 100ba7c:	10000626 	beq	r2,zero,100ba98 <sls_avalon_usb20_irq+0x1cb0>
 100ba80:	e0bfd817 	ldw	r2,-160(fp)
 100ba84:	10802917 	ldw	r2,164(r2)
 100ba88:	10c00054 	ori	r3,r2,1
 100ba8c:	e0bfd817 	ldw	r2,-160(fp)
 100ba90:	10c02915 	stw	r3,164(r2)
 100ba94:	00004206 	br	100bba0 <sls_avalon_usb20_irq+0x1db8>
 100ba98:	e0bfd817 	ldw	r2,-160(fp)
 100ba9c:	10c02917 	ldw	r3,164(r2)
 100baa0:	00bfff84 	movi	r2,-2
 100baa4:	1886703a 	and	r3,r3,r2
 100baa8:	e0bfd817 	ldw	r2,-160(fp)
 100baac:	10c02915 	stw	r3,164(r2)
 100bab0:	00003b06 	br	100bba0 <sls_avalon_usb20_irq+0x1db8>
 100bab4:	e0bfd517 	ldw	r2,-172(fp)
 100bab8:	10c00083 	ldbu	r3,2(r2)
 100babc:	108000c3 	ldbu	r2,3(r2)
 100bac0:	1004923a 	slli	r2,r2,8
 100bac4:	10c4b03a 	or	r2,r2,r3
 100bac8:	10bfffcc 	andi	r2,r2,65535
 100bacc:	e0bfec15 	stw	r2,-80(fp)
 100bad0:	e0ffec17 	ldw	r3,-80(fp)
 100bad4:	e0bfea17 	ldw	r2,-88(fp)
 100bad8:	1885883a 	add	r2,r3,r2
 100badc:	e0bfea15 	stw	r2,-88(fp)
 100bae0:	e0ffd517 	ldw	r3,-172(fp)
 100bae4:	e0bfec17 	ldw	r2,-80(fp)
 100bae8:	1885883a 	add	r2,r3,r2
 100baec:	e0bfe715 	stw	r2,-100(fp)
 100baf0:	e0bfe717 	ldw	r2,-100(fp)
 100baf4:	e0bfd515 	stw	r2,-172(fp)
 100baf8:	00004306 	br	100bc08 <sls_avalon_usb20_irq+0x1e20>
 100bafc:	e0bfd517 	ldw	r2,-172(fp)
 100bb00:	108000c3 	ldbu	r2,3(r2)
 100bb04:	10803fcc 	andi	r2,r2,255
 100bb08:	e0bfe815 	stw	r2,-96(fp)
 100bb0c:	00002406 	br	100bba0 <sls_avalon_usb20_irq+0x1db8>
 100bb10:	e0bfd517 	ldw	r2,-172(fp)
 100bb14:	10800083 	ldbu	r2,2(r2)
 100bb18:	10803fcc 	andi	r2,r2,255
 100bb1c:	e0bfec15 	stw	r2,-80(fp)
 100bb20:	e0bfe817 	ldw	r2,-96(fp)
 100bb24:	10001d1e 	bne	r2,zero,100bb9c <sls_avalon_usb20_irq+0x1db4>
 100bb28:	e0bfec17 	ldw	r2,-80(fp)
 100bb2c:	108023cc 	andi	r2,r2,143
 100bb30:	e0bfe615 	stw	r2,-104(fp)
 100bb34:	e0bfe617 	ldw	r2,-104(fp)
 100bb38:	1080200c 	andi	r2,r2,128
 100bb3c:	10000526 	beq	r2,zero,100bb54 <sls_avalon_usb20_irq+0x1d6c>
 100bb40:	e0bfe617 	ldw	r2,-104(fp)
 100bb44:	108003cc 	andi	r2,r2,15
 100bb48:	00e00014 	movui	r3,32768
 100bb4c:	1884983a 	sll	r2,r3,r2
 100bb50:	00000506 	br	100bb68 <sls_avalon_usb20_irq+0x1d80>
 100bb54:	e0bfe617 	ldw	r2,-104(fp)
 100bb58:	10bfffc4 	addi	r2,r2,-1
 100bb5c:	1007883a 	mov	r3,r2
 100bb60:	00800044 	movi	r2,1
 100bb64:	10c4983a 	sll	r2,r2,r3
 100bb68:	e0bfe515 	stw	r2,-108(fp)
 100bb6c:	e0bfe517 	ldw	r2,-108(fp)
 100bb70:	e0ffd817 	ldw	r3,-160(fp)
 100bb74:	18c02c17 	ldw	r3,176(r3)
 100bb78:	1886b03a 	or	r3,r3,r2
 100bb7c:	e0bfd817 	ldw	r2,-160(fp)
 100bb80:	10c02c15 	stw	r3,176(r2)
 100bb84:	e0bfe617 	ldw	r2,-104(fp)
 100bb88:	108003cc 	andi	r2,r2,15
 100bb8c:	e13fd817 	ldw	r4,-160(fp)
 100bb90:	100b883a 	mov	r5,r2
 100bb94:	100926c0 	call	100926c <USB_EnableEP>
 100bb98:	00000006 	br	100bb9c <sls_avalon_usb20_irq+0x1db4>
 100bb9c:	0001883a 	nop
 100bba0:	e0bfd517 	ldw	r2,-172(fp)
 100bba4:	10800003 	ldbu	r2,0(r2)
 100bba8:	10803fcc 	andi	r2,r2,255
 100bbac:	1080201c 	xori	r2,r2,128
 100bbb0:	10bfe004 	addi	r2,r2,-128
 100bbb4:	e0bfec15 	stw	r2,-80(fp)
 100bbb8:	e0ffec17 	ldw	r3,-80(fp)
 100bbbc:	e0bfea17 	ldw	r2,-88(fp)
 100bbc0:	1885883a 	add	r2,r3,r2
 100bbc4:	e0bfea15 	stw	r2,-88(fp)
 100bbc8:	e0ffd517 	ldw	r3,-172(fp)
 100bbcc:	e0bfec17 	ldw	r2,-80(fp)
 100bbd0:	1885883a 	add	r2,r3,r2
 100bbd4:	e0bfe715 	stw	r2,-100(fp)
 100bbd8:	e0bfe717 	ldw	r2,-100(fp)
 100bbdc:	e0bfd515 	stw	r2,-172(fp)
 100bbe0:	e0ffea17 	ldw	r3,-88(fp)
 100bbe4:	e0bfeb17 	ldw	r2,-84(fp)
 100bbe8:	18800736 	bltu	r3,r2,100bc08 <sls_avalon_usb20_irq+0x1e20>
 100bbec:	0001883a 	nop
 100bbf0:	e0bfd817 	ldw	r2,-160(fp)
 100bbf4:	10c02817 	ldw	r3,160(r2)
 100bbf8:	e0bfd90b 	ldhu	r2,-156(fp)
 100bbfc:	10803fcc 	andi	r2,r2,255
 100bc00:	18803c26 	beq	r3,r2,100bcf4 <sls_avalon_usb20_irq+0x1f0c>
 100bc04:	00003406 	br	100bcd8 <sls_avalon_usb20_irq+0x1ef0>
 100bc08:	003f4606 	br	100b924 <__alt_data_end+0xfffeb124>
 100bc0c:	e0bfd817 	ldw	r2,-160(fp)
 100bc10:	10002815 	stw	zero,160(r2)
 100bc14:	e0bfd817 	ldw	r2,-160(fp)
 100bc18:	00c00084 	movi	r3,2
 100bc1c:	10c00f15 	stw	r3,60(r2)
 100bc20:	00800044 	movi	r2,1
 100bc24:	e0bfe615 	stw	r2,-104(fp)
 100bc28:	00001c06 	br	100bc9c <sls_avalon_usb20_irq+0x1eb4>
 100bc2c:	e0bfd817 	ldw	r2,-160(fp)
 100bc30:	10802c17 	ldw	r2,176(r2)
 100bc34:	e0ffe617 	ldw	r3,-104(fp)
 100bc38:	18ffffc4 	addi	r3,r3,-1
 100bc3c:	1809883a 	mov	r4,r3
 100bc40:	00c00044 	movi	r3,1
 100bc44:	1906983a 	sll	r3,r3,r4
 100bc48:	10c4703a 	and	r2,r2,r3
 100bc4c:	10000426 	beq	r2,zero,100bc60 <sls_avalon_usb20_irq+0x1e78>
 100bc50:	e0bfe617 	ldw	r2,-104(fp)
 100bc54:	e13fd817 	ldw	r4,-160(fp)
 100bc58:	100b883a 	mov	r5,r2
 100bc5c:	1009bd00 	call	1009bd0 <USB_DisableEP>
 100bc60:	e0bfd817 	ldw	r2,-160(fp)
 100bc64:	10802c17 	ldw	r2,176(r2)
 100bc68:	e0ffe617 	ldw	r3,-104(fp)
 100bc6c:	1809883a 	mov	r4,r3
 100bc70:	00e00014 	movui	r3,32768
 100bc74:	1906983a 	sll	r3,r3,r4
 100bc78:	10c4703a 	and	r2,r2,r3
 100bc7c:	10000426 	beq	r2,zero,100bc90 <sls_avalon_usb20_irq+0x1ea8>
 100bc80:	e0bfe617 	ldw	r2,-104(fp)
 100bc84:	e13fd817 	ldw	r4,-160(fp)
 100bc88:	100b883a 	mov	r5,r2
 100bc8c:	1009bd00 	call	1009bd0 <USB_DisableEP>
 100bc90:	e0bfe617 	ldw	r2,-104(fp)
 100bc94:	10800044 	addi	r2,r2,1
 100bc98:	e0bfe615 	stw	r2,-104(fp)
 100bc9c:	e0bfe617 	ldw	r2,-104(fp)
 100bca0:	10800430 	cmpltui	r2,r2,16
 100bca4:	103fe11e 	bne	r2,zero,100bc2c <__alt_data_end+0xfffeb42c>
 100bca8:	e0bfd817 	ldw	r2,-160(fp)
 100bcac:	10002c15 	stw	zero,176(r2)
 100bcb0:	e0bfd817 	ldw	r2,-160(fp)
 100bcb4:	10002d15 	stw	zero,180(r2)
 100bcb8:	e0bfd817 	ldw	r2,-160(fp)
 100bcbc:	00c00044 	movi	r3,1
 100bcc0:	10c1bc45 	stb	r3,1777(r2)
 100bcc4:	e0bff717 	ldw	r2,-36(fp)
 100bcc8:	10801304 	addi	r2,r2,76
 100bccc:	0007883a 	mov	r3,zero
 100bcd0:	10c00035 	stwio	r3,0(r2)
 100bcd4:	0003cc06 	br	100cc08 <sls_avalon_usb20_irq+0x2e20>
 100bcd8:	e13fd817 	ldw	r4,-160(fp)
 100bcdc:	01402004 	movi	r5,128
 100bce0:	1008f200 	call	1008f20 <USB_SetStallEP>
 100bce4:	e0bfdd17 	ldw	r2,-140(fp)
 100bce8:	00c00084 	movi	r3,2
 100bcec:	10c00215 	stw	r3,8(r2)
 100bcf0:	0003c506 	br	100cc08 <sls_avalon_usb20_irq+0x2e20>
 100bcf4:	e0bfd817 	ldw	r2,-160(fp)
 100bcf8:	10003415 	stw	zero,208(r2)
 100bcfc:	e0bfd817 	ldw	r2,-160(fp)
 100bd00:	00c000c4 	movi	r3,3
 100bd04:	10c00f15 	stw	r3,60(r2)
 100bd08:	e0bff717 	ldw	r2,-36(fp)
 100bd0c:	10801304 	addi	r2,r2,76
 100bd10:	0007883a 	mov	r3,zero
 100bd14:	10c00035 	stwio	r3,0(r2)
 100bd18:	e0bfd817 	ldw	r2,-160(fp)
 100bd1c:	00c00044 	movi	r3,1
 100bd20:	10c1bc05 	stb	r3,1776(r2)
 100bd24:	e0bfd817 	ldw	r2,-160(fp)
 100bd28:	10000e15 	stw	zero,56(r2)
 100bd2c:	0003b606 	br	100cc08 <sls_avalon_usb20_irq+0x2e20>
 100bd30:	e0bff517 	ldw	r2,-44(fp)
 100bd34:	10000726 	beq	r2,zero,100bd54 <sls_avalon_usb20_irq+0x1f6c>
 100bd38:	e13fd817 	ldw	r4,-160(fp)
 100bd3c:	01402004 	movi	r5,128
 100bd40:	1008f200 	call	1008f20 <USB_SetStallEP>
 100bd44:	e0bfdd17 	ldw	r2,-140(fp)
 100bd48:	00c00084 	movi	r3,2
 100bd4c:	10c00215 	stw	r3,8(r2)
 100bd50:	0003ad06 	br	100cc08 <sls_avalon_usb20_irq+0x2e20>
 100bd54:	e0bfd817 	ldw	r2,-160(fp)
 100bd58:	1081bc43 	ldbu	r2,1777(r2)
 100bd5c:	10803fcc 	andi	r2,r2,255
 100bd60:	10c00060 	cmpeqi	r3,r2,1
 100bd64:	1800091e 	bne	r3,zero,100bd8c <sls_avalon_usb20_irq+0x1fa4>
 100bd68:	10c000a0 	cmpeqi	r3,r2,2
 100bd6c:	1800131e 	bne	r3,zero,100bdbc <sls_avalon_usb20_irq+0x1fd4>
 100bd70:	10000126 	beq	r2,zero,100bd78 <sls_avalon_usb20_irq+0x1f90>
 100bd74:	0003a406 	br	100cc08 <sls_avalon_usb20_irq+0x2e20>
 100bd78:	e0bff717 	ldw	r2,-36(fp)
 100bd7c:	10801304 	addi	r2,r2,76
 100bd80:	0007883a 	mov	r3,zero
 100bd84:	10c00035 	stwio	r3,0(r2)
 100bd88:	00001a06 	br	100bdf4 <sls_avalon_usb20_irq+0x200c>
 100bd8c:	e0bff717 	ldw	r2,-36(fp)
 100bd90:	1007883a 	mov	r3,r2
 100bd94:	008000b4 	movhi	r2,2
 100bd98:	1885883a 	add	r2,r3,r2
 100bd9c:	0007883a 	mov	r3,zero
 100bda0:	10c00035 	stwio	r3,0(r2)
 100bda4:	e0bff717 	ldw	r2,-36(fp)
 100bda8:	10801304 	addi	r2,r2,76
 100bdac:	1007883a 	mov	r3,r2
 100bdb0:	008000b4 	movhi	r2,2
 100bdb4:	18800035 	stwio	r2,0(r3)
 100bdb8:	00000e06 	br	100bdf4 <sls_avalon_usb20_irq+0x200c>
 100bdbc:	e0bff717 	ldw	r2,-36(fp)
 100bdc0:	1007883a 	mov	r3,r2
 100bdc4:	008000b4 	movhi	r2,2
 100bdc8:	1885883a 	add	r2,r3,r2
 100bdcc:	1007883a 	mov	r3,r2
 100bdd0:	e0bfd817 	ldw	r2,-160(fp)
 100bdd4:	10802817 	ldw	r2,160(r2)
 100bdd8:	18800035 	stwio	r2,0(r3)
 100bddc:	e0bff717 	ldw	r2,-36(fp)
 100bde0:	10801304 	addi	r2,r2,76
 100bde4:	1007883a 	mov	r3,r2
 100bde8:	008000b4 	movhi	r2,2
 100bdec:	18800035 	stwio	r2,0(r3)
 100bdf0:	0001883a 	nop
 100bdf4:	00038406 	br	100cc08 <sls_avalon_usb20_irq+0x2e20>
 100bdf8:	e0bff517 	ldw	r2,-44(fp)
 100bdfc:	10c00060 	cmpeqi	r3,r2,1
 100be00:	1800511e 	bne	r3,zero,100bf48 <sls_avalon_usb20_irq+0x2160>
 100be04:	10c000a0 	cmpeqi	r3,r2,2
 100be08:	1800561e 	bne	r3,zero,100bf64 <sls_avalon_usb20_irq+0x217c>
 100be0c:	1000961e 	bne	r2,zero,100c068 <sls_avalon_usb20_irq+0x2280>
 100be10:	e0bfd90b 	ldhu	r2,-156(fp)
 100be14:	108003cc 	andi	r2,r2,15
 100be18:	10800098 	cmpnei	r2,r2,2
 100be1c:	1000131e 	bne	r2,zero,100be6c <sls_avalon_usb20_irq+0x2084>
 100be20:	e0bfd98b 	ldhu	r2,-154(fp)
 100be24:	1004d23a 	srli	r2,r2,8
 100be28:	10ffffcc 	andi	r3,r2,65535
 100be2c:	e0bfd817 	ldw	r2,-160(fp)
 100be30:	10c03215 	stw	r3,200(r2)
 100be34:	e0bfd817 	ldw	r2,-160(fp)
 100be38:	10803217 	ldw	r2,200(r2)
 100be3c:	10bfffc4 	addi	r2,r2,-1
 100be40:	1007883a 	mov	r3,r2
 100be44:	00800044 	movi	r2,1
 100be48:	10c4983a 	sll	r2,r2,r3
 100be4c:	1007883a 	mov	r3,r2
 100be50:	e0bfd817 	ldw	r2,-160(fp)
 100be54:	10c03215 	stw	r3,200(r2)
 100be58:	e0bff717 	ldw	r2,-36(fp)
 100be5c:	10801304 	addi	r2,r2,76
 100be60:	0007883a 	mov	r3,zero
 100be64:	10c00035 	stwio	r3,0(r2)
 100be68:	00003606 	br	100bf44 <sls_avalon_usb20_irq+0x215c>
 100be6c:	e0bfd90b 	ldhu	r2,-156(fp)
 100be70:	10800058 	cmpnei	r2,r2,1
 100be74:	10002c1e 	bne	r2,zero,100bf28 <sls_avalon_usb20_irq+0x2140>
 100be78:	e0bfd817 	ldw	r2,-160(fp)
 100be7c:	10800c17 	ldw	r2,48(r2)
 100be80:	10800058 	cmpnei	r2,r2,1
 100be84:	1000041e 	bne	r2,zero,100be98 <sls_avalon_usb20_irq+0x20b0>
 100be88:	e0bfd817 	ldw	r2,-160(fp)
 100be8c:	10800417 	ldw	r2,16(r2)
 100be90:	e0bfd615 	stw	r2,-168(fp)
 100be94:	00000e06 	br	100bed0 <sls_avalon_usb20_irq+0x20e8>
 100be98:	e0bfd817 	ldw	r2,-160(fp)
 100be9c:	10800c17 	ldw	r2,48(r2)
 100bea0:	1000041e 	bne	r2,zero,100beb4 <sls_avalon_usb20_irq+0x20cc>
 100bea4:	e0bfd817 	ldw	r2,-160(fp)
 100bea8:	10800517 	ldw	r2,20(r2)
 100beac:	e0bfd615 	stw	r2,-168(fp)
 100beb0:	00000706 	br	100bed0 <sls_avalon_usb20_irq+0x20e8>
 100beb4:	e0bfd817 	ldw	r2,-160(fp)
 100beb8:	10800c17 	ldw	r2,48(r2)
 100bebc:	10800098 	cmpnei	r2,r2,2
 100bec0:	1000031e 	bne	r2,zero,100bed0 <sls_avalon_usb20_irq+0x20e8>
 100bec4:	e0bfd817 	ldw	r2,-160(fp)
 100bec8:	10800617 	ldw	r2,24(r2)
 100becc:	e0bfd615 	stw	r2,-168(fp)
 100bed0:	e0bfd617 	ldw	r2,-168(fp)
 100bed4:	108001c3 	ldbu	r2,7(r2)
 100bed8:	e0bfe105 	stb	r2,-124(fp)
 100bedc:	e0bfe103 	ldbu	r2,-124(fp)
 100bee0:	10803fcc 	andi	r2,r2,255
 100bee4:	1080080c 	andi	r2,r2,32
 100bee8:	10000e26 	beq	r2,zero,100bf24 <sls_avalon_usb20_irq+0x213c>
 100beec:	e0bfd817 	ldw	r2,-160(fp)
 100bef0:	10802917 	ldw	r2,164(r2)
 100bef4:	10c00094 	ori	r3,r2,2
 100bef8:	e0bfd817 	ldw	r2,-160(fp)
 100befc:	10c02915 	stw	r3,164(r2)
 100bf00:	e0bfd817 	ldw	r2,-160(fp)
 100bf04:	10803b17 	ldw	r2,236(r2)
 100bf08:	10000626 	beq	r2,zero,100bf24 <sls_avalon_usb20_irq+0x213c>
 100bf0c:	e0bfd817 	ldw	r2,-160(fp)
 100bf10:	10803b17 	ldw	r2,236(r2)
 100bf14:	e13fd817 	ldw	r4,-160(fp)
 100bf18:	01400044 	movi	r5,1
 100bf1c:	103ee83a 	callr	r2
 100bf20:	00000806 	br	100bf44 <sls_avalon_usb20_irq+0x215c>
 100bf24:	00000706 	br	100bf44 <sls_avalon_usb20_irq+0x215c>
 100bf28:	e13fd817 	ldw	r4,-160(fp)
 100bf2c:	01402004 	movi	r5,128
 100bf30:	1008f200 	call	1008f20 <USB_SetStallEP>
 100bf34:	e0bfdd17 	ldw	r2,-140(fp)
 100bf38:	00c00084 	movi	r3,2
 100bf3c:	10c00215 	stw	r3,8(r2)
 100bf40:	00033106 	br	100cc08 <sls_avalon_usb20_irq+0x2e20>
 100bf44:	00004f06 	br	100c084 <sls_avalon_usb20_irq+0x229c>
 100bf48:	e13fd817 	ldw	r4,-160(fp)
 100bf4c:	01402004 	movi	r5,128
 100bf50:	1008f200 	call	1008f20 <USB_SetStallEP>
 100bf54:	e0bfdd17 	ldw	r2,-140(fp)
 100bf58:	00c00084 	movi	r3,2
 100bf5c:	10c00215 	stw	r3,8(r2)
 100bf60:	00032906 	br	100cc08 <sls_avalon_usb20_irq+0x2e20>
 100bf64:	e0bfd98b 	ldhu	r2,-154(fp)
 100bf68:	108023cc 	andi	r2,r2,143
 100bf6c:	e0bfe615 	stw	r2,-104(fp)
 100bf70:	e0bfe617 	ldw	r2,-104(fp)
 100bf74:	1080200c 	andi	r2,r2,128
 100bf78:	10000526 	beq	r2,zero,100bf90 <sls_avalon_usb20_irq+0x21a8>
 100bf7c:	e0bfe617 	ldw	r2,-104(fp)
 100bf80:	108003cc 	andi	r2,r2,15
 100bf84:	00e00014 	movui	r3,32768
 100bf88:	1884983a 	sll	r2,r3,r2
 100bf8c:	00000506 	br	100bfa4 <sls_avalon_usb20_irq+0x21bc>
 100bf90:	e0bfe617 	ldw	r2,-104(fp)
 100bf94:	10bfffc4 	addi	r2,r2,-1
 100bf98:	1007883a 	mov	r3,r2
 100bf9c:	00800044 	movi	r2,1
 100bfa0:	10c4983a 	sll	r2,r2,r3
 100bfa4:	e0bfe515 	stw	r2,-108(fp)
 100bfa8:	e0bfd817 	ldw	r2,-160(fp)
 100bfac:	10802817 	ldw	r2,160(r2)
 100bfb0:	10002626 	beq	r2,zero,100c04c <sls_avalon_usb20_irq+0x2264>
 100bfb4:	e0bfe617 	ldw	r2,-104(fp)
 100bfb8:	108003cc 	andi	r2,r2,15
 100bfbc:	10002326 	beq	r2,zero,100c04c <sls_avalon_usb20_irq+0x2264>
 100bfc0:	e0bfd90b 	ldhu	r2,-156(fp)
 100bfc4:	10001a1e 	bne	r2,zero,100c030 <sls_avalon_usb20_irq+0x2248>
 100bfc8:	e0bfe617 	ldw	r2,-104(fp)
 100bfcc:	108003cc 	andi	r2,r2,15
 100bfd0:	10800104 	addi	r2,r2,4
 100bfd4:	1004913a 	slli	r2,r2,4
 100bfd8:	e0fff717 	ldw	r3,-36(fp)
 100bfdc:	10c5883a 	add	r2,r2,r3
 100bfe0:	10800037 	ldwio	r2,0(r2)
 100bfe4:	e0bffb15 	stw	r2,-20(fp)
 100bfe8:	e0bfe617 	ldw	r2,-104(fp)
 100bfec:	108003cc 	andi	r2,r2,15
 100bff0:	10800104 	addi	r2,r2,4
 100bff4:	1004913a 	slli	r2,r2,4
 100bff8:	e0fff717 	ldw	r3,-36(fp)
 100bffc:	10c5883a 	add	r2,r2,r3
 100c000:	1007883a 	mov	r3,r2
 100c004:	e0bffb17 	ldw	r2,-20(fp)
 100c008:	10802034 	orhi	r2,r2,128
 100c00c:	18800035 	stwio	r2,0(r3)
 100c010:	e0bfe517 	ldw	r2,-108(fp)
 100c014:	e0ffd817 	ldw	r3,-160(fp)
 100c018:	18c02d17 	ldw	r3,180(r3)
 100c01c:	1886b03a 	or	r3,r3,r2
 100c020:	e0bfd817 	ldw	r2,-160(fp)
 100c024:	10c02d15 	stw	r3,180(r2)
 100c028:	0001883a 	nop
 100c02c:	00001506 	br	100c084 <sls_avalon_usb20_irq+0x229c>
 100c030:	e13fd817 	ldw	r4,-160(fp)
 100c034:	01402004 	movi	r5,128
 100c038:	1008f200 	call	1008f20 <USB_SetStallEP>
 100c03c:	e0bfdd17 	ldw	r2,-140(fp)
 100c040:	00c00084 	movi	r3,2
 100c044:	10c00215 	stw	r3,8(r2)
 100c048:	0002ef06 	br	100cc08 <sls_avalon_usb20_irq+0x2e20>
 100c04c:	e13fd817 	ldw	r4,-160(fp)
 100c050:	01402004 	movi	r5,128
 100c054:	1008f200 	call	1008f20 <USB_SetStallEP>
 100c058:	e0bfdd17 	ldw	r2,-140(fp)
 100c05c:	00c00084 	movi	r3,2
 100c060:	10c00215 	stw	r3,8(r2)
 100c064:	0002e806 	br	100cc08 <sls_avalon_usb20_irq+0x2e20>
 100c068:	e13fd817 	ldw	r4,-160(fp)
 100c06c:	01402004 	movi	r5,128
 100c070:	1008f200 	call	1008f20 <USB_SetStallEP>
 100c074:	e0bfdd17 	ldw	r2,-140(fp)
 100c078:	00c00084 	movi	r3,2
 100c07c:	10c00215 	stw	r3,8(r2)
 100c080:	0002e106 	br	100cc08 <sls_avalon_usb20_irq+0x2e20>
 100c084:	e0bff717 	ldw	r2,-36(fp)
 100c088:	10801304 	addi	r2,r2,76
 100c08c:	0007883a 	mov	r3,zero
 100c090:	10c00035 	stwio	r3,0(r2)
 100c094:	0002dc06 	br	100cc08 <sls_avalon_usb20_irq+0x2e20>
 100c098:	e0bff517 	ldw	r2,-44(fp)
 100c09c:	10c00060 	cmpeqi	r3,r2,1
 100c0a0:	18001c1e 	bne	r3,zero,100c114 <sls_avalon_usb20_irq+0x232c>
 100c0a4:	10c000a0 	cmpeqi	r3,r2,2
 100c0a8:	1800211e 	bne	r3,zero,100c130 <sls_avalon_usb20_irq+0x2348>
 100c0ac:	1000641e 	bne	r2,zero,100c240 <sls_avalon_usb20_irq+0x2458>
 100c0b0:	e0bfd90b 	ldhu	r2,-156(fp)
 100c0b4:	10800058 	cmpnei	r2,r2,1
 100c0b8:	10000f1e 	bne	r2,zero,100c0f8 <sls_avalon_usb20_irq+0x2310>
 100c0bc:	e0bfd817 	ldw	r2,-160(fp)
 100c0c0:	10803b17 	ldw	r2,236(r2)
 100c0c4:	10000526 	beq	r2,zero,100c0dc <sls_avalon_usb20_irq+0x22f4>
 100c0c8:	e0bfd817 	ldw	r2,-160(fp)
 100c0cc:	10803b17 	ldw	r2,236(r2)
 100c0d0:	e13fd817 	ldw	r4,-160(fp)
 100c0d4:	000b883a 	mov	r5,zero
 100c0d8:	103ee83a 	callr	r2
 100c0dc:	e0bfd817 	ldw	r2,-160(fp)
 100c0e0:	10c02917 	ldw	r3,164(r2)
 100c0e4:	00bfff44 	movi	r2,-3
 100c0e8:	1886703a 	and	r3,r3,r2
 100c0ec:	e0bfd817 	ldw	r2,-160(fp)
 100c0f0:	10c02915 	stw	r3,164(r2)
 100c0f4:	00005906 	br	100c25c <sls_avalon_usb20_irq+0x2474>
 100c0f8:	e13fd817 	ldw	r4,-160(fp)
 100c0fc:	01402004 	movi	r5,128
 100c100:	1008f200 	call	1008f20 <USB_SetStallEP>
 100c104:	e0bfdd17 	ldw	r2,-140(fp)
 100c108:	00c00084 	movi	r3,2
 100c10c:	10c00215 	stw	r3,8(r2)
 100c110:	0002bd06 	br	100cc08 <sls_avalon_usb20_irq+0x2e20>
 100c114:	e13fd817 	ldw	r4,-160(fp)
 100c118:	01402004 	movi	r5,128
 100c11c:	1008f200 	call	1008f20 <USB_SetStallEP>
 100c120:	e0bfdd17 	ldw	r2,-140(fp)
 100c124:	00c00084 	movi	r3,2
 100c128:	10c00215 	stw	r3,8(r2)
 100c12c:	0002b606 	br	100cc08 <sls_avalon_usb20_irq+0x2e20>
 100c130:	e0bfd98b 	ldhu	r2,-154(fp)
 100c134:	108023cc 	andi	r2,r2,143
 100c138:	e0bfe615 	stw	r2,-104(fp)
 100c13c:	e0bfe617 	ldw	r2,-104(fp)
 100c140:	1080200c 	andi	r2,r2,128
 100c144:	10000526 	beq	r2,zero,100c15c <sls_avalon_usb20_irq+0x2374>
 100c148:	e0bfe617 	ldw	r2,-104(fp)
 100c14c:	108003cc 	andi	r2,r2,15
 100c150:	00e00014 	movui	r3,32768
 100c154:	1884983a 	sll	r2,r3,r2
 100c158:	00000506 	br	100c170 <sls_avalon_usb20_irq+0x2388>
 100c15c:	e0bfe617 	ldw	r2,-104(fp)
 100c160:	10bfffc4 	addi	r2,r2,-1
 100c164:	1007883a 	mov	r3,r2
 100c168:	00800044 	movi	r2,1
 100c16c:	10c4983a 	sll	r2,r2,r3
 100c170:	e0bfe515 	stw	r2,-108(fp)
 100c174:	e0bfd817 	ldw	r2,-160(fp)
 100c178:	10802817 	ldw	r2,160(r2)
 100c17c:	10002926 	beq	r2,zero,100c224 <sls_avalon_usb20_irq+0x243c>
 100c180:	e0bfe617 	ldw	r2,-104(fp)
 100c184:	108003cc 	andi	r2,r2,15
 100c188:	10002626 	beq	r2,zero,100c224 <sls_avalon_usb20_irq+0x243c>
 100c18c:	e0bfd90b 	ldhu	r2,-156(fp)
 100c190:	10001d1e 	bne	r2,zero,100c208 <sls_avalon_usb20_irq+0x2420>
 100c194:	e0bfe617 	ldw	r2,-104(fp)
 100c198:	108003cc 	andi	r2,r2,15
 100c19c:	10800104 	addi	r2,r2,4
 100c1a0:	1004913a 	slli	r2,r2,4
 100c1a4:	e0fff717 	ldw	r3,-36(fp)
 100c1a8:	10c5883a 	add	r2,r2,r3
 100c1ac:	10800037 	ldwio	r2,0(r2)
 100c1b0:	e0bffc15 	stw	r2,-16(fp)
 100c1b4:	e0bfe617 	ldw	r2,-104(fp)
 100c1b8:	108003cc 	andi	r2,r2,15
 100c1bc:	10800104 	addi	r2,r2,4
 100c1c0:	1004913a 	slli	r2,r2,4
 100c1c4:	e0fff717 	ldw	r3,-36(fp)
 100c1c8:	10c5883a 	add	r2,r2,r3
 100c1cc:	1009883a 	mov	r4,r2
 100c1d0:	e0fffc17 	ldw	r3,-16(fp)
 100c1d4:	00b3d034 	movhi	r2,53056
 100c1d8:	10bfffc4 	addi	r2,r2,-1
 100c1dc:	1884703a 	and	r2,r3,r2
 100c1e0:	20800035 	stwio	r2,0(r4)
 100c1e4:	e0bfe517 	ldw	r2,-108(fp)
 100c1e8:	0084303a 	nor	r2,zero,r2
 100c1ec:	e0ffd817 	ldw	r3,-160(fp)
 100c1f0:	18c02d17 	ldw	r3,180(r3)
 100c1f4:	1886703a 	and	r3,r3,r2
 100c1f8:	e0bfd817 	ldw	r2,-160(fp)
 100c1fc:	10c02d15 	stw	r3,180(r2)
 100c200:	0001883a 	nop
 100c204:	00001506 	br	100c25c <sls_avalon_usb20_irq+0x2474>
 100c208:	e13fd817 	ldw	r4,-160(fp)
 100c20c:	01402004 	movi	r5,128
 100c210:	1008f200 	call	1008f20 <USB_SetStallEP>
 100c214:	e0bfdd17 	ldw	r2,-140(fp)
 100c218:	00c00084 	movi	r3,2
 100c21c:	10c00215 	stw	r3,8(r2)
 100c220:	00027906 	br	100cc08 <sls_avalon_usb20_irq+0x2e20>
 100c224:	e13fd817 	ldw	r4,-160(fp)
 100c228:	01402004 	movi	r5,128
 100c22c:	1008f200 	call	1008f20 <USB_SetStallEP>
 100c230:	e0bfdd17 	ldw	r2,-140(fp)
 100c234:	00c00084 	movi	r3,2
 100c238:	10c00215 	stw	r3,8(r2)
 100c23c:	00027206 	br	100cc08 <sls_avalon_usb20_irq+0x2e20>
 100c240:	e13fd817 	ldw	r4,-160(fp)
 100c244:	01402004 	movi	r5,128
 100c248:	1008f200 	call	1008f20 <USB_SetStallEP>
 100c24c:	e0bfdd17 	ldw	r2,-140(fp)
 100c250:	00c00084 	movi	r3,2
 100c254:	10c00215 	stw	r3,8(r2)
 100c258:	00026b06 	br	100cc08 <sls_avalon_usb20_irq+0x2e20>
 100c25c:	e0bff717 	ldw	r2,-36(fp)
 100c260:	10801304 	addi	r2,r2,76
 100c264:	0007883a 	mov	r3,zero
 100c268:	10c00035 	stwio	r3,0(r2)
 100c26c:	00026606 	br	100cc08 <sls_avalon_usb20_irq+0x2e20>
 100c270:	e03fef15 	stw	zero,-68(fp)
 100c274:	e03fe815 	stw	zero,-96(fp)
 100c278:	e0bfd817 	ldw	r2,-160(fp)
 100c27c:	10802817 	ldw	r2,160(r2)
 100c280:	1000071e 	bne	r2,zero,100c2a0 <sls_avalon_usb20_irq+0x24b8>
 100c284:	e13fd817 	ldw	r4,-160(fp)
 100c288:	01402004 	movi	r5,128
 100c28c:	1008f200 	call	1008f20 <USB_SetStallEP>
 100c290:	e0bfdd17 	ldw	r2,-140(fp)
 100c294:	00c00084 	movi	r3,2
 100c298:	10c00215 	stw	r3,8(r2)
 100c29c:	00025a06 	br	100cc08 <sls_avalon_usb20_irq+0x2e20>
 100c2a0:	e0bfd817 	ldw	r2,-160(fp)
 100c2a4:	10800c17 	ldw	r2,48(r2)
 100c2a8:	10800058 	cmpnei	r2,r2,1
 100c2ac:	1000071e 	bne	r2,zero,100c2cc <sls_avalon_usb20_irq+0x24e4>
 100c2b0:	e0bfd817 	ldw	r2,-160(fp)
 100c2b4:	10800417 	ldw	r2,16(r2)
 100c2b8:	e0bfd715 	stw	r2,-164(fp)
 100c2bc:	e0bfd817 	ldw	r2,-160(fp)
 100c2c0:	10802f17 	ldw	r2,188(r2)
 100c2c4:	e0bfeb15 	stw	r2,-84(fp)
 100c2c8:	00001406 	br	100c31c <sls_avalon_usb20_irq+0x2534>
 100c2cc:	e0bfd817 	ldw	r2,-160(fp)
 100c2d0:	10800c17 	ldw	r2,48(r2)
 100c2d4:	1000071e 	bne	r2,zero,100c2f4 <sls_avalon_usb20_irq+0x250c>
 100c2d8:	e0bfd817 	ldw	r2,-160(fp)
 100c2dc:	10800517 	ldw	r2,20(r2)
 100c2e0:	e0bfd715 	stw	r2,-164(fp)
 100c2e4:	e0bfd817 	ldw	r2,-160(fp)
 100c2e8:	10803017 	ldw	r2,192(r2)
 100c2ec:	e0bfeb15 	stw	r2,-84(fp)
 100c2f0:	00000a06 	br	100c31c <sls_avalon_usb20_irq+0x2534>
 100c2f4:	e0bfd817 	ldw	r2,-160(fp)
 100c2f8:	10800c17 	ldw	r2,48(r2)
 100c2fc:	10800098 	cmpnei	r2,r2,2
 100c300:	1000061e 	bne	r2,zero,100c31c <sls_avalon_usb20_irq+0x2534>
 100c304:	e0bfd817 	ldw	r2,-160(fp)
 100c308:	10800617 	ldw	r2,24(r2)
 100c30c:	e0bfd715 	stw	r2,-164(fp)
 100c310:	e0bfd817 	ldw	r2,-160(fp)
 100c314:	10803117 	ldw	r2,196(r2)
 100c318:	e0bfeb15 	stw	r2,-84(fp)
 100c31c:	e03fea15 	stw	zero,-88(fp)
 100c320:	e0bfd717 	ldw	r2,-164(fp)
 100c324:	10800043 	ldbu	r2,1(r2)
 100c328:	10803fcc 	andi	r2,r2,255
 100c32c:	1080201c 	xori	r2,r2,128
 100c330:	10bfe004 	addi	r2,r2,-128
 100c334:	10c00120 	cmpeqi	r3,r2,4
 100c338:	18001f1e 	bne	r3,zero,100c3b8 <sls_avalon_usb20_irq+0x25d0>
 100c33c:	10c00160 	cmpeqi	r3,r2,5
 100c340:	18003f1e 	bne	r3,zero,100c440 <sls_avalon_usb20_irq+0x2658>
 100c344:	108000a0 	cmpeqi	r2,r2,2
 100c348:	10008d26 	beq	r2,zero,100c580 <sls_avalon_usb20_irq+0x2798>
 100c34c:	e0bfd717 	ldw	r2,-164(fp)
 100c350:	10800143 	ldbu	r2,5(r2)
 100c354:	10803fcc 	andi	r2,r2,255
 100c358:	e0bfec15 	stw	r2,-80(fp)
 100c35c:	e0bfd817 	ldw	r2,-160(fp)
 100c360:	10c02817 	ldw	r3,160(r2)
 100c364:	e0bfec17 	ldw	r2,-80(fp)
 100c368:	18801226 	beq	r3,r2,100c3b4 <sls_avalon_usb20_irq+0x25cc>
 100c36c:	e0bfd717 	ldw	r2,-164(fp)
 100c370:	10c00083 	ldbu	r3,2(r2)
 100c374:	108000c3 	ldbu	r2,3(r2)
 100c378:	1004923a 	slli	r2,r2,8
 100c37c:	10c4b03a 	or	r2,r2,r3
 100c380:	10bfffcc 	andi	r2,r2,65535
 100c384:	e0bfec15 	stw	r2,-80(fp)
 100c388:	e0ffec17 	ldw	r3,-80(fp)
 100c38c:	e0bfea17 	ldw	r2,-88(fp)
 100c390:	1885883a 	add	r2,r3,r2
 100c394:	e0bfea15 	stw	r2,-88(fp)
 100c398:	e0ffd717 	ldw	r3,-164(fp)
 100c39c:	e0bfec17 	ldw	r2,-80(fp)
 100c3a0:	1885883a 	add	r2,r3,r2
 100c3a4:	e0bfe715 	stw	r2,-100(fp)
 100c3a8:	e0bfe717 	ldw	r2,-100(fp)
 100c3ac:	e0bfd715 	stw	r2,-164(fp)
 100c3b0:	00009506 	br	100c608 <sls_avalon_usb20_irq+0x2820>
 100c3b4:	00007206 	br	100c580 <sls_avalon_usb20_irq+0x2798>
 100c3b8:	e0bfd717 	ldw	r2,-164(fp)
 100c3bc:	10800083 	ldbu	r2,2(r2)
 100c3c0:	10803fcc 	andi	r2,r2,255
 100c3c4:	e0bfef15 	stw	r2,-68(fp)
 100c3c8:	e0bfd717 	ldw	r2,-164(fp)
 100c3cc:	108000c3 	ldbu	r2,3(r2)
 100c3d0:	10803fcc 	andi	r2,r2,255
 100c3d4:	e0bfe815 	stw	r2,-96(fp)
 100c3d8:	e03ff115 	stw	zero,-60(fp)
 100c3dc:	e0ffd98b 	ldhu	r3,-154(fp)
 100c3e0:	e0bfef17 	ldw	r2,-68(fp)
 100c3e4:	1880151e 	bne	r3,r2,100c43c <sls_avalon_usb20_irq+0x2654>
 100c3e8:	e0bfd90b 	ldhu	r2,-156(fp)
 100c3ec:	10c03fcc 	andi	r3,r2,255
 100c3f0:	e0bfe817 	ldw	r2,-96(fp)
 100c3f4:	1880111e 	bne	r3,r2,100c43c <sls_avalon_usb20_irq+0x2654>
 100c3f8:	00800044 	movi	r2,1
 100c3fc:	e0bfe345 	stb	r2,-115(fp)
 100c400:	e0bfef17 	ldw	r2,-68(fp)
 100c404:	e0ffd817 	ldw	r3,-160(fp)
 100c408:	1885883a 	add	r2,r3,r2
 100c40c:	10803504 	addi	r2,r2,212
 100c410:	10800003 	ldbu	r2,0(r2)
 100c414:	10803fcc 	andi	r2,r2,255
 100c418:	e0bff015 	stw	r2,-64(fp)
 100c41c:	e0bfef17 	ldw	r2,-68(fp)
 100c420:	e0ffe817 	ldw	r3,-96(fp)
 100c424:	1809883a 	mov	r4,r3
 100c428:	e0ffd817 	ldw	r3,-160(fp)
 100c42c:	1885883a 	add	r2,r3,r2
 100c430:	10803504 	addi	r2,r2,212
 100c434:	11000005 	stb	r4,0(r2)
 100c438:	00005106 	br	100c580 <sls_avalon_usb20_irq+0x2798>
 100c43c:	00005006 	br	100c580 <sls_avalon_usb20_irq+0x2798>
 100c440:	e0bfd717 	ldw	r2,-164(fp)
 100c444:	10800083 	ldbu	r2,2(r2)
 100c448:	10803fcc 	andi	r2,r2,255
 100c44c:	e0bfec15 	stw	r2,-80(fp)
 100c450:	e0bfd98b 	ldhu	r2,-154(fp)
 100c454:	10c03fcc 	andi	r3,r2,255
 100c458:	e0bfef17 	ldw	r2,-68(fp)
 100c45c:	1880471e 	bne	r3,r2,100c57c <sls_avalon_usb20_irq+0x2794>
 100c460:	e0bfec17 	ldw	r2,-80(fp)
 100c464:	108023cc 	andi	r2,r2,143
 100c468:	e0bfe615 	stw	r2,-104(fp)
 100c46c:	e0bfe617 	ldw	r2,-104(fp)
 100c470:	1080200c 	andi	r2,r2,128
 100c474:	10000526 	beq	r2,zero,100c48c <sls_avalon_usb20_irq+0x26a4>
 100c478:	e0bfe617 	ldw	r2,-104(fp)
 100c47c:	108003cc 	andi	r2,r2,15
 100c480:	00e00014 	movui	r3,32768
 100c484:	1884983a 	sll	r2,r3,r2
 100c488:	00000506 	br	100c4a0 <sls_avalon_usb20_irq+0x26b8>
 100c48c:	e0bfe617 	ldw	r2,-104(fp)
 100c490:	10bfffc4 	addi	r2,r2,-1
 100c494:	1007883a 	mov	r3,r2
 100c498:	00800044 	movi	r2,1
 100c49c:	10c4983a 	sll	r2,r2,r3
 100c4a0:	e0bfe515 	stw	r2,-108(fp)
 100c4a4:	e0bfd90b 	ldhu	r2,-156(fp)
 100c4a8:	10c03fcc 	andi	r3,r2,255
 100c4ac:	e0bfe817 	ldw	r2,-96(fp)
 100c4b0:	1880171e 	bne	r3,r2,100c510 <sls_avalon_usb20_irq+0x2728>
 100c4b4:	e0bfe517 	ldw	r2,-108(fp)
 100c4b8:	e0ffd817 	ldw	r3,-160(fp)
 100c4bc:	18c02c17 	ldw	r3,176(r3)
 100c4c0:	1886b03a 	or	r3,r3,r2
 100c4c4:	e0bfd817 	ldw	r2,-160(fp)
 100c4c8:	10c02c15 	stw	r3,176(r2)
 100c4cc:	e0bfe517 	ldw	r2,-108(fp)
 100c4d0:	0084303a 	nor	r2,zero,r2
 100c4d4:	e0ffd817 	ldw	r3,-160(fp)
 100c4d8:	18c02d17 	ldw	r3,180(r3)
 100c4dc:	1886703a 	and	r3,r3,r2
 100c4e0:	e0bfd817 	ldw	r2,-160(fp)
 100c4e4:	10c02d15 	stw	r3,180(r2)
 100c4e8:	e0bfe617 	ldw	r2,-104(fp)
 100c4ec:	108003cc 	andi	r2,r2,15
 100c4f0:	e13fd817 	ldw	r4,-160(fp)
 100c4f4:	100b883a 	mov	r5,r2
 100c4f8:	100926c0 	call	100926c <USB_EnableEP>
 100c4fc:	e0ffe517 	ldw	r3,-108(fp)
 100c500:	e0bff117 	ldw	r2,-60(fp)
 100c504:	1884b03a 	or	r2,r3,r2
 100c508:	e0bff115 	stw	r2,-60(fp)
 100c50c:	00001b06 	br	100c57c <sls_avalon_usb20_irq+0x2794>
 100c510:	e0ffe817 	ldw	r3,-96(fp)
 100c514:	e0bff017 	ldw	r2,-64(fp)
 100c518:	1880181e 	bne	r3,r2,100c57c <sls_avalon_usb20_irq+0x2794>
 100c51c:	e0fff117 	ldw	r3,-60(fp)
 100c520:	e0bfe517 	ldw	r2,-108(fp)
 100c524:	1884703a 	and	r2,r3,r2
 100c528:	1000141e 	bne	r2,zero,100c57c <sls_avalon_usb20_irq+0x2794>
 100c52c:	e0bfe517 	ldw	r2,-108(fp)
 100c530:	0084303a 	nor	r2,zero,r2
 100c534:	e0ffd817 	ldw	r3,-160(fp)
 100c538:	18c02c17 	ldw	r3,176(r3)
 100c53c:	1886703a 	and	r3,r3,r2
 100c540:	e0bfd817 	ldw	r2,-160(fp)
 100c544:	10c02c15 	stw	r3,176(r2)
 100c548:	e0bfe517 	ldw	r2,-108(fp)
 100c54c:	0084303a 	nor	r2,zero,r2
 100c550:	e0ffd817 	ldw	r3,-160(fp)
 100c554:	18c02d17 	ldw	r3,180(r3)
 100c558:	1886703a 	and	r3,r3,r2
 100c55c:	e0bfd817 	ldw	r2,-160(fp)
 100c560:	10c02d15 	stw	r3,180(r2)
 100c564:	e0bfe617 	ldw	r2,-104(fp)
 100c568:	108003cc 	andi	r2,r2,15
 100c56c:	e13fd817 	ldw	r4,-160(fp)
 100c570:	100b883a 	mov	r5,r2
 100c574:	1009bd00 	call	1009bd0 <USB_DisableEP>
 100c578:	00000006 	br	100c57c <sls_avalon_usb20_irq+0x2794>
 100c57c:	0001883a 	nop
 100c580:	e0bfd717 	ldw	r2,-164(fp)
 100c584:	10800003 	ldbu	r2,0(r2)
 100c588:	10803fcc 	andi	r2,r2,255
 100c58c:	1080201c 	xori	r2,r2,128
 100c590:	10bfe004 	addi	r2,r2,-128
 100c594:	e0bfec15 	stw	r2,-80(fp)
 100c598:	e0ffec17 	ldw	r3,-80(fp)
 100c59c:	e0bfea17 	ldw	r2,-88(fp)
 100c5a0:	1885883a 	add	r2,r3,r2
 100c5a4:	e0bfea15 	stw	r2,-88(fp)
 100c5a8:	e0ffd717 	ldw	r3,-164(fp)
 100c5ac:	e0bfec17 	ldw	r2,-80(fp)
 100c5b0:	1885883a 	add	r2,r3,r2
 100c5b4:	e0bfe715 	stw	r2,-100(fp)
 100c5b8:	e0bfe717 	ldw	r2,-100(fp)
 100c5bc:	e0bfd715 	stw	r2,-164(fp)
 100c5c0:	e0ffea17 	ldw	r3,-88(fp)
 100c5c4:	e0bfeb17 	ldw	r2,-84(fp)
 100c5c8:	18800f36 	bltu	r3,r2,100c608 <sls_avalon_usb20_irq+0x2820>
 100c5cc:	0001883a 	nop
 100c5d0:	e0bff717 	ldw	r2,-36(fp)
 100c5d4:	10801304 	addi	r2,r2,76
 100c5d8:	0007883a 	mov	r3,zero
 100c5dc:	10c00035 	stwio	r3,0(r2)
 100c5e0:	e0bfdc17 	ldw	r2,-144(fp)
 100c5e4:	10800083 	ldbu	r2,2(r2)
 100c5e8:	10c03fcc 	andi	r3,r2,255
 100c5ec:	e0bfd817 	ldw	r2,-160(fp)
 100c5f0:	10c02a15 	stw	r3,168(r2)
 100c5f4:	e0bfd90b 	ldhu	r2,-156(fp)
 100c5f8:	10c03fcc 	andi	r3,r2,255
 100c5fc:	e0bfd817 	ldw	r2,-160(fp)
 100c600:	10c02b15 	stw	r3,172(r2)
 100c604:	00018006 	br	100cc08 <sls_avalon_usb20_irq+0x2e20>
 100c608:	003f4506 	br	100c320 <__alt_data_end+0xfffebb20>
 100c60c:	e0bff517 	ldw	r2,-44(fp)
 100c610:	10800060 	cmpeqi	r2,r2,1
 100c614:	1000071e 	bne	r2,zero,100c634 <sls_avalon_usb20_irq+0x284c>
 100c618:	e13fd817 	ldw	r4,-160(fp)
 100c61c:	01402004 	movi	r5,128
 100c620:	1008f200 	call	1008f20 <USB_SetStallEP>
 100c624:	e0bfdd17 	ldw	r2,-140(fp)
 100c628:	00c00084 	movi	r3,2
 100c62c:	10c00215 	stw	r3,8(r2)
 100c630:	00017506 	br	100cc08 <sls_avalon_usb20_irq+0x2e20>
 100c634:	e0bfd817 	ldw	r2,-160(fp)
 100c638:	10802817 	ldw	r2,160(r2)
 100c63c:	10001626 	beq	r2,zero,100c698 <sls_avalon_usb20_irq+0x28b0>
 100c640:	e0ffd98b 	ldhu	r3,-154(fp)
 100c644:	e0bfd817 	ldw	r2,-160(fp)
 100c648:	10802e17 	ldw	r2,184(r2)
 100c64c:	1880122e 	bgeu	r3,r2,100c698 <sls_avalon_usb20_irq+0x28b0>
 100c650:	e0bff717 	ldw	r2,-36(fp)
 100c654:	1007883a 	mov	r3,r2
 100c658:	008000b4 	movhi	r2,2
 100c65c:	1885883a 	add	r2,r3,r2
 100c660:	1009883a 	mov	r4,r2
 100c664:	e0bfd98b 	ldhu	r2,-154(fp)
 100c668:	e0ffd817 	ldw	r3,-160(fp)
 100c66c:	1885883a 	add	r2,r3,r2
 100c670:	10803504 	addi	r2,r2,212
 100c674:	10800003 	ldbu	r2,0(r2)
 100c678:	10803fcc 	andi	r2,r2,255
 100c67c:	20800025 	stbio	r2,0(r4)
 100c680:	e0bff717 	ldw	r2,-36(fp)
 100c684:	10801304 	addi	r2,r2,76
 100c688:	1007883a 	mov	r3,r2
 100c68c:	008000b4 	movhi	r2,2
 100c690:	18800035 	stwio	r2,0(r3)
 100c694:	00015c06 	br	100cc08 <sls_avalon_usb20_irq+0x2e20>
 100c698:	e13fd817 	ldw	r4,-160(fp)
 100c69c:	01402004 	movi	r5,128
 100c6a0:	1008f200 	call	1008f20 <USB_SetStallEP>
 100c6a4:	e0bfdd17 	ldw	r2,-140(fp)
 100c6a8:	00c00084 	movi	r3,2
 100c6ac:	10c00215 	stw	r3,8(r2)
 100c6b0:	00015506 	br	100cc08 <sls_avalon_usb20_irq+0x2e20>
 100c6b4:	e0bfdd17 	ldw	r2,-140(fp)
 100c6b8:	10800317 	ldw	r2,12(r2)
 100c6bc:	10800098 	cmpnei	r2,r2,2
 100c6c0:	1000411e 	bne	r2,zero,100c7c8 <sls_avalon_usb20_irq+0x29e0>
 100c6c4:	e0bfdd17 	ldw	r2,-140(fp)
 100c6c8:	10000015 	stw	zero,0(r2)
 100c6cc:	e0bfdd17 	ldw	r2,-140(fp)
 100c6d0:	00c00084 	movi	r3,2
 100c6d4:	10c00215 	stw	r3,8(r2)
 100c6d8:	e0bfdd17 	ldw	r2,-140(fp)
 100c6dc:	10000515 	stw	zero,20(r2)
 100c6e0:	e0bfd817 	ldw	r2,-160(fp)
 100c6e4:	10803d17 	ldw	r2,244(r2)
 100c6e8:	10000b26 	beq	r2,zero,100c718 <sls_avalon_usb20_irq+0x2930>
 100c6ec:	e0bfd817 	ldw	r2,-160(fp)
 100c6f0:	10803d17 	ldw	r2,244(r2)
 100c6f4:	e0fff717 	ldw	r3,-36(fp)
 100c6f8:	e13fdd17 	ldw	r4,-140(fp)
 100c6fc:	180b883a 	mov	r5,r3
 100c700:	000d883a 	mov	r6,zero
 100c704:	103ee83a 	callr	r2
 100c708:	e0bfdd17 	ldw	r2,-140(fp)
 100c70c:	10800517 	ldw	r2,20(r2)
 100c710:	10000d1e 	bne	r2,zero,100c748 <sls_avalon_usb20_irq+0x2960>
 100c714:	00000706 	br	100c734 <sls_avalon_usb20_irq+0x294c>
 100c718:	e13fd817 	ldw	r4,-160(fp)
 100c71c:	01402004 	movi	r5,128
 100c720:	1008f200 	call	1008f20 <USB_SetStallEP>
 100c724:	e0bfdd17 	ldw	r2,-140(fp)
 100c728:	00c00084 	movi	r3,2
 100c72c:	10c00215 	stw	r3,8(r2)
 100c730:	00013506 	br	100cc08 <sls_avalon_usb20_irq+0x2e20>
 100c734:	e0bff717 	ldw	r2,-36(fp)
 100c738:	10801304 	addi	r2,r2,76
 100c73c:	0007883a 	mov	r3,zero
 100c740:	10c00035 	stwio	r3,0(r2)
 100c744:	00013006 	br	100cc08 <sls_avalon_usb20_irq+0x2e20>
 100c748:	e03fed15 	stw	zero,-76(fp)
 100c74c:	00001206 	br	100c798 <sls_avalon_usb20_irq+0x29b0>
 100c750:	e0bfed17 	ldw	r2,-76(fp)
 100c754:	e0fff717 	ldw	r3,-36(fp)
 100c758:	10c7883a 	add	r3,r2,r3
 100c75c:	008000b4 	movhi	r2,2
 100c760:	1885883a 	add	r2,r3,r2
 100c764:	1009883a 	mov	r4,r2
 100c768:	e0bfdd17 	ldw	r2,-140(fp)
 100c76c:	10c00017 	ldw	r3,0(r2)
 100c770:	e0bfed17 	ldw	r2,-76(fp)
 100c774:	1885883a 	add	r2,r3,r2
 100c778:	10800003 	ldbu	r2,0(r2)
 100c77c:	10803fcc 	andi	r2,r2,255
 100c780:	1080201c 	xori	r2,r2,128
 100c784:	10bfe004 	addi	r2,r2,-128
 100c788:	20800025 	stbio	r2,0(r4)
 100c78c:	e0bfed17 	ldw	r2,-76(fp)
 100c790:	10800044 	addi	r2,r2,1
 100c794:	e0bfed15 	stw	r2,-76(fp)
 100c798:	e0bfdd17 	ldw	r2,-140(fp)
 100c79c:	10800517 	ldw	r2,20(r2)
 100c7a0:	e0ffed17 	ldw	r3,-76(fp)
 100c7a4:	18bfea36 	bltu	r3,r2,100c750 <__alt_data_end+0xfffebf50>
 100c7a8:	e0bff717 	ldw	r2,-36(fp)
 100c7ac:	10801304 	addi	r2,r2,76
 100c7b0:	1007883a 	mov	r3,r2
 100c7b4:	e0bfdd17 	ldw	r2,-140(fp)
 100c7b8:	10800517 	ldw	r2,20(r2)
 100c7bc:	1004947a 	slli	r2,r2,17
 100c7c0:	18800035 	stwio	r2,0(r3)
 100c7c4:	00011006 	br	100cc08 <sls_avalon_usb20_irq+0x2e20>
 100c7c8:	e0bfdd17 	ldw	r2,-140(fp)
 100c7cc:	10800317 	ldw	r2,12(r2)
 100c7d0:	10800058 	cmpnei	r2,r2,1
 100c7d4:	1000601e 	bne	r2,zero,100c958 <sls_avalon_usb20_irq+0x2b70>
 100c7d8:	e0bfdd17 	ldw	r2,-140(fp)
 100c7dc:	10000115 	stw	zero,4(r2)
 100c7e0:	e0bfdd17 	ldw	r2,-140(fp)
 100c7e4:	10800417 	ldw	r2,16(r2)
 100c7e8:	1000141e 	bne	r2,zero,100c83c <sls_avalon_usb20_irq+0x2a54>
 100c7ec:	e0bfd817 	ldw	r2,-160(fp)
 100c7f0:	10003415 	stw	zero,208(r2)
 100c7f4:	e0bfd817 	ldw	r2,-160(fp)
 100c7f8:	10803d17 	ldw	r2,244(r2)
 100c7fc:	10000826 	beq	r2,zero,100c820 <sls_avalon_usb20_irq+0x2a38>
 100c800:	e0bfd817 	ldw	r2,-160(fp)
 100c804:	10803d17 	ldw	r2,244(r2)
 100c808:	e0fff717 	ldw	r3,-36(fp)
 100c80c:	e13fdd17 	ldw	r4,-140(fp)
 100c810:	180b883a 	mov	r5,r3
 100c814:	01800084 	movi	r6,2
 100c818:	103ee83a 	callr	r2
 100c81c:	00000706 	br	100c83c <sls_avalon_usb20_irq+0x2a54>
 100c820:	e13fd817 	ldw	r4,-160(fp)
 100c824:	01402004 	movi	r5,128
 100c828:	1008f200 	call	1008f20 <USB_SetStallEP>
 100c82c:	e0bfdd17 	ldw	r2,-140(fp)
 100c830:	00c00084 	movi	r3,2
 100c834:	10c00215 	stw	r3,8(r2)
 100c838:	0000f306 	br	100cc08 <sls_avalon_usb20_irq+0x2e20>
 100c83c:	e0bfdd17 	ldw	r2,-140(fp)
 100c840:	10800417 	ldw	r2,16(r2)
 100c844:	1000071e 	bne	r2,zero,100c864 <sls_avalon_usb20_irq+0x2a7c>
 100c848:	e0bfdd17 	ldw	r2,-140(fp)
 100c84c:	10000215 	stw	zero,8(r2)
 100c850:	e0bff717 	ldw	r2,-36(fp)
 100c854:	10801304 	addi	r2,r2,76
 100c858:	0007883a 	mov	r3,zero
 100c85c:	10c00035 	stwio	r3,0(r2)
 100c860:	0000e906 	br	100cc08 <sls_avalon_usb20_irq+0x2e20>
 100c864:	e03fec15 	stw	zero,-80(fp)
 100c868:	e0bfd817 	ldw	r2,-160(fp)
 100c86c:	10803417 	ldw	r2,208(r2)
 100c870:	e0bfe615 	stw	r2,-104(fp)
 100c874:	e0bfd817 	ldw	r2,-160(fp)
 100c878:	10c03417 	ldw	r3,208(r2)
 100c87c:	e0bfdd17 	ldw	r2,-140(fp)
 100c880:	10800417 	ldw	r2,16(r2)
 100c884:	1880252e 	bgeu	r3,r2,100c91c <sls_avalon_usb20_irq+0x2b34>
 100c888:	e0bfdd17 	ldw	r2,-140(fp)
 100c88c:	10c00417 	ldw	r3,16(r2)
 100c890:	e0bfd817 	ldw	r2,-160(fp)
 100c894:	10803417 	ldw	r2,208(r2)
 100c898:	1885c83a 	sub	r2,r3,r2
 100c89c:	e0bfec15 	stw	r2,-80(fp)
 100c8a0:	e0bff617 	ldw	r2,-40(fp)
 100c8a4:	1007883a 	mov	r3,r2
 100c8a8:	e0bfec17 	ldw	r2,-80(fp)
 100c8ac:	1880022e 	bgeu	r3,r2,100c8b8 <sls_avalon_usb20_irq+0x2ad0>
 100c8b0:	e0bff617 	ldw	r2,-40(fp)
 100c8b4:	e0bfec15 	stw	r2,-80(fp)
 100c8b8:	e03fed15 	stw	zero,-76(fp)
 100c8bc:	00001406 	br	100c910 <sls_avalon_usb20_irq+0x2b28>
 100c8c0:	e0bfed17 	ldw	r2,-76(fp)
 100c8c4:	e0fff717 	ldw	r3,-36(fp)
 100c8c8:	10c7883a 	add	r3,r2,r3
 100c8cc:	008000b4 	movhi	r2,2
 100c8d0:	1885883a 	add	r2,r3,r2
 100c8d4:	100b883a 	mov	r5,r2
 100c8d8:	e0bfdd17 	ldw	r2,-140(fp)
 100c8dc:	10c00117 	ldw	r3,4(r2)
 100c8e0:	e13fed17 	ldw	r4,-76(fp)
 100c8e4:	e0bfe617 	ldw	r2,-104(fp)
 100c8e8:	2085883a 	add	r2,r4,r2
 100c8ec:	1885883a 	add	r2,r3,r2
 100c8f0:	10800003 	ldbu	r2,0(r2)
 100c8f4:	10803fcc 	andi	r2,r2,255
 100c8f8:	1080201c 	xori	r2,r2,128
 100c8fc:	10bfe004 	addi	r2,r2,-128
 100c900:	28800025 	stbio	r2,0(r5)
 100c904:	e0bfed17 	ldw	r2,-76(fp)
 100c908:	10800044 	addi	r2,r2,1
 100c90c:	e0bfed15 	stw	r2,-76(fp)
 100c910:	e0ffed17 	ldw	r3,-76(fp)
 100c914:	e0bfec17 	ldw	r2,-80(fp)
 100c918:	18bfe936 	bltu	r3,r2,100c8c0 <__alt_data_end+0xfffec0c0>
 100c91c:	e0bff717 	ldw	r2,-36(fp)
 100c920:	10801304 	addi	r2,r2,76
 100c924:	1007883a 	mov	r3,r2
 100c928:	e0bfec17 	ldw	r2,-80(fp)
 100c92c:	1004947a 	slli	r2,r2,17
 100c930:	18800035 	stwio	r2,0(r3)
 100c934:	e0bfec17 	ldw	r2,-80(fp)
 100c938:	e0ffd817 	ldw	r3,-160(fp)
 100c93c:	18c03417 	ldw	r3,208(r3)
 100c940:	1887883a 	add	r3,r3,r2
 100c944:	e0bfd817 	ldw	r2,-160(fp)
 100c948:	10c03415 	stw	r3,208(r2)
 100c94c:	e0bfdd17 	ldw	r2,-140(fp)
 100c950:	10000215 	stw	zero,8(r2)
 100c954:	0000ac06 	br	100cc08 <sls_avalon_usb20_irq+0x2e20>
 100c958:	e0bfdd17 	ldw	r2,-140(fp)
 100c95c:	10800317 	ldw	r2,12(r2)
 100c960:	10001b1e 	bne	r2,zero,100c9d0 <sls_avalon_usb20_irq+0x2be8>
 100c964:	e0bfdd17 	ldw	r2,-140(fp)
 100c968:	10000115 	stw	zero,4(r2)
 100c96c:	e0bfd817 	ldw	r2,-160(fp)
 100c970:	10803d17 	ldw	r2,244(r2)
 100c974:	10000726 	beq	r2,zero,100c994 <sls_avalon_usb20_irq+0x2bac>
 100c978:	e0bfd817 	ldw	r2,-160(fp)
 100c97c:	10803d17 	ldw	r2,244(r2)
 100c980:	e0fff717 	ldw	r3,-36(fp)
 100c984:	e13fdd17 	ldw	r4,-140(fp)
 100c988:	180b883a 	mov	r5,r3
 100c98c:	018000c4 	movi	r6,3
 100c990:	103ee83a 	callr	r2
 100c994:	e0bfdd17 	ldw	r2,-140(fp)
 100c998:	10000415 	stw	zero,16(r2)
 100c99c:	e0bff717 	ldw	r2,-36(fp)
 100c9a0:	10801204 	addi	r2,r2,72
 100c9a4:	10800037 	ldwio	r2,0(r2)
 100c9a8:	e0bfec15 	stw	r2,-80(fp)
 100c9ac:	e0bfec17 	ldw	r2,-80(fp)
 100c9b0:	1000070e 	bge	r2,zero,100c9d0 <sls_avalon_usb20_irq+0x2be8>
 100c9b4:	e0bff717 	ldw	r2,-36(fp)
 100c9b8:	10801204 	addi	r2,r2,72
 100c9bc:	1007883a 	mov	r3,r2
 100c9c0:	e0bff617 	ldw	r2,-40(fp)
 100c9c4:	1004947a 	slli	r2,r2,17
 100c9c8:	18800035 	stwio	r2,0(r3)
 100c9cc:	00008e06 	br	100cc08 <sls_avalon_usb20_irq+0x2e20>
 100c9d0:	e0bfee17 	ldw	r2,-72(fp)
 100c9d4:	10bfff8c 	andi	r2,r2,65534
 100c9d8:	108000b0 	cmpltui	r2,r2,2
 100c9dc:	1000341e 	bne	r2,zero,100cab0 <sls_avalon_usb20_irq+0x2cc8>
 100c9e0:	e03ffd15 	stw	zero,-12(fp)
 100c9e4:	00800044 	movi	r2,1
 100c9e8:	e0bfe415 	stw	r2,-112(fp)
 100c9ec:	00002d06 	br	100caa4 <sls_avalon_usb20_irq+0x2cbc>
 100c9f0:	e0bfee17 	ldw	r2,-72(fp)
 100c9f4:	10bfff8c 	andi	r2,r2,65534
 100c9f8:	e0ffe417 	ldw	r3,-112(fp)
 100c9fc:	10c4d83a 	srl	r2,r2,r3
 100ca00:	10800058 	cmpnei	r2,r2,1
 100ca04:	1000241e 	bne	r2,zero,100ca98 <sls_avalon_usb20_irq+0x2cb0>
 100ca08:	e0bfe417 	ldw	r2,-112(fp)
 100ca0c:	e0bffd15 	stw	r2,-12(fp)
 100ca10:	e0bffd17 	ldw	r2,-12(fp)
 100ca14:	1004913a 	slli	r2,r2,4
 100ca18:	e0fff717 	ldw	r3,-36(fp)
 100ca1c:	10c5883a 	add	r2,r2,r3
 100ca20:	10801104 	addi	r2,r2,68
 100ca24:	10800037 	ldwio	r2,0(r2)
 100ca28:	10803fcc 	andi	r2,r2,255
 100ca2c:	e0bfe915 	stw	r2,-92(fp)
 100ca30:	e0bfe917 	ldw	r2,-92(fp)
 100ca34:	108029cc 	andi	r2,r2,167
 100ca38:	10001726 	beq	r2,zero,100ca98 <sls_avalon_usb20_irq+0x2cb0>
 100ca3c:	e0bffd17 	ldw	r2,-12(fp)
 100ca40:	10800104 	addi	r2,r2,4
 100ca44:	1004913a 	slli	r2,r2,4
 100ca48:	e0fff717 	ldw	r3,-36(fp)
 100ca4c:	10c5883a 	add	r2,r2,r3
 100ca50:	10800037 	ldwio	r2,0(r2)
 100ca54:	1083002c 	andhi	r2,r2,3072
 100ca58:	1004913a 	slli	r2,r2,4
 100ca5c:	e0bfe215 	stw	r2,-120(fp)
 100ca60:	e0bfd817 	ldw	r2,-160(fp)
 100ca64:	10803c17 	ldw	r2,240(r2)
 100ca68:	10000b26 	beq	r2,zero,100ca98 <sls_avalon_usb20_irq+0x2cb0>
 100ca6c:	e0bfd817 	ldw	r2,-160(fp)
 100ca70:	10803c17 	ldw	r2,240(r2)
 100ca74:	e0ffe917 	ldw	r3,-92(fp)
 100ca78:	190029cc 	andi	r4,r3,167
 100ca7c:	e0ffe217 	ldw	r3,-120(fp)
 100ca80:	20c8b03a 	or	r4,r4,r3
 100ca84:	e0fffd17 	ldw	r3,-12(fp)
 100ca88:	1806963a 	slli	r3,r3,24
 100ca8c:	20c6b03a 	or	r3,r4,r3
 100ca90:	1809883a 	mov	r4,r3
 100ca94:	103ee83a 	callr	r2
 100ca98:	e0bfe417 	ldw	r2,-112(fp)
 100ca9c:	10800044 	addi	r2,r2,1
 100caa0:	e0bfe415 	stw	r2,-112(fp)
 100caa4:	e0bfe417 	ldw	r2,-112(fp)
 100caa8:	10800430 	cmpltui	r2,r2,16
 100caac:	103fd01e 	bne	r2,zero,100c9f0 <__alt_data_end+0xfffec1f0>
 100cab0:	e0bfee17 	ldw	r2,-72(fp)
 100cab4:	10821c2c 	andhi	r2,r2,2160
 100cab8:	10000f26 	beq	r2,zero,100caf8 <sls_avalon_usb20_irq+0x2d10>
 100cabc:	e0bfdd17 	ldw	r2,-140(fp)
 100cac0:	00c00084 	movi	r3,2
 100cac4:	10c00215 	stw	r3,8(r2)
 100cac8:	e0bfd817 	ldw	r2,-160(fp)
 100cacc:	10803c17 	ldw	r2,240(r2)
 100cad0:	10000926 	beq	r2,zero,100caf8 <sls_avalon_usb20_irq+0x2d10>
 100cad4:	e0bfee17 	ldw	r2,-72(fp)
 100cad8:	10821c2c 	andhi	r2,r2,2160
 100cadc:	e0bffe15 	stw	r2,-8(fp)
 100cae0:	e0bfd817 	ldw	r2,-160(fp)
 100cae4:	10803c17 	ldw	r2,240(r2)
 100cae8:	e0fffe17 	ldw	r3,-8(fp)
 100caec:	1807d33a 	srai	r3,r3,12
 100caf0:	1809883a 	mov	r4,r3
 100caf4:	103ee83a 	callr	r2
 100caf8:	e0bfee17 	ldw	r2,-72(fp)
 100cafc:	1080402c 	andhi	r2,r2,256
 100cb00:	10000a26 	beq	r2,zero,100cb2c <sls_avalon_usb20_irq+0x2d44>
 100cb04:	e0bfd817 	ldw	r2,-160(fp)
 100cb08:	10803917 	ldw	r2,228(r2)
 100cb0c:	10000426 	beq	r2,zero,100cb20 <sls_avalon_usb20_irq+0x2d38>
 100cb10:	e0bfd817 	ldw	r2,-160(fp)
 100cb14:	10803917 	ldw	r2,228(r2)
 100cb18:	e13fd817 	ldw	r4,-160(fp)
 100cb1c:	103ee83a 	callr	r2
 100cb20:	e0bfd817 	ldw	r2,-160(fp)
 100cb24:	00c00144 	movi	r3,5
 100cb28:	10c00f15 	stw	r3,60(r2)
 100cb2c:	e0bfee17 	ldw	r2,-72(fp)
 100cb30:	1080202c 	andhi	r2,r2,128
 100cb34:	10000a26 	beq	r2,zero,100cb60 <sls_avalon_usb20_irq+0x2d78>
 100cb38:	e0bfd817 	ldw	r2,-160(fp)
 100cb3c:	00c00104 	movi	r3,4
 100cb40:	10c00f15 	stw	r3,60(r2)
 100cb44:	e0bfd817 	ldw	r2,-160(fp)
 100cb48:	10803a17 	ldw	r2,232(r2)
 100cb4c:	10000426 	beq	r2,zero,100cb60 <sls_avalon_usb20_irq+0x2d78>
 100cb50:	e0bfd817 	ldw	r2,-160(fp)
 100cb54:	10803a17 	ldw	r2,232(r2)
 100cb58:	e13fd817 	ldw	r4,-160(fp)
 100cb5c:	103ee83a 	callr	r2
 100cb60:	e0bfee17 	ldw	r2,-72(fp)
 100cb64:	1081002c 	andhi	r2,r2,1024
 100cb68:	10001b26 	beq	r2,zero,100cbd8 <sls_avalon_usb20_irq+0x2df0>
 100cb6c:	e0bfd817 	ldw	r2,-160(fp)
 100cb70:	00c00044 	movi	r3,1
 100cb74:	10c00e15 	stw	r3,56(r2)
 100cb78:	e0bfd817 	ldw	r2,-160(fp)
 100cb7c:	1001bc45 	stb	zero,1777(r2)
 100cb80:	e0bfd817 	ldw	r2,-160(fp)
 100cb84:	1001bc05 	stb	zero,1776(r2)
 100cb88:	e0bfd817 	ldw	r2,-160(fp)
 100cb8c:	10803317 	ldw	r2,204(r2)
 100cb90:	1000031e 	bne	r2,zero,100cba0 <sls_avalon_usb20_irq+0x2db8>
 100cb94:	e0bfd817 	ldw	r2,-160(fp)
 100cb98:	00c00044 	movi	r3,1
 100cb9c:	10c03315 	stw	r3,204(r2)
 100cba0:	e0bfd817 	ldw	r2,-160(fp)
 100cba4:	10000f15 	stw	zero,60(r2)
 100cba8:	e0bfd817 	ldw	r2,-160(fp)
 100cbac:	10003215 	stw	zero,200(r2)
 100cbb0:	e0bfd817 	ldw	r2,-160(fp)
 100cbb4:	10803717 	ldw	r2,220(r2)
 100cbb8:	10000426 	beq	r2,zero,100cbcc <sls_avalon_usb20_irq+0x2de4>
 100cbbc:	e0bfd817 	ldw	r2,-160(fp)
 100cbc0:	10803717 	ldw	r2,220(r2)
 100cbc4:	e13fd817 	ldw	r4,-160(fp)
 100cbc8:	103ee83a 	callr	r2
 100cbcc:	e0bfdd17 	ldw	r2,-140(fp)
 100cbd0:	00c00084 	movi	r3,2
 100cbd4:	10c00215 	stw	r3,8(r2)
 100cbd8:	e0bfee17 	ldw	r2,-72(fp)
 100cbdc:	1080802c 	andhi	r2,r2,512
 100cbe0:	10000926 	beq	r2,zero,100cc08 <sls_avalon_usb20_irq+0x2e20>
 100cbe4:	e0bfd817 	ldw	r2,-160(fp)
 100cbe8:	10803617 	ldw	r2,216(r2)
 100cbec:	10000626 	beq	r2,zero,100cc08 <sls_avalon_usb20_irq+0x2e20>
 100cbf0:	e0bfd817 	ldw	r2,-160(fp)
 100cbf4:	10803617 	ldw	r2,216(r2)
 100cbf8:	e13fd817 	ldw	r4,-160(fp)
 100cbfc:	103ee83a 	callr	r2
 100cc00:	00000106 	br	100cc08 <sls_avalon_usb20_irq+0x2e20>
 100cc04:	0001883a 	nop
 100cc08:	e037883a 	mov	sp,fp
 100cc0c:	dfc00117 	ldw	ra,4(sp)
 100cc10:	df000017 	ldw	fp,0(sp)
 100cc14:	dec00204 	addi	sp,sp,8
 100cc18:	f800283a 	ret

0100cc1c <usb20sr_config>:
 100cc1c:	defff804 	addi	sp,sp,-32
 100cc20:	dfc00715 	stw	ra,28(sp)
 100cc24:	df000615 	stw	fp,24(sp)
 100cc28:	df000604 	addi	fp,sp,24
 100cc2c:	e13ffc15 	stw	r4,-16(fp)
 100cc30:	e17ffd15 	stw	r5,-12(fp)
 100cc34:	e1bffe15 	stw	r6,-8(fp)
 100cc38:	e1ffff15 	stw	r7,-4(fp)
 100cc3c:	e03ffb15 	stw	zero,-20(fp)
 100cc40:	e0bffe17 	ldw	r2,-8(fp)
 100cc44:	1009883a 	mov	r4,r2
 100cc48:	e17ffc17 	ldw	r5,-16(fp)
 100cc4c:	01804074 	movhi	r6,257
 100cc50:	31a77a04 	addi	r6,r6,-25112
 100cc54:	10113000 	call	1011300 <alt_irq_register>
 100cc58:	e0bffa15 	stw	r2,-24(fp)
 100cc5c:	e0bffa17 	ldw	r2,-24(fp)
 100cc60:	10003716 	blt	r2,zero,100cd40 <usb20sr_config+0x124>
 100cc64:	00800044 	movi	r2,1
 100cc68:	e0bffb15 	stw	r2,-20(fp)
 100cc6c:	e0bffc17 	ldw	r2,-16(fp)
 100cc70:	e0ffff17 	ldw	r3,-4(fp)
 100cc74:	10c00115 	stw	r3,4(r2)
 100cc78:	e0bffd17 	ldw	r2,-12(fp)
 100cc7c:	1007883a 	mov	r3,r2
 100cc80:	e0bffc17 	ldw	r2,-16(fp)
 100cc84:	10c01515 	stw	r3,84(r2)
 100cc88:	e0bffe17 	ldw	r2,-8(fp)
 100cc8c:	1007883a 	mov	r3,r2
 100cc90:	e0bffc17 	ldw	r2,-16(fp)
 100cc94:	10c00d15 	stw	r3,52(r2)
 100cc98:	e0bffc17 	ldw	r2,-16(fp)
 100cc9c:	10c01517 	ldw	r3,84(r2)
 100cca0:	008000b4 	movhi	r2,2
 100cca4:	1887883a 	add	r3,r3,r2
 100cca8:	e0bffc17 	ldw	r2,-16(fp)
 100ccac:	10c01615 	stw	r3,88(r2)
 100ccb0:	e0c00217 	ldw	r3,8(fp)
 100ccb4:	e0bffc17 	ldw	r2,-16(fp)
 100ccb8:	10c03c15 	stw	r3,240(r2)
 100ccbc:	e0c00317 	ldw	r3,12(fp)
 100ccc0:	e0bffc17 	ldw	r2,-16(fp)
 100ccc4:	10c03d15 	stw	r3,244(r2)
 100ccc8:	e0c00417 	ldw	r3,16(fp)
 100cccc:	e0bffc17 	ldw	r2,-16(fp)
 100ccd0:	10c03e15 	stw	r3,248(r2)
 100ccd4:	e0bffc17 	ldw	r2,-16(fp)
 100ccd8:	10000e15 	stw	zero,56(r2)
 100ccdc:	e0bffc17 	ldw	r2,-16(fp)
 100cce0:	10000f15 	stw	zero,60(r2)
 100cce4:	e0bffc17 	ldw	r2,-16(fp)
 100cce8:	10800317 	ldw	r2,12(r2)
 100ccec:	10c001c3 	ldbu	r3,7(r2)
 100ccf0:	e0bffc17 	ldw	r2,-16(fp)
 100ccf4:	10c00045 	stb	r3,1(r2)
 100ccf8:	e0bffc17 	ldw	r2,-16(fp)
 100ccfc:	10000005 	stb	zero,0(r2)
 100cd00:	e0bffc17 	ldw	r2,-16(fp)
 100cd04:	10002915 	stw	zero,164(r2)
 100cd08:	e0bffc17 	ldw	r2,-16(fp)
 100cd0c:	10002815 	stw	zero,160(r2)
 100cd10:	e0bffc17 	ldw	r2,-16(fp)
 100cd14:	10002a15 	stw	zero,168(r2)
 100cd18:	e0bffc17 	ldw	r2,-16(fp)
 100cd1c:	10002b15 	stw	zero,172(r2)
 100cd20:	e0bffc17 	ldw	r2,-16(fp)
 100cd24:	10801517 	ldw	r2,84(r2)
 100cd28:	10800204 	addi	r2,r2,8
 100cd2c:	1007883a 	mov	r3,r2
 100cd30:	0080ffc4 	movi	r2,1023
 100cd34:	18800035 	stwio	r2,0(r3)
 100cd38:	e0bffb17 	ldw	r2,-20(fp)
 100cd3c:	00000106 	br	100cd44 <usb20sr_config+0x128>
 100cd40:	e0bffb17 	ldw	r2,-20(fp)
 100cd44:	e037883a 	mov	sp,fp
 100cd48:	dfc00117 	ldw	ra,4(sp)
 100cd4c:	df000017 	ldw	fp,0(sp)
 100cd50:	dec00204 	addi	sp,sp,8
 100cd54:	f800283a 	ret

0100cd58 <usb20_event_isr>:
 100cd58:	defffb04 	addi	sp,sp,-20
 100cd5c:	df000415 	stw	fp,16(sp)
 100cd60:	df000404 	addi	fp,sp,16
 100cd64:	e13ffc15 	stw	r4,-16(fp)
 100cd68:	e17ffd15 	stw	r5,-12(fp)
 100cd6c:	e1bffe15 	stw	r6,-8(fp)
 100cd70:	e1ffff15 	stw	r7,-4(fp)
 100cd74:	e0ffff17 	ldw	r3,-4(fp)
 100cd78:	e0bffc17 	ldw	r2,-16(fp)
 100cd7c:	10c03815 	stw	r3,224(r2)
 100cd80:	e0c00117 	ldw	r3,4(fp)
 100cd84:	e0bffc17 	ldw	r2,-16(fp)
 100cd88:	10c03915 	stw	r3,228(r2)
 100cd8c:	e0fffd17 	ldw	r3,-12(fp)
 100cd90:	e0bffc17 	ldw	r2,-16(fp)
 100cd94:	10c03615 	stw	r3,216(r2)
 100cd98:	e0fffe17 	ldw	r3,-8(fp)
 100cd9c:	e0bffc17 	ldw	r2,-16(fp)
 100cda0:	10c03715 	stw	r3,220(r2)
 100cda4:	e0c00217 	ldw	r3,8(fp)
 100cda8:	e0bffc17 	ldw	r2,-16(fp)
 100cdac:	10c03a15 	stw	r3,232(r2)
 100cdb0:	e0c00317 	ldw	r3,12(fp)
 100cdb4:	e0bffc17 	ldw	r2,-16(fp)
 100cdb8:	10c03b15 	stw	r3,236(r2)
 100cdbc:	e037883a 	mov	sp,fp
 100cdc0:	df000017 	ldw	fp,0(sp)
 100cdc4:	dec00104 	addi	sp,sp,4
 100cdc8:	f800283a 	ret

0100cdcc <usb20sr_with_dma_write>:
 100cdcc:	deffe704 	addi	sp,sp,-100
 100cdd0:	dfc01815 	stw	ra,96(sp)
 100cdd4:	df001715 	stw	fp,92(sp)
 100cdd8:	df001704 	addi	fp,sp,92
 100cddc:	e13ffc15 	stw	r4,-16(fp)
 100cde0:	2805883a 	mov	r2,r5
 100cde4:	e1bffe15 	stw	r6,-8(fp)
 100cde8:	e1ffff15 	stw	r7,-4(fp)
 100cdec:	e0bffd05 	stb	r2,-12(fp)
 100cdf0:	0001883a 	nop
 100cdf4:	e0bffc17 	ldw	r2,-16(fp)
 100cdf8:	10800e17 	ldw	r2,56(r2)
 100cdfc:	103ffd1e 	bne	r2,zero,100cdf4 <__alt_data_end+0xfffec5f4>
 100ce00:	e0bffc17 	ldw	r2,-16(fp)
 100ce04:	10003315 	stw	zero,204(r2)
 100ce08:	e0bffe17 	ldw	r2,-8(fp)
 100ce0c:	e0bfe915 	stw	r2,-92(fp)
 100ce10:	e0bffe17 	ldw	r2,-8(fp)
 100ce14:	e0bfed15 	stw	r2,-76(fp)
 100ce18:	e03fee15 	stw	zero,-72(fp)
 100ce1c:	e0bfed17 	ldw	r2,-76(fp)
 100ce20:	108000cc 	andi	r2,r2,3
 100ce24:	10000226 	beq	r2,zero,100ce30 <usb20sr_with_dma_write+0x64>
 100ce28:	00800044 	movi	r2,1
 100ce2c:	e0bfee15 	stw	r2,-72(fp)
 100ce30:	e0bfff17 	ldw	r2,-4(fp)
 100ce34:	e0bfef15 	stw	r2,-68(fp)
 100ce38:	e03ff015 	stw	zero,-64(fp)
 100ce3c:	e0bffc17 	ldw	r2,-16(fp)
 100ce40:	10801717 	ldw	r2,92(r2)
 100ce44:	e0bff115 	stw	r2,-60(fp)
 100ce48:	e0bffc17 	ldw	r2,-16(fp)
 100ce4c:	10801517 	ldw	r2,84(r2)
 100ce50:	e0bff215 	stw	r2,-56(fp)
 100ce54:	e0bffd03 	ldbu	r2,-12(fp)
 100ce58:	e0fffc17 	ldw	r3,-16(fp)
 100ce5c:	1885883a 	add	r2,r3,r2
 100ce60:	1080e104 	addi	r2,r2,900
 100ce64:	10800003 	ldbu	r2,0(r2)
 100ce68:	10803fcc 	andi	r2,r2,255
 100ce6c:	e0bff315 	stw	r2,-52(fp)
 100ce70:	e0bffd03 	ldbu	r2,-12(fp)
 100ce74:	e0fffc17 	ldw	r3,-16(fp)
 100ce78:	1885883a 	add	r2,r3,r2
 100ce7c:	1080e504 	addi	r2,r2,916
 100ce80:	10800003 	ldbu	r2,0(r2)
 100ce84:	10803fcc 	andi	r2,r2,255
 100ce88:	e0bff415 	stw	r2,-48(fp)
 100ce8c:	e0bffc17 	ldw	r2,-16(fp)
 100ce90:	10801617 	ldw	r2,88(r2)
 100ce94:	e0bff515 	stw	r2,-44(fp)
 100ce98:	e0bffd03 	ldbu	r2,-12(fp)
 100ce9c:	e0fffc17 	ldw	r3,-16(fp)
 100cea0:	10803044 	addi	r2,r2,193
 100cea4:	1085883a 	add	r2,r2,r2
 100cea8:	1085883a 	add	r2,r2,r2
 100ceac:	1885883a 	add	r2,r3,r2
 100ceb0:	10800017 	ldw	r2,0(r2)
 100ceb4:	e0bff615 	stw	r2,-40(fp)
 100ceb8:	e0bffd03 	ldbu	r2,-12(fp)
 100cebc:	e0fffc17 	ldw	r3,-16(fp)
 100cec0:	10803444 	addi	r2,r2,209
 100cec4:	1085883a 	add	r2,r2,r2
 100cec8:	1085883a 	add	r2,r2,r2
 100cecc:	1885883a 	add	r2,r3,r2
 100ced0:	10800017 	ldw	r2,0(r2)
 100ced4:	e0bff715 	stw	r2,-36(fp)
 100ced8:	e0fff517 	ldw	r3,-44(fp)
 100cedc:	e0bff617 	ldw	r2,-40(fp)
 100cee0:	1885883a 	add	r2,r3,r2
 100cee4:	e0bff815 	stw	r2,-32(fp)
 100cee8:	e0fff517 	ldw	r3,-44(fp)
 100ceec:	e0bff717 	ldw	r2,-36(fp)
 100cef0:	1885883a 	add	r2,r3,r2
 100cef4:	e0bff915 	stw	r2,-28(fp)
 100cef8:	e0bffd03 	ldbu	r2,-12(fp)
 100cefc:	e0fffc17 	ldw	r3,-16(fp)
 100cf00:	10802444 	addi	r2,r2,145
 100cf04:	1085883a 	add	r2,r2,r2
 100cf08:	1085883a 	add	r2,r2,r2
 100cf0c:	1885883a 	add	r2,r3,r2
 100cf10:	10800017 	ldw	r2,0(r2)
 100cf14:	e0bffa15 	stw	r2,-24(fp)
 100cf18:	e0bffd03 	ldbu	r2,-12(fp)
 100cf1c:	e0fffc17 	ldw	r3,-16(fp)
 100cf20:	10803a44 	addi	r2,r2,233
 100cf24:	1085883a 	add	r2,r2,r2
 100cf28:	1085883a 	add	r2,r2,r2
 100cf2c:	1885883a 	add	r2,r3,r2
 100cf30:	10800017 	ldw	r2,0(r2)
 100cf34:	e0bffb15 	stw	r2,-20(fp)
 100cf38:	00004d06 	br	100d070 <usb20sr_with_dma_write+0x2a4>
 100cf3c:	e0bffb17 	ldw	r2,-20(fp)
 100cf40:	1000211e 	bne	r2,zero,100cfc8 <usb20sr_with_dma_write+0x1fc>
 100cf44:	e0bff317 	ldw	r2,-52(fp)
 100cf48:	1085883a 	add	r2,r2,r2
 100cf4c:	1085883a 	add	r2,r2,r2
 100cf50:	1007883a 	mov	r3,r2
 100cf54:	e0bff217 	ldw	r2,-56(fp)
 100cf58:	1885883a 	add	r2,r3,r2
 100cf5c:	10800037 	ldwio	r2,0(r2)
 100cf60:	1000190e 	bge	r2,zero,100cfc8 <usb20sr_with_dma_write+0x1fc>
 100cf64:	e0bffc17 	ldw	r2,-16(fp)
 100cf68:	10803317 	ldw	r2,204(r2)
 100cf6c:	10000c1e 	bne	r2,zero,100cfa0 <usb20sr_with_dma_write+0x1d4>
 100cf70:	e0bff317 	ldw	r2,-52(fp)
 100cf74:	1085883a 	add	r2,r2,r2
 100cf78:	1085883a 	add	r2,r2,r2
 100cf7c:	1007883a 	mov	r3,r2
 100cf80:	e0bff217 	ldw	r2,-56(fp)
 100cf84:	1885883a 	add	r2,r3,r2
 100cf88:	1009883a 	mov	r4,r2
 100cf8c:	e0bfef17 	ldw	r2,-68(fp)
 100cf90:	1006947a 	slli	r3,r2,17
 100cf94:	e0bff617 	ldw	r2,-40(fp)
 100cf98:	1884b03a 	or	r2,r3,r2
 100cf9c:	20800035 	stwio	r2,0(r4)
 100cfa0:	e0bffd03 	ldbu	r2,-12(fp)
 100cfa4:	e0fffc17 	ldw	r3,-16(fp)
 100cfa8:	10803a44 	addi	r2,r2,233
 100cfac:	1085883a 	add	r2,r2,r2
 100cfb0:	1085883a 	add	r2,r2,r2
 100cfb4:	1885883a 	add	r2,r3,r2
 100cfb8:	00c00044 	movi	r3,1
 100cfbc:	10c00015 	stw	r3,0(r2)
 100cfc0:	0005883a 	mov	r2,zero
 100cfc4:	00014306 	br	100d4d4 <usb20sr_with_dma_write+0x708>
 100cfc8:	e0bffb17 	ldw	r2,-20(fp)
 100cfcc:	10002026 	beq	r2,zero,100d050 <usb20sr_with_dma_write+0x284>
 100cfd0:	e0bff417 	ldw	r2,-48(fp)
 100cfd4:	1085883a 	add	r2,r2,r2
 100cfd8:	1085883a 	add	r2,r2,r2
 100cfdc:	1007883a 	mov	r3,r2
 100cfe0:	e0bff217 	ldw	r2,-56(fp)
 100cfe4:	1885883a 	add	r2,r3,r2
 100cfe8:	10800037 	ldwio	r2,0(r2)
 100cfec:	1000180e 	bge	r2,zero,100d050 <usb20sr_with_dma_write+0x284>
 100cff0:	e0bffc17 	ldw	r2,-16(fp)
 100cff4:	10803317 	ldw	r2,204(r2)
 100cff8:	10000c1e 	bne	r2,zero,100d02c <usb20sr_with_dma_write+0x260>
 100cffc:	e0bff317 	ldw	r2,-52(fp)
 100d000:	1085883a 	add	r2,r2,r2
 100d004:	1085883a 	add	r2,r2,r2
 100d008:	1007883a 	mov	r3,r2
 100d00c:	e0bff217 	ldw	r2,-56(fp)
 100d010:	1885883a 	add	r2,r3,r2
 100d014:	1009883a 	mov	r4,r2
 100d018:	e0bfef17 	ldw	r2,-68(fp)
 100d01c:	1006947a 	slli	r3,r2,17
 100d020:	e0bff717 	ldw	r2,-36(fp)
 100d024:	1884b03a 	or	r2,r3,r2
 100d028:	20800035 	stwio	r2,0(r4)
 100d02c:	e0bffd03 	ldbu	r2,-12(fp)
 100d030:	e0fffc17 	ldw	r3,-16(fp)
 100d034:	10803a44 	addi	r2,r2,233
 100d038:	1085883a 	add	r2,r2,r2
 100d03c:	1085883a 	add	r2,r2,r2
 100d040:	1885883a 	add	r2,r3,r2
 100d044:	10000015 	stw	zero,0(r2)
 100d048:	0005883a 	mov	r2,zero
 100d04c:	00012106 	br	100d4d4 <usb20sr_with_dma_write+0x708>
 100d050:	e0bffc17 	ldw	r2,-16(fp)
 100d054:	10803317 	ldw	r2,204(r2)
 100d058:	10000526 	beq	r2,zero,100d070 <usb20sr_with_dma_write+0x2a4>
 100d05c:	e0bffc17 	ldw	r2,-16(fp)
 100d060:	00c00084 	movi	r3,2
 100d064:	10c03315 	stw	r3,204(r2)
 100d068:	00bfffc4 	movi	r2,-1
 100d06c:	00011906 	br	100d4d4 <usb20sr_with_dma_write+0x708>
 100d070:	e0bfef17 	ldw	r2,-68(fp)
 100d074:	103fb126 	beq	r2,zero,100cf3c <__alt_data_end+0xfffec73c>
 100d078:	e0800217 	ldw	r2,8(fp)
 100d07c:	1000381e 	bne	r2,zero,100d160 <usb20sr_with_dma_write+0x394>
 100d080:	e0bfff17 	ldw	r2,-4(fp)
 100d084:	e13fe917 	ldw	r4,-92(fp)
 100d088:	100b883a 	mov	r5,r2
 100d08c:	10112d80 	call	10112d8 <alt_dcache_flush>
 100d090:	e0bffc17 	ldw	r2,-16(fp)
 100d094:	10801217 	ldw	r2,72(r2)
 100d098:	e0bfea15 	stw	r2,-88(fp)
 100d09c:	e0bffd03 	ldbu	r2,-12(fp)
 100d0a0:	10800c14 	ori	r2,r2,48
 100d0a4:	10803fcc 	andi	r2,r2,255
 100d0a8:	e0bfeb15 	stw	r2,-84(fp)
 100d0ac:	e0bfea17 	ldw	r2,-88(fp)
 100d0b0:	10800104 	addi	r2,r2,4
 100d0b4:	1007883a 	mov	r3,r2
 100d0b8:	e0bfff17 	ldw	r2,-4(fp)
 100d0bc:	18800035 	stwio	r2,0(r3)
 100d0c0:	e0bfea17 	ldw	r2,-88(fp)
 100d0c4:	10800204 	addi	r2,r2,8
 100d0c8:	1007883a 	mov	r3,r2
 100d0cc:	e0bfe917 	ldw	r2,-92(fp)
 100d0d0:	18800035 	stwio	r2,0(r3)
 100d0d4:	e0bfea17 	ldw	r2,-88(fp)
 100d0d8:	10800304 	addi	r2,r2,12
 100d0dc:	1007883a 	mov	r3,r2
 100d0e0:	e0bff817 	ldw	r2,-32(fp)
 100d0e4:	18800035 	stwio	r2,0(r3)
 100d0e8:	e0bfea17 	ldw	r2,-88(fp)
 100d0ec:	10800504 	addi	r2,r2,20
 100d0f0:	1007883a 	mov	r3,r2
 100d0f4:	e0bff217 	ldw	r2,-56(fp)
 100d0f8:	18800035 	stwio	r2,0(r3)
 100d0fc:	e0bfea17 	ldw	r2,-88(fp)
 100d100:	e0ffeb17 	ldw	r3,-84(fp)
 100d104:	10c00035 	stwio	r3,0(r2)
 100d108:	0001883a 	nop
 100d10c:	e0bfea17 	ldw	r2,-88(fp)
 100d110:	10800404 	addi	r2,r2,16
 100d114:	10800037 	ldwio	r2,0(r2)
 100d118:	1080004c 	andi	r2,r2,1
 100d11c:	103ffb1e 	bne	r2,zero,100d10c <__alt_data_end+0xfffec90c>
 100d120:	e0bfea17 	ldw	r2,-88(fp)
 100d124:	10800404 	addi	r2,r2,16
 100d128:	10800037 	ldwio	r2,0(r2)
 100d12c:	1080008c 	andi	r2,r2,2
 100d130:	1005d07a 	srai	r2,r2,1
 100d134:	e0bfec15 	stw	r2,-80(fp)
 100d138:	e0bfec17 	ldw	r2,-80(fp)
 100d13c:	1080004c 	andi	r2,r2,1
 100d140:	1005003a 	cmpeq	r2,r2,zero
 100d144:	10803fcc 	andi	r2,r2,255
 100d148:	e0bffb15 	stw	r2,-20(fp)
 100d14c:	e0bfff17 	ldw	r2,-4(fp)
 100d150:	e0ffe917 	ldw	r3,-92(fp)
 100d154:	1885883a 	add	r2,r3,r2
 100d158:	e0bfe915 	stw	r2,-92(fp)
 100d15c:	0000ce06 	br	100d498 <usb20sr_with_dma_write+0x6cc>
 100d160:	0000cb06 	br	100d490 <usb20sr_with_dma_write+0x6c4>
 100d164:	e0bffb17 	ldw	r2,-20(fp)
 100d168:	10005f1e 	bne	r2,zero,100d2e8 <usb20sr_with_dma_write+0x51c>
 100d16c:	e0bff317 	ldw	r2,-52(fp)
 100d170:	1085883a 	add	r2,r2,r2
 100d174:	1085883a 	add	r2,r2,r2
 100d178:	1007883a 	mov	r3,r2
 100d17c:	e0bff217 	ldw	r2,-56(fp)
 100d180:	1885883a 	add	r2,r3,r2
 100d184:	10800037 	ldwio	r2,0(r2)
 100d188:	1000570e 	bge	r2,zero,100d2e8 <usb20sr_with_dma_write+0x51c>
 100d18c:	e0ffef17 	ldw	r3,-68(fp)
 100d190:	e0bffa17 	ldw	r2,-24(fp)
 100d194:	1880030e 	bge	r3,r2,100d1a4 <usb20sr_with_dma_write+0x3d8>
 100d198:	e0bfef17 	ldw	r2,-68(fp)
 100d19c:	e0bff015 	stw	r2,-64(fp)
 100d1a0:	00000206 	br	100d1ac <usb20sr_with_dma_write+0x3e0>
 100d1a4:	e0bffa17 	ldw	r2,-24(fp)
 100d1a8:	e0bff015 	stw	r2,-64(fp)
 100d1ac:	e0bff017 	ldw	r2,-64(fp)
 100d1b0:	e13fe917 	ldw	r4,-92(fp)
 100d1b4:	100b883a 	mov	r5,r2
 100d1b8:	10112d80 	call	10112d8 <alt_dcache_flush>
 100d1bc:	0001883a 	nop
 100d1c0:	e0bff117 	ldw	r2,-60(fp)
 100d1c4:	10800037 	ldwio	r2,0(r2)
 100d1c8:	1080008c 	andi	r2,r2,2
 100d1cc:	103ffc1e 	bne	r2,zero,100d1c0 <__alt_data_end+0xfffec9c0>
 100d1d0:	e0bff117 	ldw	r2,-60(fp)
 100d1d4:	10800604 	addi	r2,r2,24
 100d1d8:	0007883a 	mov	r3,zero
 100d1dc:	10c00035 	stwio	r3,0(r2)
 100d1e0:	e0bff117 	ldw	r2,-60(fp)
 100d1e4:	10800104 	addi	r2,r2,4
 100d1e8:	1007883a 	mov	r3,r2
 100d1ec:	e0bfe917 	ldw	r2,-92(fp)
 100d1f0:	18800035 	stwio	r2,0(r3)
 100d1f4:	e0bff117 	ldw	r2,-60(fp)
 100d1f8:	10800204 	addi	r2,r2,8
 100d1fc:	1007883a 	mov	r3,r2
 100d200:	e0bff817 	ldw	r2,-32(fp)
 100d204:	18800035 	stwio	r2,0(r3)
 100d208:	e0bff117 	ldw	r2,-60(fp)
 100d20c:	10800304 	addi	r2,r2,12
 100d210:	1007883a 	mov	r3,r2
 100d214:	e0bff017 	ldw	r2,-64(fp)
 100d218:	18800035 	stwio	r2,0(r3)
 100d21c:	e0bff017 	ldw	r2,-64(fp)
 100d220:	108000cc 	andi	r2,r2,3
 100d224:	1000021e 	bne	r2,zero,100d230 <usb20sr_with_dma_write+0x464>
 100d228:	e0bfee17 	ldw	r2,-72(fp)
 100d22c:	10000626 	beq	r2,zero,100d248 <usb20sr_with_dma_write+0x47c>
 100d230:	e0bff117 	ldw	r2,-60(fp)
 100d234:	10800604 	addi	r2,r2,24
 100d238:	1007883a 	mov	r3,r2
 100d23c:	00802244 	movi	r2,137
 100d240:	18800035 	stwio	r2,0(r3)
 100d244:	00000506 	br	100d25c <usb20sr_with_dma_write+0x490>
 100d248:	e0bff117 	ldw	r2,-60(fp)
 100d24c:	10800604 	addi	r2,r2,24
 100d250:	1007883a 	mov	r3,r2
 100d254:	00802304 	movi	r2,140
 100d258:	18800035 	stwio	r2,0(r3)
 100d25c:	0001883a 	nop
 100d260:	e0bff117 	ldw	r2,-60(fp)
 100d264:	10800037 	ldwio	r2,0(r2)
 100d268:	1080008c 	andi	r2,r2,2
 100d26c:	103ffc1e 	bne	r2,zero,100d260 <__alt_data_end+0xfffeca60>
 100d270:	e0bff117 	ldw	r2,-60(fp)
 100d274:	10800604 	addi	r2,r2,24
 100d278:	0007883a 	mov	r3,zero
 100d27c:	10c00035 	stwio	r3,0(r2)
 100d280:	e0bffc17 	ldw	r2,-16(fp)
 100d284:	10803317 	ldw	r2,204(r2)
 100d288:	10000c1e 	bne	r2,zero,100d2bc <usb20sr_with_dma_write+0x4f0>
 100d28c:	e0bff317 	ldw	r2,-52(fp)
 100d290:	1085883a 	add	r2,r2,r2
 100d294:	1085883a 	add	r2,r2,r2
 100d298:	1007883a 	mov	r3,r2
 100d29c:	e0bff217 	ldw	r2,-56(fp)
 100d2a0:	1885883a 	add	r2,r3,r2
 100d2a4:	1009883a 	mov	r4,r2
 100d2a8:	e0bff017 	ldw	r2,-64(fp)
 100d2ac:	1006947a 	slli	r3,r2,17
 100d2b0:	e0bff617 	ldw	r2,-40(fp)
 100d2b4:	1884b03a 	or	r2,r3,r2
 100d2b8:	20800035 	stwio	r2,0(r4)
 100d2bc:	00800044 	movi	r2,1
 100d2c0:	e0bffb15 	stw	r2,-20(fp)
 100d2c4:	e0bff017 	ldw	r2,-64(fp)
 100d2c8:	e0ffef17 	ldw	r3,-68(fp)
 100d2cc:	1885c83a 	sub	r2,r3,r2
 100d2d0:	e0bfef15 	stw	r2,-68(fp)
 100d2d4:	e0bff017 	ldw	r2,-64(fp)
 100d2d8:	1007883a 	mov	r3,r2
 100d2dc:	e0bfe917 	ldw	r2,-92(fp)
 100d2e0:	10c5883a 	add	r2,r2,r3
 100d2e4:	e0bfe915 	stw	r2,-92(fp)
 100d2e8:	e0bfef17 	ldw	r2,-68(fp)
 100d2ec:	0080600e 	bge	zero,r2,100d470 <usb20sr_with_dma_write+0x6a4>
 100d2f0:	e0bffb17 	ldw	r2,-20(fp)
 100d2f4:	10005e26 	beq	r2,zero,100d470 <usb20sr_with_dma_write+0x6a4>
 100d2f8:	e0bff417 	ldw	r2,-48(fp)
 100d2fc:	1085883a 	add	r2,r2,r2
 100d300:	1085883a 	add	r2,r2,r2
 100d304:	1007883a 	mov	r3,r2
 100d308:	e0bff217 	ldw	r2,-56(fp)
 100d30c:	1885883a 	add	r2,r3,r2
 100d310:	10800037 	ldwio	r2,0(r2)
 100d314:	1000560e 	bge	r2,zero,100d470 <usb20sr_with_dma_write+0x6a4>
 100d318:	e0ffef17 	ldw	r3,-68(fp)
 100d31c:	e0bffa17 	ldw	r2,-24(fp)
 100d320:	1880030e 	bge	r3,r2,100d330 <usb20sr_with_dma_write+0x564>
 100d324:	e0bfef17 	ldw	r2,-68(fp)
 100d328:	e0bff015 	stw	r2,-64(fp)
 100d32c:	00000206 	br	100d338 <usb20sr_with_dma_write+0x56c>
 100d330:	e0bffa17 	ldw	r2,-24(fp)
 100d334:	e0bff015 	stw	r2,-64(fp)
 100d338:	e0bff017 	ldw	r2,-64(fp)
 100d33c:	e13fe917 	ldw	r4,-92(fp)
 100d340:	100b883a 	mov	r5,r2
 100d344:	10112d80 	call	10112d8 <alt_dcache_flush>
 100d348:	0001883a 	nop
 100d34c:	e0bff117 	ldw	r2,-60(fp)
 100d350:	10800037 	ldwio	r2,0(r2)
 100d354:	1080008c 	andi	r2,r2,2
 100d358:	103ffc1e 	bne	r2,zero,100d34c <__alt_data_end+0xfffecb4c>
 100d35c:	e0bff117 	ldw	r2,-60(fp)
 100d360:	10800604 	addi	r2,r2,24
 100d364:	0007883a 	mov	r3,zero
 100d368:	10c00035 	stwio	r3,0(r2)
 100d36c:	e0bff117 	ldw	r2,-60(fp)
 100d370:	10800104 	addi	r2,r2,4
 100d374:	1007883a 	mov	r3,r2
 100d378:	e0bfe917 	ldw	r2,-92(fp)
 100d37c:	18800035 	stwio	r2,0(r3)
 100d380:	e0bff117 	ldw	r2,-60(fp)
 100d384:	10800204 	addi	r2,r2,8
 100d388:	1007883a 	mov	r3,r2
 100d38c:	e0bff917 	ldw	r2,-28(fp)
 100d390:	18800035 	stwio	r2,0(r3)
 100d394:	e0bff117 	ldw	r2,-60(fp)
 100d398:	10800304 	addi	r2,r2,12
 100d39c:	1007883a 	mov	r3,r2
 100d3a0:	e0bff017 	ldw	r2,-64(fp)
 100d3a4:	18800035 	stwio	r2,0(r3)
 100d3a8:	e0bff017 	ldw	r2,-64(fp)
 100d3ac:	108000cc 	andi	r2,r2,3
 100d3b0:	1000021e 	bne	r2,zero,100d3bc <usb20sr_with_dma_write+0x5f0>
 100d3b4:	e0bfee17 	ldw	r2,-72(fp)
 100d3b8:	10000626 	beq	r2,zero,100d3d4 <usb20sr_with_dma_write+0x608>
 100d3bc:	e0bff117 	ldw	r2,-60(fp)
 100d3c0:	10800604 	addi	r2,r2,24
 100d3c4:	1007883a 	mov	r3,r2
 100d3c8:	00802244 	movi	r2,137
 100d3cc:	18800035 	stwio	r2,0(r3)
 100d3d0:	00000506 	br	100d3e8 <usb20sr_with_dma_write+0x61c>
 100d3d4:	e0bff117 	ldw	r2,-60(fp)
 100d3d8:	10800604 	addi	r2,r2,24
 100d3dc:	1007883a 	mov	r3,r2
 100d3e0:	00802304 	movi	r2,140
 100d3e4:	18800035 	stwio	r2,0(r3)
 100d3e8:	0001883a 	nop
 100d3ec:	e0bff117 	ldw	r2,-60(fp)
 100d3f0:	10800037 	ldwio	r2,0(r2)
 100d3f4:	1080008c 	andi	r2,r2,2
 100d3f8:	103ffc1e 	bne	r2,zero,100d3ec <__alt_data_end+0xfffecbec>
 100d3fc:	e0bff117 	ldw	r2,-60(fp)
 100d400:	10800604 	addi	r2,r2,24
 100d404:	0007883a 	mov	r3,zero
 100d408:	10c00035 	stwio	r3,0(r2)
 100d40c:	e0bffc17 	ldw	r2,-16(fp)
 100d410:	10803317 	ldw	r2,204(r2)
 100d414:	10000c1e 	bne	r2,zero,100d448 <usb20sr_with_dma_write+0x67c>
 100d418:	e0bff417 	ldw	r2,-48(fp)
 100d41c:	1085883a 	add	r2,r2,r2
 100d420:	1085883a 	add	r2,r2,r2
 100d424:	1007883a 	mov	r3,r2
 100d428:	e0bff217 	ldw	r2,-56(fp)
 100d42c:	1885883a 	add	r2,r3,r2
 100d430:	1009883a 	mov	r4,r2
 100d434:	e0bff017 	ldw	r2,-64(fp)
 100d438:	1006947a 	slli	r3,r2,17
 100d43c:	e0bff717 	ldw	r2,-36(fp)
 100d440:	1884b03a 	or	r2,r3,r2
 100d444:	20800035 	stwio	r2,0(r4)
 100d448:	e0bff017 	ldw	r2,-64(fp)
 100d44c:	e0ffef17 	ldw	r3,-68(fp)
 100d450:	1885c83a 	sub	r2,r3,r2
 100d454:	e0bfef15 	stw	r2,-68(fp)
 100d458:	e03ffb15 	stw	zero,-20(fp)
 100d45c:	e0bff017 	ldw	r2,-64(fp)
 100d460:	1007883a 	mov	r3,r2
 100d464:	e0bfe917 	ldw	r2,-92(fp)
 100d468:	10c5883a 	add	r2,r2,r3
 100d46c:	e0bfe915 	stw	r2,-92(fp)
 100d470:	e0bffc17 	ldw	r2,-16(fp)
 100d474:	10803317 	ldw	r2,204(r2)
 100d478:	10000526 	beq	r2,zero,100d490 <usb20sr_with_dma_write+0x6c4>
 100d47c:	e0bffc17 	ldw	r2,-16(fp)
 100d480:	00c00084 	movi	r3,2
 100d484:	10c03315 	stw	r3,204(r2)
 100d488:	00bfffc4 	movi	r2,-1
 100d48c:	00001106 	br	100d4d4 <usb20sr_with_dma_write+0x708>
 100d490:	e0bfef17 	ldw	r2,-68(fp)
 100d494:	00bf3316 	blt	zero,r2,100d164 <__alt_data_end+0xfffec964>
 100d498:	e0bffd03 	ldbu	r2,-12(fp)
 100d49c:	e0fffb17 	ldw	r3,-20(fp)
 100d4a0:	1809883a 	mov	r4,r3
 100d4a4:	e0fffc17 	ldw	r3,-16(fp)
 100d4a8:	10803a44 	addi	r2,r2,233
 100d4ac:	1085883a 	add	r2,r2,r2
 100d4b0:	1085883a 	add	r2,r2,r2
 100d4b4:	1885883a 	add	r2,r3,r2
 100d4b8:	11000015 	stw	r4,0(r2)
 100d4bc:	e0bffc17 	ldw	r2,-16(fp)
 100d4c0:	00c00084 	movi	r3,2
 100d4c4:	10c03315 	stw	r3,204(r2)
 100d4c8:	e0ffe917 	ldw	r3,-92(fp)
 100d4cc:	e0bffe17 	ldw	r2,-8(fp)
 100d4d0:	1885c83a 	sub	r2,r3,r2
 100d4d4:	e037883a 	mov	sp,fp
 100d4d8:	dfc00117 	ldw	ra,4(sp)
 100d4dc:	df000017 	ldw	fp,0(sp)
 100d4e0:	dec00204 	addi	sp,sp,8
 100d4e4:	f800283a 	ret

0100d4e8 <usb20sr_without_dma_write>:
 100d4e8:	deffed04 	addi	sp,sp,-76
 100d4ec:	dfc01215 	stw	ra,72(sp)
 100d4f0:	df001115 	stw	fp,68(sp)
 100d4f4:	df001104 	addi	fp,sp,68
 100d4f8:	e13ffc15 	stw	r4,-16(fp)
 100d4fc:	2805883a 	mov	r2,r5
 100d500:	e1bffe15 	stw	r6,-8(fp)
 100d504:	e1ffff15 	stw	r7,-4(fp)
 100d508:	e0bffd05 	stb	r2,-12(fp)
 100d50c:	0001883a 	nop
 100d510:	e0bffc17 	ldw	r2,-16(fp)
 100d514:	10800e17 	ldw	r2,56(r2)
 100d518:	103ffd1e 	bne	r2,zero,100d510 <__alt_data_end+0xfffecd10>
 100d51c:	e0bffc17 	ldw	r2,-16(fp)
 100d520:	10003315 	stw	zero,204(r2)
 100d524:	e0bffe17 	ldw	r2,-8(fp)
 100d528:	e0bfef15 	stw	r2,-68(fp)
 100d52c:	e0bfff17 	ldw	r2,-4(fp)
 100d530:	e0bff015 	stw	r2,-64(fp)
 100d534:	e03ff115 	stw	zero,-60(fp)
 100d538:	e0bffc17 	ldw	r2,-16(fp)
 100d53c:	10801517 	ldw	r2,84(r2)
 100d540:	e0bff215 	stw	r2,-56(fp)
 100d544:	e0bffd03 	ldbu	r2,-12(fp)
 100d548:	e0fffc17 	ldw	r3,-16(fp)
 100d54c:	1885883a 	add	r2,r3,r2
 100d550:	1080e104 	addi	r2,r2,900
 100d554:	10800003 	ldbu	r2,0(r2)
 100d558:	10803fcc 	andi	r2,r2,255
 100d55c:	e0bff315 	stw	r2,-52(fp)
 100d560:	e0bffd03 	ldbu	r2,-12(fp)
 100d564:	e0fffc17 	ldw	r3,-16(fp)
 100d568:	1885883a 	add	r2,r3,r2
 100d56c:	1080e504 	addi	r2,r2,916
 100d570:	10800003 	ldbu	r2,0(r2)
 100d574:	10803fcc 	andi	r2,r2,255
 100d578:	e0bff415 	stw	r2,-48(fp)
 100d57c:	e0bffc17 	ldw	r2,-16(fp)
 100d580:	10801617 	ldw	r2,88(r2)
 100d584:	e0bff515 	stw	r2,-44(fp)
 100d588:	e0bffd03 	ldbu	r2,-12(fp)
 100d58c:	e0fffc17 	ldw	r3,-16(fp)
 100d590:	10803044 	addi	r2,r2,193
 100d594:	1085883a 	add	r2,r2,r2
 100d598:	1085883a 	add	r2,r2,r2
 100d59c:	1885883a 	add	r2,r3,r2
 100d5a0:	10800017 	ldw	r2,0(r2)
 100d5a4:	e0bff615 	stw	r2,-40(fp)
 100d5a8:	e0bffd03 	ldbu	r2,-12(fp)
 100d5ac:	e0fffc17 	ldw	r3,-16(fp)
 100d5b0:	10803444 	addi	r2,r2,209
 100d5b4:	1085883a 	add	r2,r2,r2
 100d5b8:	1085883a 	add	r2,r2,r2
 100d5bc:	1885883a 	add	r2,r3,r2
 100d5c0:	10800017 	ldw	r2,0(r2)
 100d5c4:	e0bff715 	stw	r2,-36(fp)
 100d5c8:	e0fff517 	ldw	r3,-44(fp)
 100d5cc:	e0bff617 	ldw	r2,-40(fp)
 100d5d0:	1885883a 	add	r2,r3,r2
 100d5d4:	e0bff815 	stw	r2,-32(fp)
 100d5d8:	e0fff517 	ldw	r3,-44(fp)
 100d5dc:	e0bff717 	ldw	r2,-36(fp)
 100d5e0:	1885883a 	add	r2,r3,r2
 100d5e4:	e0bff915 	stw	r2,-28(fp)
 100d5e8:	e0bffd03 	ldbu	r2,-12(fp)
 100d5ec:	e0fffc17 	ldw	r3,-16(fp)
 100d5f0:	10802444 	addi	r2,r2,145
 100d5f4:	1085883a 	add	r2,r2,r2
 100d5f8:	1085883a 	add	r2,r2,r2
 100d5fc:	1885883a 	add	r2,r3,r2
 100d600:	10800017 	ldw	r2,0(r2)
 100d604:	e0bffa15 	stw	r2,-24(fp)
 100d608:	e0bffd03 	ldbu	r2,-12(fp)
 100d60c:	e0fffc17 	ldw	r3,-16(fp)
 100d610:	10803a44 	addi	r2,r2,233
 100d614:	1085883a 	add	r2,r2,r2
 100d618:	1085883a 	add	r2,r2,r2
 100d61c:	1885883a 	add	r2,r3,r2
 100d620:	10800017 	ldw	r2,0(r2)
 100d624:	e0bffb15 	stw	r2,-20(fp)
 100d628:	00004d06 	br	100d760 <usb20sr_without_dma_write+0x278>
 100d62c:	e0bffb17 	ldw	r2,-20(fp)
 100d630:	1000211e 	bne	r2,zero,100d6b8 <usb20sr_without_dma_write+0x1d0>
 100d634:	e0bff317 	ldw	r2,-52(fp)
 100d638:	1085883a 	add	r2,r2,r2
 100d63c:	1085883a 	add	r2,r2,r2
 100d640:	1007883a 	mov	r3,r2
 100d644:	e0bff217 	ldw	r2,-56(fp)
 100d648:	1885883a 	add	r2,r3,r2
 100d64c:	10800037 	ldwio	r2,0(r2)
 100d650:	1000190e 	bge	r2,zero,100d6b8 <usb20sr_without_dma_write+0x1d0>
 100d654:	e0bffc17 	ldw	r2,-16(fp)
 100d658:	10803317 	ldw	r2,204(r2)
 100d65c:	10000c1e 	bne	r2,zero,100d690 <usb20sr_without_dma_write+0x1a8>
 100d660:	e0bff317 	ldw	r2,-52(fp)
 100d664:	1085883a 	add	r2,r2,r2
 100d668:	1085883a 	add	r2,r2,r2
 100d66c:	1007883a 	mov	r3,r2
 100d670:	e0bff217 	ldw	r2,-56(fp)
 100d674:	1885883a 	add	r2,r3,r2
 100d678:	1009883a 	mov	r4,r2
 100d67c:	e0bff017 	ldw	r2,-64(fp)
 100d680:	1006947a 	slli	r3,r2,17
 100d684:	e0bff617 	ldw	r2,-40(fp)
 100d688:	1884b03a 	or	r2,r3,r2
 100d68c:	20800035 	stwio	r2,0(r4)
 100d690:	e0bffd03 	ldbu	r2,-12(fp)
 100d694:	e0fffc17 	ldw	r3,-16(fp)
 100d698:	10803a44 	addi	r2,r2,233
 100d69c:	1085883a 	add	r2,r2,r2
 100d6a0:	1085883a 	add	r2,r2,r2
 100d6a4:	1885883a 	add	r2,r3,r2
 100d6a8:	00c00044 	movi	r3,1
 100d6ac:	10c00015 	stw	r3,0(r2)
 100d6b0:	0005883a 	mov	r2,zero
 100d6b4:	0000c906 	br	100d9dc <usb20sr_without_dma_write+0x4f4>
 100d6b8:	e0bffb17 	ldw	r2,-20(fp)
 100d6bc:	10002026 	beq	r2,zero,100d740 <usb20sr_without_dma_write+0x258>
 100d6c0:	e0bff417 	ldw	r2,-48(fp)
 100d6c4:	1085883a 	add	r2,r2,r2
 100d6c8:	1085883a 	add	r2,r2,r2
 100d6cc:	1007883a 	mov	r3,r2
 100d6d0:	e0bff217 	ldw	r2,-56(fp)
 100d6d4:	1885883a 	add	r2,r3,r2
 100d6d8:	10800037 	ldwio	r2,0(r2)
 100d6dc:	1000180e 	bge	r2,zero,100d740 <usb20sr_without_dma_write+0x258>
 100d6e0:	e0bffc17 	ldw	r2,-16(fp)
 100d6e4:	10803317 	ldw	r2,204(r2)
 100d6e8:	10000c1e 	bne	r2,zero,100d71c <usb20sr_without_dma_write+0x234>
 100d6ec:	e0bff317 	ldw	r2,-52(fp)
 100d6f0:	1085883a 	add	r2,r2,r2
 100d6f4:	1085883a 	add	r2,r2,r2
 100d6f8:	1007883a 	mov	r3,r2
 100d6fc:	e0bff217 	ldw	r2,-56(fp)
 100d700:	1885883a 	add	r2,r3,r2
 100d704:	1009883a 	mov	r4,r2
 100d708:	e0bff017 	ldw	r2,-64(fp)
 100d70c:	1006947a 	slli	r3,r2,17
 100d710:	e0bff717 	ldw	r2,-36(fp)
 100d714:	1884b03a 	or	r2,r3,r2
 100d718:	20800035 	stwio	r2,0(r4)
 100d71c:	e0bffd03 	ldbu	r2,-12(fp)
 100d720:	e0fffc17 	ldw	r3,-16(fp)
 100d724:	10803a44 	addi	r2,r2,233
 100d728:	1085883a 	add	r2,r2,r2
 100d72c:	1085883a 	add	r2,r2,r2
 100d730:	1885883a 	add	r2,r3,r2
 100d734:	10000015 	stw	zero,0(r2)
 100d738:	0005883a 	mov	r2,zero
 100d73c:	0000a706 	br	100d9dc <usb20sr_without_dma_write+0x4f4>
 100d740:	e0bffc17 	ldw	r2,-16(fp)
 100d744:	10803317 	ldw	r2,204(r2)
 100d748:	10000526 	beq	r2,zero,100d760 <usb20sr_without_dma_write+0x278>
 100d74c:	e0bffc17 	ldw	r2,-16(fp)
 100d750:	00c00084 	movi	r3,2
 100d754:	10c03315 	stw	r3,204(r2)
 100d758:	00bfffc4 	movi	r2,-1
 100d75c:	00009f06 	br	100d9dc <usb20sr_without_dma_write+0x4f4>
 100d760:	e0bff017 	ldw	r2,-64(fp)
 100d764:	103fb126 	beq	r2,zero,100d62c <__alt_data_end+0xfffece2c>
 100d768:	00008b06 	br	100d998 <usb20sr_without_dma_write+0x4b0>
 100d76c:	e0bffb17 	ldw	r2,-20(fp)
 100d770:	10003f1e 	bne	r2,zero,100d870 <usb20sr_without_dma_write+0x388>
 100d774:	e0bff317 	ldw	r2,-52(fp)
 100d778:	1085883a 	add	r2,r2,r2
 100d77c:	1085883a 	add	r2,r2,r2
 100d780:	1007883a 	mov	r3,r2
 100d784:	e0bff217 	ldw	r2,-56(fp)
 100d788:	1885883a 	add	r2,r3,r2
 100d78c:	10800037 	ldwio	r2,0(r2)
 100d790:	1000370e 	bge	r2,zero,100d870 <usb20sr_without_dma_write+0x388>
 100d794:	e0fff017 	ldw	r3,-64(fp)
 100d798:	e0bffa17 	ldw	r2,-24(fp)
 100d79c:	1880030e 	bge	r3,r2,100d7ac <usb20sr_without_dma_write+0x2c4>
 100d7a0:	e0bff017 	ldw	r2,-64(fp)
 100d7a4:	e0bff115 	stw	r2,-60(fp)
 100d7a8:	00000206 	br	100d7b4 <usb20sr_without_dma_write+0x2cc>
 100d7ac:	e0bffa17 	ldw	r2,-24(fp)
 100d7b0:	e0bff115 	stw	r2,-60(fp)
 100d7b4:	e0bff817 	ldw	r2,-32(fp)
 100d7b8:	1007883a 	mov	r3,r2
 100d7bc:	e0bfff17 	ldw	r2,-4(fp)
 100d7c0:	1809883a 	mov	r4,r3
 100d7c4:	100b883a 	mov	r5,r2
 100d7c8:	10112d80 	call	10112d8 <alt_dcache_flush>
 100d7cc:	e0fff217 	ldw	r3,-56(fp)
 100d7d0:	e0bff817 	ldw	r2,-32(fp)
 100d7d4:	10a00034 	orhi	r2,r2,32768
 100d7d8:	100b883a 	mov	r5,r2
 100d7dc:	e0bff117 	ldw	r2,-60(fp)
 100d7e0:	1809883a 	mov	r4,r3
 100d7e4:	e1bfef17 	ldw	r6,-68(fp)
 100d7e8:	100f883a 	mov	r7,r2
 100d7ec:	100d9f00 	call	100d9f0 <slsmemcpy>
 100d7f0:	e0bff817 	ldw	r2,-32(fp)
 100d7f4:	1007883a 	mov	r3,r2
 100d7f8:	e0bff117 	ldw	r2,-60(fp)
 100d7fc:	1809883a 	mov	r4,r3
 100d800:	100b883a 	mov	r5,r2
 100d804:	10112d80 	call	10112d8 <alt_dcache_flush>
 100d808:	e0bffc17 	ldw	r2,-16(fp)
 100d80c:	10803317 	ldw	r2,204(r2)
 100d810:	10000c1e 	bne	r2,zero,100d844 <usb20sr_without_dma_write+0x35c>
 100d814:	e0bff317 	ldw	r2,-52(fp)
 100d818:	1085883a 	add	r2,r2,r2
 100d81c:	1085883a 	add	r2,r2,r2
 100d820:	1007883a 	mov	r3,r2
 100d824:	e0bff217 	ldw	r2,-56(fp)
 100d828:	1885883a 	add	r2,r3,r2
 100d82c:	1009883a 	mov	r4,r2
 100d830:	e0bff117 	ldw	r2,-60(fp)
 100d834:	1006947a 	slli	r3,r2,17
 100d838:	e0bff617 	ldw	r2,-40(fp)
 100d83c:	1884b03a 	or	r2,r3,r2
 100d840:	20800035 	stwio	r2,0(r4)
 100d844:	00800044 	movi	r2,1
 100d848:	e0bffb15 	stw	r2,-20(fp)
 100d84c:	e0bff117 	ldw	r2,-60(fp)
 100d850:	e0fff017 	ldw	r3,-64(fp)
 100d854:	1885c83a 	sub	r2,r3,r2
 100d858:	e0bff015 	stw	r2,-64(fp)
 100d85c:	e0bff117 	ldw	r2,-60(fp)
 100d860:	1007883a 	mov	r3,r2
 100d864:	e0bfef17 	ldw	r2,-68(fp)
 100d868:	10c5883a 	add	r2,r2,r3
 100d86c:	e0bfef15 	stw	r2,-68(fp)
 100d870:	e0bff017 	ldw	r2,-64(fp)
 100d874:	0080400e 	bge	zero,r2,100d978 <usb20sr_without_dma_write+0x490>
 100d878:	e0bffb17 	ldw	r2,-20(fp)
 100d87c:	10003e26 	beq	r2,zero,100d978 <usb20sr_without_dma_write+0x490>
 100d880:	e0bff417 	ldw	r2,-48(fp)
 100d884:	1085883a 	add	r2,r2,r2
 100d888:	1085883a 	add	r2,r2,r2
 100d88c:	1007883a 	mov	r3,r2
 100d890:	e0bff217 	ldw	r2,-56(fp)
 100d894:	1885883a 	add	r2,r3,r2
 100d898:	10800037 	ldwio	r2,0(r2)
 100d89c:	1000360e 	bge	r2,zero,100d978 <usb20sr_without_dma_write+0x490>
 100d8a0:	e0fff017 	ldw	r3,-64(fp)
 100d8a4:	e0bffa17 	ldw	r2,-24(fp)
 100d8a8:	1880030e 	bge	r3,r2,100d8b8 <usb20sr_without_dma_write+0x3d0>
 100d8ac:	e0bff017 	ldw	r2,-64(fp)
 100d8b0:	e0bff115 	stw	r2,-60(fp)
 100d8b4:	00000206 	br	100d8c0 <usb20sr_without_dma_write+0x3d8>
 100d8b8:	e0bffa17 	ldw	r2,-24(fp)
 100d8bc:	e0bff115 	stw	r2,-60(fp)
 100d8c0:	e0bff917 	ldw	r2,-28(fp)
 100d8c4:	1007883a 	mov	r3,r2
 100d8c8:	e0bfff17 	ldw	r2,-4(fp)
 100d8cc:	1809883a 	mov	r4,r3
 100d8d0:	100b883a 	mov	r5,r2
 100d8d4:	10112d80 	call	10112d8 <alt_dcache_flush>
 100d8d8:	e0fff217 	ldw	r3,-56(fp)
 100d8dc:	e0bff917 	ldw	r2,-28(fp)
 100d8e0:	10a00034 	orhi	r2,r2,32768
 100d8e4:	100b883a 	mov	r5,r2
 100d8e8:	e0bff117 	ldw	r2,-60(fp)
 100d8ec:	1809883a 	mov	r4,r3
 100d8f0:	e1bfef17 	ldw	r6,-68(fp)
 100d8f4:	100f883a 	mov	r7,r2
 100d8f8:	100d9f00 	call	100d9f0 <slsmemcpy>
 100d8fc:	e0bff917 	ldw	r2,-28(fp)
 100d900:	1007883a 	mov	r3,r2
 100d904:	e0bff117 	ldw	r2,-60(fp)
 100d908:	1809883a 	mov	r4,r3
 100d90c:	100b883a 	mov	r5,r2
 100d910:	10112d80 	call	10112d8 <alt_dcache_flush>
 100d914:	e0bffc17 	ldw	r2,-16(fp)
 100d918:	10803317 	ldw	r2,204(r2)
 100d91c:	10000c1e 	bne	r2,zero,100d950 <usb20sr_without_dma_write+0x468>
 100d920:	e0bff417 	ldw	r2,-48(fp)
 100d924:	1085883a 	add	r2,r2,r2
 100d928:	1085883a 	add	r2,r2,r2
 100d92c:	1007883a 	mov	r3,r2
 100d930:	e0bff217 	ldw	r2,-56(fp)
 100d934:	1885883a 	add	r2,r3,r2
 100d938:	1009883a 	mov	r4,r2
 100d93c:	e0bff117 	ldw	r2,-60(fp)
 100d940:	1006947a 	slli	r3,r2,17
 100d944:	e0bff717 	ldw	r2,-36(fp)
 100d948:	1884b03a 	or	r2,r3,r2
 100d94c:	20800035 	stwio	r2,0(r4)
 100d950:	e03ffb15 	stw	zero,-20(fp)
 100d954:	e0bff117 	ldw	r2,-60(fp)
 100d958:	1007883a 	mov	r3,r2
 100d95c:	e0bfef17 	ldw	r2,-68(fp)
 100d960:	10c5883a 	add	r2,r2,r3
 100d964:	e0bfef15 	stw	r2,-68(fp)
 100d968:	e0bff117 	ldw	r2,-60(fp)
 100d96c:	e0fff017 	ldw	r3,-64(fp)
 100d970:	1885c83a 	sub	r2,r3,r2
 100d974:	e0bff015 	stw	r2,-64(fp)
 100d978:	e0bffc17 	ldw	r2,-16(fp)
 100d97c:	10803317 	ldw	r2,204(r2)
 100d980:	10000526 	beq	r2,zero,100d998 <usb20sr_without_dma_write+0x4b0>
 100d984:	e0bffc17 	ldw	r2,-16(fp)
 100d988:	00c00084 	movi	r3,2
 100d98c:	10c03315 	stw	r3,204(r2)
 100d990:	00bfffc4 	movi	r2,-1
 100d994:	00001106 	br	100d9dc <usb20sr_without_dma_write+0x4f4>
 100d998:	e0bff017 	ldw	r2,-64(fp)
 100d99c:	00bf7316 	blt	zero,r2,100d76c <__alt_data_end+0xfffecf6c>
 100d9a0:	e0bffd03 	ldbu	r2,-12(fp)
 100d9a4:	e0fffb17 	ldw	r3,-20(fp)
 100d9a8:	1809883a 	mov	r4,r3
 100d9ac:	e0fffc17 	ldw	r3,-16(fp)
 100d9b0:	10803a44 	addi	r2,r2,233
 100d9b4:	1085883a 	add	r2,r2,r2
 100d9b8:	1085883a 	add	r2,r2,r2
 100d9bc:	1885883a 	add	r2,r3,r2
 100d9c0:	11000015 	stw	r4,0(r2)
 100d9c4:	e0bffc17 	ldw	r2,-16(fp)
 100d9c8:	00c00084 	movi	r3,2
 100d9cc:	10c03315 	stw	r3,204(r2)
 100d9d0:	e0ffef17 	ldw	r3,-68(fp)
 100d9d4:	e0bffe17 	ldw	r2,-8(fp)
 100d9d8:	1885c83a 	sub	r2,r3,r2
 100d9dc:	e037883a 	mov	sp,fp
 100d9e0:	dfc00117 	ldw	ra,4(sp)
 100d9e4:	df000017 	ldw	fp,0(sp)
 100d9e8:	dec00204 	addi	sp,sp,8
 100d9ec:	f800283a 	ret

0100d9f0 <slsmemcpy>:
 100d9f0:	defff304 	addi	sp,sp,-52
 100d9f4:	df000c15 	stw	fp,48(sp)
 100d9f8:	df000c04 	addi	fp,sp,48
 100d9fc:	e13ffc15 	stw	r4,-16(fp)
 100da00:	e17ffd15 	stw	r5,-12(fp)
 100da04:	e1bffe15 	stw	r6,-8(fp)
 100da08:	e1ffff15 	stw	r7,-4(fp)
 100da0c:	e0bffd17 	ldw	r2,-12(fp)
 100da10:	e0bff415 	stw	r2,-48(fp)
 100da14:	e0bffe17 	ldw	r2,-8(fp)
 100da18:	e0bff515 	stw	r2,-44(fp)
 100da1c:	e03ff815 	stw	zero,-32(fp)
 100da20:	e0bfff17 	ldw	r2,-4(fp)
 100da24:	1000010e 	bge	r2,zero,100da2c <slsmemcpy+0x3c>
 100da28:	108000c4 	addi	r2,r2,3
 100da2c:	1005d0ba 	srai	r2,r2,2
 100da30:	e0bff915 	stw	r2,-28(fp)
 100da34:	e0bff417 	ldw	r2,-48(fp)
 100da38:	e0bffa15 	stw	r2,-24(fp)
 100da3c:	e0bff517 	ldw	r2,-44(fp)
 100da40:	e0bffb15 	stw	r2,-20(fp)
 100da44:	e0bffa17 	ldw	r2,-24(fp)
 100da48:	108000cc 	andi	r2,r2,3
 100da4c:	1000131e 	bne	r2,zero,100da9c <slsmemcpy+0xac>
 100da50:	e0bffb17 	ldw	r2,-20(fp)
 100da54:	108000cc 	andi	r2,r2,3
 100da58:	1000101e 	bne	r2,zero,100da9c <slsmemcpy+0xac>
 100da5c:	e03ff815 	stw	zero,-32(fp)
 100da60:	00000b06 	br	100da90 <slsmemcpy+0xa0>
 100da64:	e0bff417 	ldw	r2,-48(fp)
 100da68:	10c00104 	addi	r3,r2,4
 100da6c:	e0fff415 	stw	r3,-48(fp)
 100da70:	e0fff517 	ldw	r3,-44(fp)
 100da74:	19000104 	addi	r4,r3,4
 100da78:	e13ff515 	stw	r4,-44(fp)
 100da7c:	18c00017 	ldw	r3,0(r3)
 100da80:	10c00015 	stw	r3,0(r2)
 100da84:	e0bff817 	ldw	r2,-32(fp)
 100da88:	10800044 	addi	r2,r2,1
 100da8c:	e0bff815 	stw	r2,-32(fp)
 100da90:	e0fff817 	ldw	r3,-32(fp)
 100da94:	e0bff917 	ldw	r2,-28(fp)
 100da98:	18bff216 	blt	r3,r2,100da64 <__alt_data_end+0xfffed264>
 100da9c:	e0bff417 	ldw	r2,-48(fp)
 100daa0:	e0bff615 	stw	r2,-40(fp)
 100daa4:	e0bff517 	ldw	r2,-44(fp)
 100daa8:	e0bff715 	stw	r2,-36(fp)
 100daac:	e0bff817 	ldw	r2,-32(fp)
 100dab0:	1085883a 	add	r2,r2,r2
 100dab4:	1085883a 	add	r2,r2,r2
 100dab8:	e0bff815 	stw	r2,-32(fp)
 100dabc:	e0bff817 	ldw	r2,-32(fp)
 100dac0:	e0ffff17 	ldw	r3,-4(fp)
 100dac4:	18800f16 	blt	r3,r2,100db04 <slsmemcpy+0x114>
 100dac8:	00000b06 	br	100daf8 <slsmemcpy+0x108>
 100dacc:	e0bff617 	ldw	r2,-40(fp)
 100dad0:	10c00044 	addi	r3,r2,1
 100dad4:	e0fff615 	stw	r3,-40(fp)
 100dad8:	e0fff717 	ldw	r3,-36(fp)
 100dadc:	19000044 	addi	r4,r3,1
 100dae0:	e13ff715 	stw	r4,-36(fp)
 100dae4:	18c00003 	ldbu	r3,0(r3)
 100dae8:	10c00005 	stb	r3,0(r2)
 100daec:	e0bff817 	ldw	r2,-32(fp)
 100daf0:	10800044 	addi	r2,r2,1
 100daf4:	e0bff815 	stw	r2,-32(fp)
 100daf8:	e0fff817 	ldw	r3,-32(fp)
 100dafc:	e0bfff17 	ldw	r2,-4(fp)
 100db00:	18bff216 	blt	r3,r2,100dacc <__alt_data_end+0xfffed2cc>
 100db04:	e037883a 	mov	sp,fp
 100db08:	df000017 	ldw	fp,0(sp)
 100db0c:	dec00104 	addi	sp,sp,4
 100db10:	f800283a 	ret

0100db14 <usb20sr_without_dma_read>:
 100db14:	deffeb04 	addi	sp,sp,-84
 100db18:	dfc01415 	stw	ra,80(sp)
 100db1c:	df001315 	stw	fp,76(sp)
 100db20:	df001304 	addi	fp,sp,76
 100db24:	e13ffc15 	stw	r4,-16(fp)
 100db28:	2805883a 	mov	r2,r5
 100db2c:	e1bffe15 	stw	r6,-8(fp)
 100db30:	e1ffff15 	stw	r7,-4(fp)
 100db34:	e0bffd05 	stb	r2,-12(fp)
 100db38:	0001883a 	nop
 100db3c:	e0bffc17 	ldw	r2,-16(fp)
 100db40:	10800e17 	ldw	r2,56(r2)
 100db44:	103ffd1e 	bne	r2,zero,100db3c <__alt_data_end+0xfffed33c>
 100db48:	e0bffc17 	ldw	r2,-16(fp)
 100db4c:	10003315 	stw	zero,204(r2)
 100db50:	e0bffe17 	ldw	r2,-8(fp)
 100db54:	e0bfed15 	stw	r2,-76(fp)
 100db58:	e0bfff17 	ldw	r2,-4(fp)
 100db5c:	e0bfee15 	stw	r2,-72(fp)
 100db60:	e03fef15 	stw	zero,-68(fp)
 100db64:	e0bffc17 	ldw	r2,-16(fp)
 100db68:	10801517 	ldw	r2,84(r2)
 100db6c:	e0bff015 	stw	r2,-64(fp)
 100db70:	e0bffd03 	ldbu	r2,-12(fp)
 100db74:	e0fffc17 	ldw	r3,-16(fp)
 100db78:	1885883a 	add	r2,r3,r2
 100db7c:	10819a04 	addi	r2,r2,1640
 100db80:	10800003 	ldbu	r2,0(r2)
 100db84:	10803fcc 	andi	r2,r2,255
 100db88:	e0bff115 	stw	r2,-60(fp)
 100db8c:	e0bffd03 	ldbu	r2,-12(fp)
 100db90:	e0fffc17 	ldw	r3,-16(fp)
 100db94:	1885883a 	add	r2,r3,r2
 100db98:	10819e04 	addi	r2,r2,1656
 100db9c:	10800003 	ldbu	r2,0(r2)
 100dba0:	10803fcc 	andi	r2,r2,255
 100dba4:	e0bff215 	stw	r2,-56(fp)
 100dba8:	e0bffc17 	ldw	r2,-16(fp)
 100dbac:	10801617 	ldw	r2,88(r2)
 100dbb0:	e0bff315 	stw	r2,-52(fp)
 100dbb4:	e0bffd03 	ldbu	r2,-12(fp)
 100dbb8:	e0fffc17 	ldw	r3,-16(fp)
 100dbbc:	10805e84 	addi	r2,r2,378
 100dbc0:	1085883a 	add	r2,r2,r2
 100dbc4:	1085883a 	add	r2,r2,r2
 100dbc8:	1885883a 	add	r2,r3,r2
 100dbcc:	10800017 	ldw	r2,0(r2)
 100dbd0:	e0bff415 	stw	r2,-48(fp)
 100dbd4:	e0bffd03 	ldbu	r2,-12(fp)
 100dbd8:	e0fffc17 	ldw	r3,-16(fp)
 100dbdc:	10806284 	addi	r2,r2,394
 100dbe0:	1085883a 	add	r2,r2,r2
 100dbe4:	1085883a 	add	r2,r2,r2
 100dbe8:	1885883a 	add	r2,r3,r2
 100dbec:	10800017 	ldw	r2,0(r2)
 100dbf0:	e0bff515 	stw	r2,-44(fp)
 100dbf4:	e0fff317 	ldw	r3,-52(fp)
 100dbf8:	e0bff417 	ldw	r2,-48(fp)
 100dbfc:	1885883a 	add	r2,r3,r2
 100dc00:	e0bff615 	stw	r2,-40(fp)
 100dc04:	e0fff317 	ldw	r3,-52(fp)
 100dc08:	e0bff517 	ldw	r2,-44(fp)
 100dc0c:	1885883a 	add	r2,r3,r2
 100dc10:	e0bff715 	stw	r2,-36(fp)
 100dc14:	e0bffd03 	ldbu	r2,-12(fp)
 100dc18:	e0fffc17 	ldw	r3,-16(fp)
 100dc1c:	10805284 	addi	r2,r2,330
 100dc20:	1085883a 	add	r2,r2,r2
 100dc24:	1085883a 	add	r2,r2,r2
 100dc28:	1885883a 	add	r2,r3,r2
 100dc2c:	10800017 	ldw	r2,0(r2)
 100dc30:	e0bff815 	stw	r2,-32(fp)
 100dc34:	e0bffd03 	ldbu	r2,-12(fp)
 100dc38:	e0fffc17 	ldw	r3,-16(fp)
 100dc3c:	10806884 	addi	r2,r2,418
 100dc40:	1085883a 	add	r2,r2,r2
 100dc44:	1085883a 	add	r2,r2,r2
 100dc48:	1885883a 	add	r2,r3,r2
 100dc4c:	10800017 	ldw	r2,0(r2)
 100dc50:	e0bffb15 	stw	r2,-20(fp)
 100dc54:	e0bff817 	ldw	r2,-32(fp)
 100dc58:	1006947a 	slli	r3,r2,17
 100dc5c:	e0bff417 	ldw	r2,-48(fp)
 100dc60:	1884b03a 	or	r2,r3,r2
 100dc64:	e0bff915 	stw	r2,-28(fp)
 100dc68:	e0bff817 	ldw	r2,-32(fp)
 100dc6c:	1006947a 	slli	r3,r2,17
 100dc70:	e0bff517 	ldw	r2,-44(fp)
 100dc74:	1884b03a 	or	r2,r3,r2
 100dc78:	e0bffa15 	stw	r2,-24(fp)
 100dc7c:	00004d06 	br	100ddb4 <usb20sr_without_dma_read+0x2a0>
 100dc80:	e0bffb17 	ldw	r2,-20(fp)
 100dc84:	1000211e 	bne	r2,zero,100dd0c <usb20sr_without_dma_read+0x1f8>
 100dc88:	e0bff117 	ldw	r2,-60(fp)
 100dc8c:	1085883a 	add	r2,r2,r2
 100dc90:	1085883a 	add	r2,r2,r2
 100dc94:	1007883a 	mov	r3,r2
 100dc98:	e0bff017 	ldw	r2,-64(fp)
 100dc9c:	1885883a 	add	r2,r3,r2
 100dca0:	10800037 	ldwio	r2,0(r2)
 100dca4:	1000190e 	bge	r2,zero,100dd0c <usb20sr_without_dma_read+0x1f8>
 100dca8:	e0bffc17 	ldw	r2,-16(fp)
 100dcac:	10803317 	ldw	r2,204(r2)
 100dcb0:	1000091e 	bne	r2,zero,100dcd8 <usb20sr_without_dma_read+0x1c4>
 100dcb4:	e0bff117 	ldw	r2,-60(fp)
 100dcb8:	1085883a 	add	r2,r2,r2
 100dcbc:	1085883a 	add	r2,r2,r2
 100dcc0:	1007883a 	mov	r3,r2
 100dcc4:	e0bff017 	ldw	r2,-64(fp)
 100dcc8:	1885883a 	add	r2,r3,r2
 100dccc:	1007883a 	mov	r3,r2
 100dcd0:	e0bff917 	ldw	r2,-28(fp)
 100dcd4:	18800035 	stwio	r2,0(r3)
 100dcd8:	e0bffd03 	ldbu	r2,-12(fp)
 100dcdc:	e0fffc17 	ldw	r3,-16(fp)
 100dce0:	10803a44 	addi	r2,r2,233
 100dce4:	1085883a 	add	r2,r2,r2
 100dce8:	1085883a 	add	r2,r2,r2
 100dcec:	1885883a 	add	r2,r3,r2
 100dcf0:	00c00044 	movi	r3,1
 100dcf4:	10c00015 	stw	r3,0(r2)
 100dcf8:	e0bffc17 	ldw	r2,-16(fp)
 100dcfc:	00c00084 	movi	r3,2
 100dd00:	10c03315 	stw	r3,204(r2)
 100dd04:	0005883a 	mov	r2,zero
 100dd08:	0000cf06 	br	100e048 <usb20sr_without_dma_read+0x534>
 100dd0c:	e0bffb17 	ldw	r2,-20(fp)
 100dd10:	10002026 	beq	r2,zero,100dd94 <usb20sr_without_dma_read+0x280>
 100dd14:	e0bff217 	ldw	r2,-56(fp)
 100dd18:	1085883a 	add	r2,r2,r2
 100dd1c:	1085883a 	add	r2,r2,r2
 100dd20:	1007883a 	mov	r3,r2
 100dd24:	e0bff017 	ldw	r2,-64(fp)
 100dd28:	1885883a 	add	r2,r3,r2
 100dd2c:	10800037 	ldwio	r2,0(r2)
 100dd30:	1000180e 	bge	r2,zero,100dd94 <usb20sr_without_dma_read+0x280>
 100dd34:	e0bffc17 	ldw	r2,-16(fp)
 100dd38:	10803317 	ldw	r2,204(r2)
 100dd3c:	1000091e 	bne	r2,zero,100dd64 <usb20sr_without_dma_read+0x250>
 100dd40:	e0bff217 	ldw	r2,-56(fp)
 100dd44:	1085883a 	add	r2,r2,r2
 100dd48:	1085883a 	add	r2,r2,r2
 100dd4c:	1007883a 	mov	r3,r2
 100dd50:	e0bff017 	ldw	r2,-64(fp)
 100dd54:	1885883a 	add	r2,r3,r2
 100dd58:	1007883a 	mov	r3,r2
 100dd5c:	e0bffa17 	ldw	r2,-24(fp)
 100dd60:	18800035 	stwio	r2,0(r3)
 100dd64:	e0bffd03 	ldbu	r2,-12(fp)
 100dd68:	e0fffc17 	ldw	r3,-16(fp)
 100dd6c:	10803a44 	addi	r2,r2,233
 100dd70:	1085883a 	add	r2,r2,r2
 100dd74:	1085883a 	add	r2,r2,r2
 100dd78:	1885883a 	add	r2,r3,r2
 100dd7c:	10000015 	stw	zero,0(r2)
 100dd80:	e0bffc17 	ldw	r2,-16(fp)
 100dd84:	00c00084 	movi	r3,2
 100dd88:	10c03315 	stw	r3,204(r2)
 100dd8c:	0005883a 	mov	r2,zero
 100dd90:	0000ad06 	br	100e048 <usb20sr_without_dma_read+0x534>
 100dd94:	e0bffc17 	ldw	r2,-16(fp)
 100dd98:	10803317 	ldw	r2,204(r2)
 100dd9c:	10000526 	beq	r2,zero,100ddb4 <usb20sr_without_dma_read+0x2a0>
 100dda0:	e0bffc17 	ldw	r2,-16(fp)
 100dda4:	00c00084 	movi	r3,2
 100dda8:	10c03315 	stw	r3,204(r2)
 100ddac:	00bfffc4 	movi	r2,-1
 100ddb0:	0000a506 	br	100e048 <usb20sr_without_dma_read+0x534>
 100ddb4:	e0bfee17 	ldw	r2,-72(fp)
 100ddb8:	103fb126 	beq	r2,zero,100dc80 <__alt_data_end+0xfffed480>
 100ddbc:	00009106 	br	100e004 <usb20sr_without_dma_read+0x4f0>
 100ddc0:	e0bffb17 	ldw	r2,-20(fp)
 100ddc4:	1000421e 	bne	r2,zero,100ded0 <usb20sr_without_dma_read+0x3bc>
 100ddc8:	e0bff117 	ldw	r2,-60(fp)
 100ddcc:	1085883a 	add	r2,r2,r2
 100ddd0:	1085883a 	add	r2,r2,r2
 100ddd4:	1007883a 	mov	r3,r2
 100ddd8:	e0bff017 	ldw	r2,-64(fp)
 100dddc:	1885883a 	add	r2,r3,r2
 100dde0:	10800037 	ldwio	r2,0(r2)
 100dde4:	10003a0e 	bge	r2,zero,100ded0 <usb20sr_without_dma_read+0x3bc>
 100dde8:	e0fff817 	ldw	r3,-32(fp)
 100ddec:	e0bff117 	ldw	r2,-60(fp)
 100ddf0:	1085883a 	add	r2,r2,r2
 100ddf4:	1085883a 	add	r2,r2,r2
 100ddf8:	1009883a 	mov	r4,r2
 100ddfc:	e0bff017 	ldw	r2,-64(fp)
 100de00:	2085883a 	add	r2,r4,r2
 100de04:	10800037 	ldwio	r2,0(r2)
 100de08:	109fffec 	andhi	r2,r2,32767
 100de0c:	1005d47a 	srai	r2,r2,17
 100de10:	1885c83a 	sub	r2,r3,r2
 100de14:	e0bfef15 	stw	r2,-68(fp)
 100de18:	e0bff617 	ldw	r2,-40(fp)
 100de1c:	1007883a 	mov	r3,r2
 100de20:	e0bfef17 	ldw	r2,-68(fp)
 100de24:	1809883a 	mov	r4,r3
 100de28:	100b883a 	mov	r5,r2
 100de2c:	10112d80 	call	10112d8 <alt_dcache_flush>
 100de30:	e0bfef17 	ldw	r2,-68(fp)
 100de34:	e13fed17 	ldw	r4,-76(fp)
 100de38:	100b883a 	mov	r5,r2
 100de3c:	10112d80 	call	10112d8 <alt_dcache_flush>
 100de40:	e0fff017 	ldw	r3,-64(fp)
 100de44:	e0bff617 	ldw	r2,-40(fp)
 100de48:	10a00034 	orhi	r2,r2,32768
 100de4c:	100d883a 	mov	r6,r2
 100de50:	e0bfef17 	ldw	r2,-68(fp)
 100de54:	1809883a 	mov	r4,r3
 100de58:	e17fed17 	ldw	r5,-76(fp)
 100de5c:	100f883a 	mov	r7,r2
 100de60:	100d9f00 	call	100d9f0 <slsmemcpy>
 100de64:	e0bfef17 	ldw	r2,-68(fp)
 100de68:	e13fed17 	ldw	r4,-76(fp)
 100de6c:	100b883a 	mov	r5,r2
 100de70:	10112d80 	call	10112d8 <alt_dcache_flush>
 100de74:	e0bffc17 	ldw	r2,-16(fp)
 100de78:	10803317 	ldw	r2,204(r2)
 100de7c:	1000091e 	bne	r2,zero,100dea4 <usb20sr_without_dma_read+0x390>
 100de80:	e0bff117 	ldw	r2,-60(fp)
 100de84:	1085883a 	add	r2,r2,r2
 100de88:	1085883a 	add	r2,r2,r2
 100de8c:	1007883a 	mov	r3,r2
 100de90:	e0bff017 	ldw	r2,-64(fp)
 100de94:	1885883a 	add	r2,r3,r2
 100de98:	1007883a 	mov	r3,r2
 100de9c:	e0bff917 	ldw	r2,-28(fp)
 100dea0:	18800035 	stwio	r2,0(r3)
 100dea4:	00800044 	movi	r2,1
 100dea8:	e0bffb15 	stw	r2,-20(fp)
 100deac:	e0bfef17 	ldw	r2,-68(fp)
 100deb0:	e0ffee17 	ldw	r3,-72(fp)
 100deb4:	1885c83a 	sub	r2,r3,r2
 100deb8:	e0bfee15 	stw	r2,-72(fp)
 100debc:	e0bfef17 	ldw	r2,-68(fp)
 100dec0:	1007883a 	mov	r3,r2
 100dec4:	e0bfed17 	ldw	r2,-76(fp)
 100dec8:	10c5883a 	add	r2,r2,r3
 100decc:	e0bfed15 	stw	r2,-76(fp)
 100ded0:	e0bfee17 	ldw	r2,-72(fp)
 100ded4:	0080430e 	bge	zero,r2,100dfe4 <usb20sr_without_dma_read+0x4d0>
 100ded8:	e0bffb17 	ldw	r2,-20(fp)
 100dedc:	10004126 	beq	r2,zero,100dfe4 <usb20sr_without_dma_read+0x4d0>
 100dee0:	e0bff217 	ldw	r2,-56(fp)
 100dee4:	1085883a 	add	r2,r2,r2
 100dee8:	1085883a 	add	r2,r2,r2
 100deec:	1007883a 	mov	r3,r2
 100def0:	e0bff017 	ldw	r2,-64(fp)
 100def4:	1885883a 	add	r2,r3,r2
 100def8:	10800037 	ldwio	r2,0(r2)
 100defc:	1000390e 	bge	r2,zero,100dfe4 <usb20sr_without_dma_read+0x4d0>
 100df00:	e0fff817 	ldw	r3,-32(fp)
 100df04:	e0bff217 	ldw	r2,-56(fp)
 100df08:	1085883a 	add	r2,r2,r2
 100df0c:	1085883a 	add	r2,r2,r2
 100df10:	1009883a 	mov	r4,r2
 100df14:	e0bff017 	ldw	r2,-64(fp)
 100df18:	2085883a 	add	r2,r4,r2
 100df1c:	10800037 	ldwio	r2,0(r2)
 100df20:	109fffec 	andhi	r2,r2,32767
 100df24:	1005d47a 	srai	r2,r2,17
 100df28:	1885c83a 	sub	r2,r3,r2
 100df2c:	e0bfef15 	stw	r2,-68(fp)
 100df30:	e0bff717 	ldw	r2,-36(fp)
 100df34:	1007883a 	mov	r3,r2
 100df38:	e0bfef17 	ldw	r2,-68(fp)
 100df3c:	1809883a 	mov	r4,r3
 100df40:	100b883a 	mov	r5,r2
 100df44:	10112d80 	call	10112d8 <alt_dcache_flush>
 100df48:	e0bfef17 	ldw	r2,-68(fp)
 100df4c:	e13fed17 	ldw	r4,-76(fp)
 100df50:	100b883a 	mov	r5,r2
 100df54:	10112d80 	call	10112d8 <alt_dcache_flush>
 100df58:	e0fff017 	ldw	r3,-64(fp)
 100df5c:	e0bff717 	ldw	r2,-36(fp)
 100df60:	10a00034 	orhi	r2,r2,32768
 100df64:	100d883a 	mov	r6,r2
 100df68:	e0bfef17 	ldw	r2,-68(fp)
 100df6c:	1809883a 	mov	r4,r3
 100df70:	e17fed17 	ldw	r5,-76(fp)
 100df74:	100f883a 	mov	r7,r2
 100df78:	100d9f00 	call	100d9f0 <slsmemcpy>
 100df7c:	e0bfef17 	ldw	r2,-68(fp)
 100df80:	e13fed17 	ldw	r4,-76(fp)
 100df84:	100b883a 	mov	r5,r2
 100df88:	10112d80 	call	10112d8 <alt_dcache_flush>
 100df8c:	e0bffc17 	ldw	r2,-16(fp)
 100df90:	10803317 	ldw	r2,204(r2)
 100df94:	1000091e 	bne	r2,zero,100dfbc <usb20sr_without_dma_read+0x4a8>
 100df98:	e0bff217 	ldw	r2,-56(fp)
 100df9c:	1085883a 	add	r2,r2,r2
 100dfa0:	1085883a 	add	r2,r2,r2
 100dfa4:	1007883a 	mov	r3,r2
 100dfa8:	e0bff017 	ldw	r2,-64(fp)
 100dfac:	1885883a 	add	r2,r3,r2
 100dfb0:	1007883a 	mov	r3,r2
 100dfb4:	e0bffa17 	ldw	r2,-24(fp)
 100dfb8:	18800035 	stwio	r2,0(r3)
 100dfbc:	e03ffb15 	stw	zero,-20(fp)
 100dfc0:	e0bfef17 	ldw	r2,-68(fp)
 100dfc4:	e0ffee17 	ldw	r3,-72(fp)
 100dfc8:	1885c83a 	sub	r2,r3,r2
 100dfcc:	e0bfee15 	stw	r2,-72(fp)
 100dfd0:	e0bfef17 	ldw	r2,-68(fp)
 100dfd4:	1007883a 	mov	r3,r2
 100dfd8:	e0bfed17 	ldw	r2,-76(fp)
 100dfdc:	10c5883a 	add	r2,r2,r3
 100dfe0:	e0bfed15 	stw	r2,-76(fp)
 100dfe4:	e0bffc17 	ldw	r2,-16(fp)
 100dfe8:	10803317 	ldw	r2,204(r2)
 100dfec:	10000526 	beq	r2,zero,100e004 <usb20sr_without_dma_read+0x4f0>
 100dff0:	e0bffc17 	ldw	r2,-16(fp)
 100dff4:	00c00084 	movi	r3,2
 100dff8:	10c03315 	stw	r3,204(r2)
 100dffc:	00bfffc4 	movi	r2,-1
 100e000:	00001106 	br	100e048 <usb20sr_without_dma_read+0x534>
 100e004:	e0bfee17 	ldw	r2,-72(fp)
 100e008:	00bf6d16 	blt	zero,r2,100ddc0 <__alt_data_end+0xfffed5c0>
 100e00c:	e0bffd03 	ldbu	r2,-12(fp)
 100e010:	e0fffb17 	ldw	r3,-20(fp)
 100e014:	1809883a 	mov	r4,r3
 100e018:	e0fffc17 	ldw	r3,-16(fp)
 100e01c:	10806884 	addi	r2,r2,418
 100e020:	1085883a 	add	r2,r2,r2
 100e024:	1085883a 	add	r2,r2,r2
 100e028:	1885883a 	add	r2,r3,r2
 100e02c:	11000015 	stw	r4,0(r2)
 100e030:	e0bffc17 	ldw	r2,-16(fp)
 100e034:	00c00084 	movi	r3,2
 100e038:	10c03315 	stw	r3,204(r2)
 100e03c:	e0ffed17 	ldw	r3,-76(fp)
 100e040:	e0bffe17 	ldw	r2,-8(fp)
 100e044:	1885c83a 	sub	r2,r3,r2
 100e048:	e037883a 	mov	sp,fp
 100e04c:	dfc00117 	ldw	ra,4(sp)
 100e050:	df000017 	ldw	fp,0(sp)
 100e054:	dec00204 	addi	sp,sp,8
 100e058:	f800283a 	ret

0100e05c <usb20sr_with_dma_read>:
 100e05c:	deffe504 	addi	sp,sp,-108
 100e060:	dfc01a15 	stw	ra,104(sp)
 100e064:	df001915 	stw	fp,100(sp)
 100e068:	df001904 	addi	fp,sp,100
 100e06c:	e13ffc15 	stw	r4,-16(fp)
 100e070:	2805883a 	mov	r2,r5
 100e074:	e1bffe15 	stw	r6,-8(fp)
 100e078:	e1ffff15 	stw	r7,-4(fp)
 100e07c:	e0bffd05 	stb	r2,-12(fp)
 100e080:	0001883a 	nop
 100e084:	e0bffc17 	ldw	r2,-16(fp)
 100e088:	10800e17 	ldw	r2,56(r2)
 100e08c:	103ffd1e 	bne	r2,zero,100e084 <__alt_data_end+0xfffed884>
 100e090:	e0bffc17 	ldw	r2,-16(fp)
 100e094:	10003315 	stw	zero,204(r2)
 100e098:	e0bffe17 	ldw	r2,-8(fp)
 100e09c:	e0bfe715 	stw	r2,-100(fp)
 100e0a0:	e0bffe17 	ldw	r2,-8(fp)
 100e0a4:	e0bfeb15 	stw	r2,-84(fp)
 100e0a8:	e0bfff17 	ldw	r2,-4(fp)
 100e0ac:	e0bfec15 	stw	r2,-80(fp)
 100e0b0:	e03fed15 	stw	zero,-76(fp)
 100e0b4:	e0bffc17 	ldw	r2,-16(fp)
 100e0b8:	10801717 	ldw	r2,92(r2)
 100e0bc:	e0bfee15 	stw	r2,-72(fp)
 100e0c0:	e0bffc17 	ldw	r2,-16(fp)
 100e0c4:	10801517 	ldw	r2,84(r2)
 100e0c8:	e0bfef15 	stw	r2,-68(fp)
 100e0cc:	e0bffd03 	ldbu	r2,-12(fp)
 100e0d0:	e0fffc17 	ldw	r3,-16(fp)
 100e0d4:	1885883a 	add	r2,r3,r2
 100e0d8:	10819a04 	addi	r2,r2,1640
 100e0dc:	10800003 	ldbu	r2,0(r2)
 100e0e0:	10803fcc 	andi	r2,r2,255
 100e0e4:	e0bff015 	stw	r2,-64(fp)
 100e0e8:	e0bffd03 	ldbu	r2,-12(fp)
 100e0ec:	e0fffc17 	ldw	r3,-16(fp)
 100e0f0:	1885883a 	add	r2,r3,r2
 100e0f4:	10819e04 	addi	r2,r2,1656
 100e0f8:	10800003 	ldbu	r2,0(r2)
 100e0fc:	10803fcc 	andi	r2,r2,255
 100e100:	e0bff115 	stw	r2,-60(fp)
 100e104:	e0bffc17 	ldw	r2,-16(fp)
 100e108:	10801617 	ldw	r2,88(r2)
 100e10c:	e0bff215 	stw	r2,-56(fp)
 100e110:	e0bffd03 	ldbu	r2,-12(fp)
 100e114:	e0fffc17 	ldw	r3,-16(fp)
 100e118:	10805e84 	addi	r2,r2,378
 100e11c:	1085883a 	add	r2,r2,r2
 100e120:	1085883a 	add	r2,r2,r2
 100e124:	1885883a 	add	r2,r3,r2
 100e128:	10800017 	ldw	r2,0(r2)
 100e12c:	e0bff315 	stw	r2,-52(fp)
 100e130:	e0bffd03 	ldbu	r2,-12(fp)
 100e134:	e0fffc17 	ldw	r3,-16(fp)
 100e138:	10806284 	addi	r2,r2,394
 100e13c:	1085883a 	add	r2,r2,r2
 100e140:	1085883a 	add	r2,r2,r2
 100e144:	1885883a 	add	r2,r3,r2
 100e148:	10800017 	ldw	r2,0(r2)
 100e14c:	e0bff415 	stw	r2,-48(fp)
 100e150:	e0fff217 	ldw	r3,-56(fp)
 100e154:	e0bff317 	ldw	r2,-52(fp)
 100e158:	1885883a 	add	r2,r3,r2
 100e15c:	e0bff515 	stw	r2,-44(fp)
 100e160:	e0fff217 	ldw	r3,-56(fp)
 100e164:	e0bff417 	ldw	r2,-48(fp)
 100e168:	1885883a 	add	r2,r3,r2
 100e16c:	e0bff615 	stw	r2,-40(fp)
 100e170:	e0bffd03 	ldbu	r2,-12(fp)
 100e174:	e0fffc17 	ldw	r3,-16(fp)
 100e178:	10805284 	addi	r2,r2,330
 100e17c:	1085883a 	add	r2,r2,r2
 100e180:	1085883a 	add	r2,r2,r2
 100e184:	1885883a 	add	r2,r3,r2
 100e188:	10800017 	ldw	r2,0(r2)
 100e18c:	e0bff715 	stw	r2,-36(fp)
 100e190:	e03ff815 	stw	zero,-32(fp)
 100e194:	e03ff915 	stw	zero,-28(fp)
 100e198:	e0bffd03 	ldbu	r2,-12(fp)
 100e19c:	e0fffc17 	ldw	r3,-16(fp)
 100e1a0:	10806884 	addi	r2,r2,418
 100e1a4:	1085883a 	add	r2,r2,r2
 100e1a8:	1085883a 	add	r2,r2,r2
 100e1ac:	1885883a 	add	r2,r3,r2
 100e1b0:	10800017 	ldw	r2,0(r2)
 100e1b4:	e0bffa15 	stw	r2,-24(fp)
 100e1b8:	e0bff717 	ldw	r2,-36(fp)
 100e1bc:	1006947a 	slli	r3,r2,17
 100e1c0:	e0bff317 	ldw	r2,-52(fp)
 100e1c4:	1884b03a 	or	r2,r3,r2
 100e1c8:	e0bff815 	stw	r2,-32(fp)
 100e1cc:	e0bff717 	ldw	r2,-36(fp)
 100e1d0:	1006947a 	slli	r3,r2,17
 100e1d4:	e0bff417 	ldw	r2,-48(fp)
 100e1d8:	1884b03a 	or	r2,r3,r2
 100e1dc:	e0bff915 	stw	r2,-28(fp)
 100e1e0:	e03ffb15 	stw	zero,-20(fp)
 100e1e4:	e0bfeb17 	ldw	r2,-84(fp)
 100e1e8:	108000cc 	andi	r2,r2,3
 100e1ec:	10000226 	beq	r2,zero,100e1f8 <usb20sr_with_dma_read+0x19c>
 100e1f0:	00800044 	movi	r2,1
 100e1f4:	e0bffb15 	stw	r2,-20(fp)
 100e1f8:	00004d06 	br	100e330 <usb20sr_with_dma_read+0x2d4>
 100e1fc:	e0bffa17 	ldw	r2,-24(fp)
 100e200:	1000211e 	bne	r2,zero,100e288 <usb20sr_with_dma_read+0x22c>
 100e204:	e0bff017 	ldw	r2,-64(fp)
 100e208:	1085883a 	add	r2,r2,r2
 100e20c:	1085883a 	add	r2,r2,r2
 100e210:	1007883a 	mov	r3,r2
 100e214:	e0bfef17 	ldw	r2,-68(fp)
 100e218:	1885883a 	add	r2,r3,r2
 100e21c:	10800037 	ldwio	r2,0(r2)
 100e220:	1000190e 	bge	r2,zero,100e288 <usb20sr_with_dma_read+0x22c>
 100e224:	e0bffc17 	ldw	r2,-16(fp)
 100e228:	10803317 	ldw	r2,204(r2)
 100e22c:	1000091e 	bne	r2,zero,100e254 <usb20sr_with_dma_read+0x1f8>
 100e230:	e0bff017 	ldw	r2,-64(fp)
 100e234:	1085883a 	add	r2,r2,r2
 100e238:	1085883a 	add	r2,r2,r2
 100e23c:	1007883a 	mov	r3,r2
 100e240:	e0bfef17 	ldw	r2,-68(fp)
 100e244:	1885883a 	add	r2,r3,r2
 100e248:	1007883a 	mov	r3,r2
 100e24c:	e0bff817 	ldw	r2,-32(fp)
 100e250:	18800035 	stwio	r2,0(r3)
 100e254:	e0bffd03 	ldbu	r2,-12(fp)
 100e258:	e0fffc17 	ldw	r3,-16(fp)
 100e25c:	10803a44 	addi	r2,r2,233
 100e260:	1085883a 	add	r2,r2,r2
 100e264:	1085883a 	add	r2,r2,r2
 100e268:	1885883a 	add	r2,r3,r2
 100e26c:	00c00044 	movi	r3,1
 100e270:	10c00015 	stw	r3,0(r2)
 100e274:	e0bffc17 	ldw	r2,-16(fp)
 100e278:	00c00084 	movi	r3,2
 100e27c:	10c03315 	stw	r3,204(r2)
 100e280:	0005883a 	mov	r2,zero
 100e284:	00014e06 	br	100e7c0 <usb20sr_with_dma_read+0x764>
 100e288:	e0bffa17 	ldw	r2,-24(fp)
 100e28c:	10002026 	beq	r2,zero,100e310 <usb20sr_with_dma_read+0x2b4>
 100e290:	e0bff117 	ldw	r2,-60(fp)
 100e294:	1085883a 	add	r2,r2,r2
 100e298:	1085883a 	add	r2,r2,r2
 100e29c:	1007883a 	mov	r3,r2
 100e2a0:	e0bfef17 	ldw	r2,-68(fp)
 100e2a4:	1885883a 	add	r2,r3,r2
 100e2a8:	10800037 	ldwio	r2,0(r2)
 100e2ac:	1000180e 	bge	r2,zero,100e310 <usb20sr_with_dma_read+0x2b4>
 100e2b0:	e0bffc17 	ldw	r2,-16(fp)
 100e2b4:	10803317 	ldw	r2,204(r2)
 100e2b8:	1000091e 	bne	r2,zero,100e2e0 <usb20sr_with_dma_read+0x284>
 100e2bc:	e0bff117 	ldw	r2,-60(fp)
 100e2c0:	1085883a 	add	r2,r2,r2
 100e2c4:	1085883a 	add	r2,r2,r2
 100e2c8:	1007883a 	mov	r3,r2
 100e2cc:	e0bfef17 	ldw	r2,-68(fp)
 100e2d0:	1885883a 	add	r2,r3,r2
 100e2d4:	1007883a 	mov	r3,r2
 100e2d8:	e0bff917 	ldw	r2,-28(fp)
 100e2dc:	18800035 	stwio	r2,0(r3)
 100e2e0:	e0bffd03 	ldbu	r2,-12(fp)
 100e2e4:	e0fffc17 	ldw	r3,-16(fp)
 100e2e8:	10803a44 	addi	r2,r2,233
 100e2ec:	1085883a 	add	r2,r2,r2
 100e2f0:	1085883a 	add	r2,r2,r2
 100e2f4:	1885883a 	add	r2,r3,r2
 100e2f8:	10000015 	stw	zero,0(r2)
 100e2fc:	e0bffc17 	ldw	r2,-16(fp)
 100e300:	00c00084 	movi	r3,2
 100e304:	10c03315 	stw	r3,204(r2)
 100e308:	0005883a 	mov	r2,zero
 100e30c:	00012c06 	br	100e7c0 <usb20sr_with_dma_read+0x764>
 100e310:	e0bffc17 	ldw	r2,-16(fp)
 100e314:	10803317 	ldw	r2,204(r2)
 100e318:	10000526 	beq	r2,zero,100e330 <usb20sr_with_dma_read+0x2d4>
 100e31c:	e0bffc17 	ldw	r2,-16(fp)
 100e320:	00c00084 	movi	r3,2
 100e324:	10c03315 	stw	r3,204(r2)
 100e328:	00bfffc4 	movi	r2,-1
 100e32c:	00012406 	br	100e7c0 <usb20sr_with_dma_read+0x764>
 100e330:	e0bfec17 	ldw	r2,-80(fp)
 100e334:	103fb126 	beq	r2,zero,100e1fc <__alt_data_end+0xfffed9fc>
 100e338:	e0800217 	ldw	r2,8(fp)
 100e33c:	1000411e 	bne	r2,zero,100e444 <usb20sr_with_dma_read+0x3e8>
 100e340:	e0bfff17 	ldw	r2,-4(fp)
 100e344:	e13fe717 	ldw	r4,-100(fp)
 100e348:	100b883a 	mov	r5,r2
 100e34c:	10112d80 	call	10112d8 <alt_dcache_flush>
 100e350:	e0bffc17 	ldw	r2,-16(fp)
 100e354:	10801217 	ldw	r2,72(r2)
 100e358:	e0bfe815 	stw	r2,-96(fp)
 100e35c:	e0bffd03 	ldbu	r2,-12(fp)
 100e360:	10800814 	ori	r2,r2,32
 100e364:	10c03fcc 	andi	r3,r2,255
 100e368:	e0bffa17 	ldw	r2,-24(fp)
 100e36c:	1004927a 	slli	r2,r2,9
 100e370:	1884b03a 	or	r2,r3,r2
 100e374:	e0bfe915 	stw	r2,-92(fp)
 100e378:	e0bfe817 	ldw	r2,-96(fp)
 100e37c:	10800104 	addi	r2,r2,4
 100e380:	1007883a 	mov	r3,r2
 100e384:	e0bfff17 	ldw	r2,-4(fp)
 100e388:	18800035 	stwio	r2,0(r3)
 100e38c:	e0bfe817 	ldw	r2,-96(fp)
 100e390:	10800204 	addi	r2,r2,8
 100e394:	1007883a 	mov	r3,r2
 100e398:	e0bff517 	ldw	r2,-44(fp)
 100e39c:	18800035 	stwio	r2,0(r3)
 100e3a0:	e0bfe817 	ldw	r2,-96(fp)
 100e3a4:	10800304 	addi	r2,r2,12
 100e3a8:	1007883a 	mov	r3,r2
 100e3ac:	e0bfe717 	ldw	r2,-100(fp)
 100e3b0:	18800035 	stwio	r2,0(r3)
 100e3b4:	e0bfe817 	ldw	r2,-96(fp)
 100e3b8:	10800504 	addi	r2,r2,20
 100e3bc:	1007883a 	mov	r3,r2
 100e3c0:	e0bfef17 	ldw	r2,-68(fp)
 100e3c4:	18800035 	stwio	r2,0(r3)
 100e3c8:	e0bfe817 	ldw	r2,-96(fp)
 100e3cc:	e0ffe917 	ldw	r3,-92(fp)
 100e3d0:	10c00035 	stwio	r3,0(r2)
 100e3d4:	0001883a 	nop
 100e3d8:	e0bfe817 	ldw	r2,-96(fp)
 100e3dc:	10800404 	addi	r2,r2,16
 100e3e0:	10800037 	ldwio	r2,0(r2)
 100e3e4:	1080004c 	andi	r2,r2,1
 100e3e8:	103ffb1e 	bne	r2,zero,100e3d8 <__alt_data_end+0xfffedbd8>
 100e3ec:	e0bff517 	ldw	r2,-44(fp)
 100e3f0:	1007883a 	mov	r3,r2
 100e3f4:	e0bfed17 	ldw	r2,-76(fp)
 100e3f8:	1809883a 	mov	r4,r3
 100e3fc:	100b883a 	mov	r5,r2
 100e400:	10112d80 	call	10112d8 <alt_dcache_flush>
 100e404:	e0bfe817 	ldw	r2,-96(fp)
 100e408:	10800404 	addi	r2,r2,16
 100e40c:	10800037 	ldwio	r2,0(r2)
 100e410:	1080008c 	andi	r2,r2,2
 100e414:	1005d07a 	srai	r2,r2,1
 100e418:	e0bfea15 	stw	r2,-88(fp)
 100e41c:	e0bfea17 	ldw	r2,-88(fp)
 100e420:	1080004c 	andi	r2,r2,1
 100e424:	1005003a 	cmpeq	r2,r2,zero
 100e428:	10803fcc 	andi	r2,r2,255
 100e42c:	e0bffa15 	stw	r2,-24(fp)
 100e430:	e0bfff17 	ldw	r2,-4(fp)
 100e434:	e0ffe717 	ldw	r3,-100(fp)
 100e438:	1885883a 	add	r2,r3,r2
 100e43c:	e0bfe715 	stw	r2,-100(fp)
 100e440:	0000d006 	br	100e784 <usb20sr_with_dma_read+0x728>
 100e444:	0000cd06 	br	100e77c <usb20sr_with_dma_read+0x720>
 100e448:	e0bffa17 	ldw	r2,-24(fp)
 100e44c:	1000601e 	bne	r2,zero,100e5d0 <usb20sr_with_dma_read+0x574>
 100e450:	e0bff017 	ldw	r2,-64(fp)
 100e454:	1085883a 	add	r2,r2,r2
 100e458:	1085883a 	add	r2,r2,r2
 100e45c:	1007883a 	mov	r3,r2
 100e460:	e0bfef17 	ldw	r2,-68(fp)
 100e464:	1885883a 	add	r2,r3,r2
 100e468:	10800037 	ldwio	r2,0(r2)
 100e46c:	1000580e 	bge	r2,zero,100e5d0 <usb20sr_with_dma_read+0x574>
 100e470:	e0fff717 	ldw	r3,-36(fp)
 100e474:	e0bff017 	ldw	r2,-64(fp)
 100e478:	1085883a 	add	r2,r2,r2
 100e47c:	1085883a 	add	r2,r2,r2
 100e480:	1009883a 	mov	r4,r2
 100e484:	e0bfef17 	ldw	r2,-68(fp)
 100e488:	2085883a 	add	r2,r4,r2
 100e48c:	10800037 	ldwio	r2,0(r2)
 100e490:	109fffec 	andhi	r2,r2,32767
 100e494:	1005d47a 	srai	r2,r2,17
 100e498:	1885c83a 	sub	r2,r3,r2
 100e49c:	e0bfed15 	stw	r2,-76(fp)
 100e4a0:	e0bfed17 	ldw	r2,-76(fp)
 100e4a4:	e13fe717 	ldw	r4,-100(fp)
 100e4a8:	100b883a 	mov	r5,r2
 100e4ac:	10112d80 	call	10112d8 <alt_dcache_flush>
 100e4b0:	0001883a 	nop
 100e4b4:	e0bfee17 	ldw	r2,-72(fp)
 100e4b8:	10800037 	ldwio	r2,0(r2)
 100e4bc:	1080008c 	andi	r2,r2,2
 100e4c0:	103ffc1e 	bne	r2,zero,100e4b4 <__alt_data_end+0xfffedcb4>
 100e4c4:	e0bfee17 	ldw	r2,-72(fp)
 100e4c8:	10800604 	addi	r2,r2,24
 100e4cc:	0007883a 	mov	r3,zero
 100e4d0:	10c00035 	stwio	r3,0(r2)
 100e4d4:	e0bfee17 	ldw	r2,-72(fp)
 100e4d8:	10800104 	addi	r2,r2,4
 100e4dc:	1007883a 	mov	r3,r2
 100e4e0:	e0bff517 	ldw	r2,-44(fp)
 100e4e4:	18800035 	stwio	r2,0(r3)
 100e4e8:	e0bfee17 	ldw	r2,-72(fp)
 100e4ec:	10800204 	addi	r2,r2,8
 100e4f0:	1007883a 	mov	r3,r2
 100e4f4:	e0bfe717 	ldw	r2,-100(fp)
 100e4f8:	18800035 	stwio	r2,0(r3)
 100e4fc:	e0bfee17 	ldw	r2,-72(fp)
 100e500:	10800304 	addi	r2,r2,12
 100e504:	1007883a 	mov	r3,r2
 100e508:	e0bfed17 	ldw	r2,-76(fp)
 100e50c:	18800035 	stwio	r2,0(r3)
 100e510:	e0bfed17 	ldw	r2,-76(fp)
 100e514:	108000cc 	andi	r2,r2,3
 100e518:	1000021e 	bne	r2,zero,100e524 <usb20sr_with_dma_read+0x4c8>
 100e51c:	e0bffb17 	ldw	r2,-20(fp)
 100e520:	10000626 	beq	r2,zero,100e53c <usb20sr_with_dma_read+0x4e0>
 100e524:	e0bfee17 	ldw	r2,-72(fp)
 100e528:	10800604 	addi	r2,r2,24
 100e52c:	1007883a 	mov	r3,r2
 100e530:	00802244 	movi	r2,137
 100e534:	18800035 	stwio	r2,0(r3)
 100e538:	00000506 	br	100e550 <usb20sr_with_dma_read+0x4f4>
 100e53c:	e0bfee17 	ldw	r2,-72(fp)
 100e540:	10800604 	addi	r2,r2,24
 100e544:	1007883a 	mov	r3,r2
 100e548:	00802304 	movi	r2,140
 100e54c:	18800035 	stwio	r2,0(r3)
 100e550:	0001883a 	nop
 100e554:	e0bfee17 	ldw	r2,-72(fp)
 100e558:	10800037 	ldwio	r2,0(r2)
 100e55c:	1080008c 	andi	r2,r2,2
 100e560:	103ffc1e 	bne	r2,zero,100e554 <__alt_data_end+0xfffedd54>
 100e564:	e0bfee17 	ldw	r2,-72(fp)
 100e568:	10800604 	addi	r2,r2,24
 100e56c:	0007883a 	mov	r3,zero
 100e570:	10c00035 	stwio	r3,0(r2)
 100e574:	e0bffc17 	ldw	r2,-16(fp)
 100e578:	10803317 	ldw	r2,204(r2)
 100e57c:	1000091e 	bne	r2,zero,100e5a4 <usb20sr_with_dma_read+0x548>
 100e580:	e0bff017 	ldw	r2,-64(fp)
 100e584:	1085883a 	add	r2,r2,r2
 100e588:	1085883a 	add	r2,r2,r2
 100e58c:	1007883a 	mov	r3,r2
 100e590:	e0bfef17 	ldw	r2,-68(fp)
 100e594:	1885883a 	add	r2,r3,r2
 100e598:	1007883a 	mov	r3,r2
 100e59c:	e0bff817 	ldw	r2,-32(fp)
 100e5a0:	18800035 	stwio	r2,0(r3)
 100e5a4:	00800044 	movi	r2,1
 100e5a8:	e0bffa15 	stw	r2,-24(fp)
 100e5ac:	e0bfed17 	ldw	r2,-76(fp)
 100e5b0:	e0ffec17 	ldw	r3,-80(fp)
 100e5b4:	1885c83a 	sub	r2,r3,r2
 100e5b8:	e0bfec15 	stw	r2,-80(fp)
 100e5bc:	e0bfed17 	ldw	r2,-76(fp)
 100e5c0:	1007883a 	mov	r3,r2
 100e5c4:	e0bfe717 	ldw	r2,-100(fp)
 100e5c8:	10c5883a 	add	r2,r2,r3
 100e5cc:	e0bfe715 	stw	r2,-100(fp)
 100e5d0:	e0bfec17 	ldw	r2,-80(fp)
 100e5d4:	0080610e 	bge	zero,r2,100e75c <usb20sr_with_dma_read+0x700>
 100e5d8:	e0bffa17 	ldw	r2,-24(fp)
 100e5dc:	10005f26 	beq	r2,zero,100e75c <usb20sr_with_dma_read+0x700>
 100e5e0:	e0bff117 	ldw	r2,-60(fp)
 100e5e4:	1085883a 	add	r2,r2,r2
 100e5e8:	1085883a 	add	r2,r2,r2
 100e5ec:	1007883a 	mov	r3,r2
 100e5f0:	e0bfef17 	ldw	r2,-68(fp)
 100e5f4:	1885883a 	add	r2,r3,r2
 100e5f8:	10800037 	ldwio	r2,0(r2)
 100e5fc:	1000570e 	bge	r2,zero,100e75c <usb20sr_with_dma_read+0x700>
 100e600:	e0fff717 	ldw	r3,-36(fp)
 100e604:	e0bff117 	ldw	r2,-60(fp)
 100e608:	1085883a 	add	r2,r2,r2
 100e60c:	1085883a 	add	r2,r2,r2
 100e610:	1009883a 	mov	r4,r2
 100e614:	e0bfef17 	ldw	r2,-68(fp)
 100e618:	2085883a 	add	r2,r4,r2
 100e61c:	10800037 	ldwio	r2,0(r2)
 100e620:	109fffec 	andhi	r2,r2,32767
 100e624:	1005d47a 	srai	r2,r2,17
 100e628:	1885c83a 	sub	r2,r3,r2
 100e62c:	e0bfed15 	stw	r2,-76(fp)
 100e630:	e0bfed17 	ldw	r2,-76(fp)
 100e634:	e13fe717 	ldw	r4,-100(fp)
 100e638:	100b883a 	mov	r5,r2
 100e63c:	10112d80 	call	10112d8 <alt_dcache_flush>
 100e640:	0001883a 	nop
 100e644:	e0bfee17 	ldw	r2,-72(fp)
 100e648:	10800037 	ldwio	r2,0(r2)
 100e64c:	1080008c 	andi	r2,r2,2
 100e650:	103ffc1e 	bne	r2,zero,100e644 <__alt_data_end+0xfffede44>
 100e654:	e0bfee17 	ldw	r2,-72(fp)
 100e658:	10800604 	addi	r2,r2,24
 100e65c:	0007883a 	mov	r3,zero
 100e660:	10c00035 	stwio	r3,0(r2)
 100e664:	e0bfee17 	ldw	r2,-72(fp)
 100e668:	10800104 	addi	r2,r2,4
 100e66c:	1007883a 	mov	r3,r2
 100e670:	e0bff617 	ldw	r2,-40(fp)
 100e674:	18800035 	stwio	r2,0(r3)
 100e678:	e0bfee17 	ldw	r2,-72(fp)
 100e67c:	10800204 	addi	r2,r2,8
 100e680:	1007883a 	mov	r3,r2
 100e684:	e0bfe717 	ldw	r2,-100(fp)
 100e688:	18800035 	stwio	r2,0(r3)
 100e68c:	e0bfee17 	ldw	r2,-72(fp)
 100e690:	10800304 	addi	r2,r2,12
 100e694:	1007883a 	mov	r3,r2
 100e698:	e0bfed17 	ldw	r2,-76(fp)
 100e69c:	18800035 	stwio	r2,0(r3)
 100e6a0:	e0bfed17 	ldw	r2,-76(fp)
 100e6a4:	108000cc 	andi	r2,r2,3
 100e6a8:	1000021e 	bne	r2,zero,100e6b4 <usb20sr_with_dma_read+0x658>
 100e6ac:	e0bffb17 	ldw	r2,-20(fp)
 100e6b0:	10000626 	beq	r2,zero,100e6cc <usb20sr_with_dma_read+0x670>
 100e6b4:	e0bfee17 	ldw	r2,-72(fp)
 100e6b8:	10800604 	addi	r2,r2,24
 100e6bc:	1007883a 	mov	r3,r2
 100e6c0:	00802244 	movi	r2,137
 100e6c4:	18800035 	stwio	r2,0(r3)
 100e6c8:	00000506 	br	100e6e0 <usb20sr_with_dma_read+0x684>
 100e6cc:	e0bfee17 	ldw	r2,-72(fp)
 100e6d0:	10800604 	addi	r2,r2,24
 100e6d4:	1007883a 	mov	r3,r2
 100e6d8:	00802304 	movi	r2,140
 100e6dc:	18800035 	stwio	r2,0(r3)
 100e6e0:	0001883a 	nop
 100e6e4:	e0bfee17 	ldw	r2,-72(fp)
 100e6e8:	10800037 	ldwio	r2,0(r2)
 100e6ec:	1080008c 	andi	r2,r2,2
 100e6f0:	103ffc1e 	bne	r2,zero,100e6e4 <__alt_data_end+0xfffedee4>
 100e6f4:	e0bfee17 	ldw	r2,-72(fp)
 100e6f8:	10800604 	addi	r2,r2,24
 100e6fc:	0007883a 	mov	r3,zero
 100e700:	10c00035 	stwio	r3,0(r2)
 100e704:	e0bffc17 	ldw	r2,-16(fp)
 100e708:	10803317 	ldw	r2,204(r2)
 100e70c:	1000091e 	bne	r2,zero,100e734 <usb20sr_with_dma_read+0x6d8>
 100e710:	e0bff117 	ldw	r2,-60(fp)
 100e714:	1085883a 	add	r2,r2,r2
 100e718:	1085883a 	add	r2,r2,r2
 100e71c:	1007883a 	mov	r3,r2
 100e720:	e0bfef17 	ldw	r2,-68(fp)
 100e724:	1885883a 	add	r2,r3,r2
 100e728:	1007883a 	mov	r3,r2
 100e72c:	e0bff917 	ldw	r2,-28(fp)
 100e730:	18800035 	stwio	r2,0(r3)
 100e734:	e0bfed17 	ldw	r2,-76(fp)
 100e738:	e0ffec17 	ldw	r3,-80(fp)
 100e73c:	1885c83a 	sub	r2,r3,r2
 100e740:	e0bfec15 	stw	r2,-80(fp)
 100e744:	e03ffa15 	stw	zero,-24(fp)
 100e748:	e0bfed17 	ldw	r2,-76(fp)
 100e74c:	1007883a 	mov	r3,r2
 100e750:	e0bfe717 	ldw	r2,-100(fp)
 100e754:	10c5883a 	add	r2,r2,r3
 100e758:	e0bfe715 	stw	r2,-100(fp)
 100e75c:	e0bffc17 	ldw	r2,-16(fp)
 100e760:	10803317 	ldw	r2,204(r2)
 100e764:	10000526 	beq	r2,zero,100e77c <usb20sr_with_dma_read+0x720>
 100e768:	e0bffc17 	ldw	r2,-16(fp)
 100e76c:	00c00084 	movi	r3,2
 100e770:	10c03315 	stw	r3,204(r2)
 100e774:	00bfffc4 	movi	r2,-1
 100e778:	00001106 	br	100e7c0 <usb20sr_with_dma_read+0x764>
 100e77c:	e0bfec17 	ldw	r2,-80(fp)
 100e780:	00bf3116 	blt	zero,r2,100e448 <__alt_data_end+0xfffedc48>
 100e784:	e0bffd03 	ldbu	r2,-12(fp)
 100e788:	e0fffa17 	ldw	r3,-24(fp)
 100e78c:	1809883a 	mov	r4,r3
 100e790:	e0fffc17 	ldw	r3,-16(fp)
 100e794:	10806884 	addi	r2,r2,418
 100e798:	1085883a 	add	r2,r2,r2
 100e79c:	1085883a 	add	r2,r2,r2
 100e7a0:	1885883a 	add	r2,r3,r2
 100e7a4:	11000015 	stw	r4,0(r2)
 100e7a8:	e0bffc17 	ldw	r2,-16(fp)
 100e7ac:	00c00084 	movi	r3,2
 100e7b0:	10c03315 	stw	r3,204(r2)
 100e7b4:	e0ffe717 	ldw	r3,-100(fp)
 100e7b8:	e0bffe17 	ldw	r2,-8(fp)
 100e7bc:	1885c83a 	sub	r2,r3,r2
 100e7c0:	e037883a 	mov	sp,fp
 100e7c4:	dfc00117 	ldw	ra,4(sp)
 100e7c8:	df000017 	ldw	fp,0(sp)
 100e7cc:	dec00204 	addi	sp,sp,8
 100e7d0:	f800283a 	ret

0100e7d4 <usb20sr_check_bo_ready>:
 100e7d4:	defffb04 	addi	sp,sp,-20
 100e7d8:	df000415 	stw	fp,16(sp)
 100e7dc:	df000404 	addi	fp,sp,16
 100e7e0:	e13ffe15 	stw	r4,-8(fp)
 100e7e4:	2805883a 	mov	r2,r5
 100e7e8:	e0bfff05 	stb	r2,-4(fp)
 100e7ec:	e0bfff07 	ldb	r2,-4(fp)
 100e7f0:	e0fffe17 	ldw	r3,-8(fp)
 100e7f4:	1885883a 	add	r2,r3,r2
 100e7f8:	10819a04 	addi	r2,r2,1640
 100e7fc:	10800003 	ldbu	r2,0(r2)
 100e800:	10803fcc 	andi	r2,r2,255
 100e804:	1085883a 	add	r2,r2,r2
 100e808:	1085883a 	add	r2,r2,r2
 100e80c:	1007883a 	mov	r3,r2
 100e810:	e0bffe17 	ldw	r2,-8(fp)
 100e814:	10801517 	ldw	r2,84(r2)
 100e818:	1885883a 	add	r2,r3,r2
 100e81c:	10800037 	ldwio	r2,0(r2)
 100e820:	e0bffc15 	stw	r2,-16(fp)
 100e824:	e0bfff07 	ldb	r2,-4(fp)
 100e828:	e0fffe17 	ldw	r3,-8(fp)
 100e82c:	1885883a 	add	r2,r3,r2
 100e830:	10819e04 	addi	r2,r2,1656
 100e834:	10800003 	ldbu	r2,0(r2)
 100e838:	10803fcc 	andi	r2,r2,255
 100e83c:	1085883a 	add	r2,r2,r2
 100e840:	1085883a 	add	r2,r2,r2
 100e844:	1007883a 	mov	r3,r2
 100e848:	e0bffe17 	ldw	r2,-8(fp)
 100e84c:	10801517 	ldw	r2,84(r2)
 100e850:	1885883a 	add	r2,r3,r2
 100e854:	10800037 	ldwio	r2,0(r2)
 100e858:	e0bffd15 	stw	r2,-12(fp)
 100e85c:	e0bffe17 	ldw	r2,-8(fp)
 100e860:	00ffffc4 	movi	r3,-1
 100e864:	10c1b215 	stw	r3,1736(r2)
 100e868:	e0bffe17 	ldw	r2,-8(fp)
 100e86c:	10800e17 	ldw	r2,56(r2)
 100e870:	10002c1e 	bne	r2,zero,100e924 <usb20sr_check_bo_ready+0x150>
 100e874:	e0bffd17 	ldw	r2,-12(fp)
 100e878:	10bfffe0 	cmpeqi	r2,r2,-1
 100e87c:	1000291e 	bne	r2,zero,100e924 <usb20sr_check_bo_ready+0x150>
 100e880:	e0bffc17 	ldw	r2,-16(fp)
 100e884:	10000216 	blt	r2,zero,100e890 <usb20sr_check_bo_ready+0xbc>
 100e888:	e0bffd17 	ldw	r2,-12(fp)
 100e88c:	1000250e 	bge	r2,zero,100e924 <usb20sr_check_bo_ready+0x150>
 100e890:	e0bfff07 	ldb	r2,-4(fp)
 100e894:	e0fffe17 	ldw	r3,-8(fp)
 100e898:	10806884 	addi	r2,r2,418
 100e89c:	1085883a 	add	r2,r2,r2
 100e8a0:	1085883a 	add	r2,r2,r2
 100e8a4:	1885883a 	add	r2,r3,r2
 100e8a8:	10800017 	ldw	r2,0(r2)
 100e8ac:	10000f1e 	bne	r2,zero,100e8ec <usb20sr_check_bo_ready+0x118>
 100e8b0:	e0bfff07 	ldb	r2,-4(fp)
 100e8b4:	e0fffe17 	ldw	r3,-8(fp)
 100e8b8:	10805284 	addi	r2,r2,330
 100e8bc:	1085883a 	add	r2,r2,r2
 100e8c0:	1085883a 	add	r2,r2,r2
 100e8c4:	1885883a 	add	r2,r3,r2
 100e8c8:	10800017 	ldw	r2,0(r2)
 100e8cc:	e0fffc17 	ldw	r3,-16(fp)
 100e8d0:	18dfffec 	andhi	r3,r3,32767
 100e8d4:	1807d47a 	srai	r3,r3,17
 100e8d8:	10c5c83a 	sub	r2,r2,r3
 100e8dc:	1007883a 	mov	r3,r2
 100e8e0:	e0bffe17 	ldw	r2,-8(fp)
 100e8e4:	10c1b215 	stw	r3,1736(r2)
 100e8e8:	00000e06 	br	100e924 <usb20sr_check_bo_ready+0x150>
 100e8ec:	e0bfff07 	ldb	r2,-4(fp)
 100e8f0:	e0fffe17 	ldw	r3,-8(fp)
 100e8f4:	10805284 	addi	r2,r2,330
 100e8f8:	1085883a 	add	r2,r2,r2
 100e8fc:	1085883a 	add	r2,r2,r2
 100e900:	1885883a 	add	r2,r3,r2
 100e904:	10800017 	ldw	r2,0(r2)
 100e908:	e0fffd17 	ldw	r3,-12(fp)
 100e90c:	18dfffec 	andhi	r3,r3,32767
 100e910:	1807d47a 	srai	r3,r3,17
 100e914:	10c5c83a 	sub	r2,r2,r3
 100e918:	1007883a 	mov	r3,r2
 100e91c:	e0bffe17 	ldw	r2,-8(fp)
 100e920:	10c1b215 	stw	r3,1736(r2)
 100e924:	e0bffe17 	ldw	r2,-8(fp)
 100e928:	1081b217 	ldw	r2,1736(r2)
 100e92c:	e037883a 	mov	sp,fp
 100e930:	df000017 	ldw	fp,0(sp)
 100e934:	dec00104 	addi	sp,sp,4
 100e938:	f800283a 	ret

0100e93c <usb20sr_check_bi_ready>:
 100e93c:	defffd04 	addi	sp,sp,-12
 100e940:	df000215 	stw	fp,8(sp)
 100e944:	df000204 	addi	fp,sp,8
 100e948:	e13ffe15 	stw	r4,-8(fp)
 100e94c:	2805883a 	mov	r2,r5
 100e950:	e0bfff05 	stb	r2,-4(fp)
 100e954:	e0bffe17 	ldw	r2,-8(fp)
 100e958:	00ffffc4 	movi	r3,-1
 100e95c:	10c0f915 	stw	r3,996(r2)
 100e960:	e0bfff07 	ldb	r2,-4(fp)
 100e964:	e0fffe17 	ldw	r3,-8(fp)
 100e968:	1885883a 	add	r2,r3,r2
 100e96c:	1080e104 	addi	r2,r2,900
 100e970:	10800003 	ldbu	r2,0(r2)
 100e974:	10803fcc 	andi	r2,r2,255
 100e978:	1085883a 	add	r2,r2,r2
 100e97c:	1085883a 	add	r2,r2,r2
 100e980:	1007883a 	mov	r3,r2
 100e984:	e0bffe17 	ldw	r2,-8(fp)
 100e988:	10801517 	ldw	r2,84(r2)
 100e98c:	1885883a 	add	r2,r3,r2
 100e990:	10800037 	ldwio	r2,0(r2)
 100e994:	10000e16 	blt	r2,zero,100e9d0 <usb20sr_check_bi_ready+0x94>
 100e998:	e0bfff07 	ldb	r2,-4(fp)
 100e99c:	e0fffe17 	ldw	r3,-8(fp)
 100e9a0:	1885883a 	add	r2,r3,r2
 100e9a4:	1080e504 	addi	r2,r2,916
 100e9a8:	10800003 	ldbu	r2,0(r2)
 100e9ac:	10803fcc 	andi	r2,r2,255
 100e9b0:	1085883a 	add	r2,r2,r2
 100e9b4:	1085883a 	add	r2,r2,r2
 100e9b8:	1007883a 	mov	r3,r2
 100e9bc:	e0bffe17 	ldw	r2,-8(fp)
 100e9c0:	10801517 	ldw	r2,84(r2)
 100e9c4:	1885883a 	add	r2,r3,r2
 100e9c8:	10800037 	ldwio	r2,0(r2)
 100e9cc:	1000030e 	bge	r2,zero,100e9dc <usb20sr_check_bi_ready+0xa0>
 100e9d0:	e0bffe17 	ldw	r2,-8(fp)
 100e9d4:	00c00044 	movi	r3,1
 100e9d8:	10c0f915 	stw	r3,996(r2)
 100e9dc:	e0bffe17 	ldw	r2,-8(fp)
 100e9e0:	1080f917 	ldw	r2,996(r2)
 100e9e4:	e037883a 	mov	sp,fp
 100e9e8:	df000017 	ldw	fp,0(sp)
 100e9ec:	dec00104 	addi	sp,sp,4
 100e9f0:	f800283a 	ret

0100e9f4 <SCSI_To_ATA_Translation>:
 100e9f4:	defffa04 	addi	sp,sp,-24
 100e9f8:	dfc00515 	stw	ra,20(sp)
 100e9fc:	df000415 	stw	fp,16(sp)
 100ea00:	df000404 	addi	fp,sp,16
 100ea04:	e13ffd15 	stw	r4,-12(fp)
 100ea08:	e17ffe15 	stw	r5,-8(fp)
 100ea0c:	e1bfff15 	stw	r6,-4(fp)
 100ea10:	00804074 	movhi	r2,257
 100ea14:	108df404 	addi	r2,r2,14288
 100ea18:	108002c3 	ldbu	r2,11(r2)
 100ea1c:	10803fcc 	andi	r2,r2,255
 100ea20:	10c015a8 	cmpgeui	r3,r2,86
 100ea24:	18014f1e 	bne	r3,zero,100ef64 <SCSI_To_ATA_Translation+0x570>
 100ea28:	100690ba 	slli	r3,r2,2
 100ea2c:	00804074 	movhi	r2,257
 100ea30:	10ba9004 	addi	r2,r2,-5568
 100ea34:	1885883a 	add	r2,r3,r2
 100ea38:	10800017 	ldw	r2,0(r2)
 100ea3c:	1000683a 	jmp	r2
 100ea40:	0100ec20 	cmpeqi	r4,zero,944
 100ea44:	0100ef64 	muli	r4,zero,957
 100ea48:	0100ef64 	muli	r4,zero,957
 100ea4c:	0100ebc4 	movi	r4,943
 100ea50:	0100ef64 	muli	r4,zero,957
 100ea54:	0100ef64 	muli	r4,zero,957
 100ea58:	0100ef64 	muli	r4,zero,957
 100ea5c:	0100ef64 	muli	r4,zero,957
 100ea60:	0100ef64 	muli	r4,zero,957
 100ea64:	0100ef64 	muli	r4,zero,957
 100ea68:	0100ef64 	muli	r4,zero,957
 100ea6c:	0100ef64 	muli	r4,zero,957
 100ea70:	0100ef64 	muli	r4,zero,957
 100ea74:	0100ef64 	muli	r4,zero,957
 100ea78:	0100ef64 	muli	r4,zero,957
 100ea7c:	0100ef64 	muli	r4,zero,957
 100ea80:	0100ef64 	muli	r4,zero,957
 100ea84:	0100ef64 	muli	r4,zero,957
 100ea88:	0100ecd8 	cmpnei	r4,zero,947
 100ea8c:	0100ef64 	muli	r4,zero,957
 100ea90:	0100ef64 	muli	r4,zero,957
 100ea94:	0100ef64 	muli	r4,zero,957
 100ea98:	0100ef64 	muli	r4,zero,957
 100ea9c:	0100ef64 	muli	r4,zero,957
 100eaa0:	0100ef64 	muli	r4,zero,957
 100eaa4:	0100ef64 	muli	r4,zero,957
 100eaa8:	0100ed68 	cmpgeui	r4,zero,949
 100eaac:	0100ef20 	cmpeqi	r4,zero,956
 100eab0:	0100ef64 	muli	r4,zero,957
 100eab4:	0100ef64 	muli	r4,zero,957
 100eab8:	0100ee08 	cmpgei	r4,zero,952
 100eabc:	0100ef64 	muli	r4,zero,957
 100eac0:	0100ef64 	muli	r4,zero,957
 100eac4:	0100ef64 	muli	r4,zero,957
 100eac8:	0100ef64 	muli	r4,zero,957
 100eacc:	0100eed8 	cmpnei	r4,zero,955
 100ead0:	0100ef64 	muli	r4,zero,957
 100ead4:	0100ee4c 	andi	r4,zero,953
 100ead8:	0100ef64 	muli	r4,zero,957
 100eadc:	0100ef64 	muli	r4,zero,957
 100eae0:	0100eb98 	cmpnei	r4,zero,942
 100eae4:	0100ef64 	muli	r4,zero,957
 100eae8:	0100eeac 	andhi	r4,zero,954
 100eaec:	0100ef64 	muli	r4,zero,957
 100eaf0:	0100ef64 	muli	r4,zero,957
 100eaf4:	0100ef64 	muli	r4,zero,957
 100eaf8:	0100ef64 	muli	r4,zero,957
 100eafc:	0100ecbc 	xorhi	r4,zero,946
 100eb00:	0100ef64 	muli	r4,zero,957
 100eb04:	0100ef64 	muli	r4,zero,957
 100eb08:	0100ef64 	muli	r4,zero,957
 100eb0c:	0100ef64 	muli	r4,zero,957
 100eb10:	0100ef64 	muli	r4,zero,957
 100eb14:	0100ef64 	muli	r4,zero,957
 100eb18:	0100ef64 	muli	r4,zero,957
 100eb1c:	0100ef64 	muli	r4,zero,957
 100eb20:	0100ef64 	muli	r4,zero,957
 100eb24:	0100ef64 	muli	r4,zero,957
 100eb28:	0100ef64 	muli	r4,zero,957
 100eb2c:	0100ef64 	muli	r4,zero,957
 100eb30:	0100ef64 	muli	r4,zero,957
 100eb34:	0100ef64 	muli	r4,zero,957
 100eb38:	0100ef64 	muli	r4,zero,957
 100eb3c:	0100ef64 	muli	r4,zero,957
 100eb40:	0100ef64 	muli	r4,zero,957
 100eb44:	0100ef64 	muli	r4,zero,957
 100eb48:	0100ef64 	muli	r4,zero,957
 100eb4c:	0100ef64 	muli	r4,zero,957
 100eb50:	0100ef64 	muli	r4,zero,957
 100eb54:	0100ef64 	muli	r4,zero,957
 100eb58:	0100ef64 	muli	r4,zero,957
 100eb5c:	0100ef64 	muli	r4,zero,957
 100eb60:	0100ef64 	muli	r4,zero,957
 100eb64:	0100ef64 	muli	r4,zero,957
 100eb68:	0100ef64 	muli	r4,zero,957
 100eb6c:	0100ef64 	muli	r4,zero,957
 100eb70:	0100ef64 	muli	r4,zero,957
 100eb74:	0100ef64 	muli	r4,zero,957
 100eb78:	0100ef64 	muli	r4,zero,957
 100eb7c:	0100ef64 	muli	r4,zero,957
 100eb80:	0100ef64 	muli	r4,zero,957
 100eb84:	0100ef64 	muli	r4,zero,957
 100eb88:	0100ef64 	muli	r4,zero,957
 100eb8c:	0100ef64 	muli	r4,zero,957
 100eb90:	0100ef64 	muli	r4,zero,957
 100eb94:	0100ed4c 	andi	r4,zero,949
 100eb98:	00804074 	movhi	r2,257
 100eb9c:	108df404 	addi	r2,r2,14288
 100eba0:	10800203 	ldbu	r2,8(r2)
 100eba4:	10803fcc 	andi	r2,r2,255
 100eba8:	1000051e 	bne	r2,zero,100ebc0 <SCSI_To_ATA_Translation+0x1cc>
 100ebac:	00804074 	movhi	r2,257
 100ebb0:	108dfc04 	addi	r2,r2,14320
 100ebb4:	00c00084 	movi	r3,2
 100ebb8:	10c00305 	stb	r3,12(r2)
 100ebbc:	0000f406 	br	100ef90 <SCSI_To_ATA_Translation+0x59c>
 100ebc0:	0000f306 	br	100ef90 <SCSI_To_ATA_Translation+0x59c>
 100ebc4:	e13ffd17 	ldw	r4,-12(fp)
 100ebc8:	e17fff17 	ldw	r5,-4(fp)
 100ebcc:	100f4940 	call	100f494 <request_sense>
 100ebd0:	00804074 	movhi	r2,257
 100ebd4:	108df404 	addi	r2,r2,14288
 100ebd8:	10800117 	ldw	r2,4(r2)
 100ebdc:	108004b0 	cmpltui	r2,r2,18
 100ebe0:	1000041e 	bne	r2,zero,100ebf4 <SCSI_To_ATA_Translation+0x200>
 100ebe4:	e0bffe17 	ldw	r2,-8(fp)
 100ebe8:	00c00484 	movi	r3,18
 100ebec:	10c00015 	stw	r3,0(r2)
 100ebf0:	00000606 	br	100ec0c <SCSI_To_ATA_Translation+0x218>
 100ebf4:	00804074 	movhi	r2,257
 100ebf8:	108df404 	addi	r2,r2,14288
 100ebfc:	10800117 	ldw	r2,4(r2)
 100ec00:	1007883a 	mov	r3,r2
 100ec04:	e0bffe17 	ldw	r2,-8(fp)
 100ec08:	10c00015 	stw	r3,0(r2)
 100ec0c:	00804074 	movhi	r2,257
 100ec10:	108dfc04 	addi	r2,r2,14320
 100ec14:	10000305 	stb	zero,12(r2)
 100ec18:	00800044 	movi	r2,1
 100ec1c:	00010306 	br	100f02c <SCSI_To_ATA_Translation+0x638>
 100ec20:	00804074 	movhi	r2,257
 100ec24:	108df404 	addi	r2,r2,14288
 100ec28:	10800203 	ldbu	r2,8(r2)
 100ec2c:	10803fcc 	andi	r2,r2,255
 100ec30:	10000826 	beq	r2,zero,100ec54 <SCSI_To_ATA_Translation+0x260>
 100ec34:	e0bffe17 	ldw	r2,-8(fp)
 100ec38:	10000015 	stw	zero,0(r2)
 100ec3c:	00804074 	movhi	r2,257
 100ec40:	108dfc04 	addi	r2,r2,14320
 100ec44:	00c00084 	movi	r3,2
 100ec48:	10c00305 	stb	r3,12(r2)
 100ec4c:	0005883a 	mov	r2,zero
 100ec50:	0000f606 	br	100f02c <SCSI_To_ATA_Translation+0x638>
 100ec54:	00804074 	movhi	r2,257
 100ec58:	108df404 	addi	r2,r2,14288
 100ec5c:	10800117 	ldw	r2,4(r2)
 100ec60:	10000226 	beq	r2,zero,100ec6c <SCSI_To_ATA_Translation+0x278>
 100ec64:	0005883a 	mov	r2,zero
 100ec68:	0000f006 	br	100f02c <SCSI_To_ATA_Translation+0x638>
 100ec6c:	e13fff17 	ldw	r4,-4(fp)
 100ec70:	10007980 	call	1000798 <SD_card_init>
 100ec74:	10803fcc 	andi	r2,r2,255
 100ec78:	10800060 	cmpeqi	r2,r2,1
 100ec7c:	1000031e 	bne	r2,zero,100ec8c <SCSI_To_ATA_Translation+0x298>
 100ec80:	d0a18b17 	ldw	r2,-31188(gp)
 100ec84:	10800058 	cmpnei	r2,r2,1
 100ec88:	1000051e 	bne	r2,zero,100eca0 <SCSI_To_ATA_Translation+0x2ac>
 100ec8c:	00804074 	movhi	r2,257
 100ec90:	108dfc04 	addi	r2,r2,14320
 100ec94:	00c00044 	movi	r3,1
 100ec98:	10c00305 	stb	r3,12(r2)
 100ec9c:	00000306 	br	100ecac <SCSI_To_ATA_Translation+0x2b8>
 100eca0:	00804074 	movhi	r2,257
 100eca4:	108dfc04 	addi	r2,r2,14320
 100eca8:	10000305 	stb	zero,12(r2)
 100ecac:	e0bffe17 	ldw	r2,-8(fp)
 100ecb0:	10000015 	stw	zero,0(r2)
 100ecb4:	00800044 	movi	r2,1
 100ecb8:	0000dc06 	br	100f02c <SCSI_To_ATA_Translation+0x638>
 100ecbc:	00804074 	movhi	r2,257
 100ecc0:	108dfc04 	addi	r2,r2,14320
 100ecc4:	10000305 	stb	zero,12(r2)
 100ecc8:	e0bffe17 	ldw	r2,-8(fp)
 100eccc:	10000015 	stw	zero,0(r2)
 100ecd0:	00800044 	movi	r2,1
 100ecd4:	0000d506 	br	100f02c <SCSI_To_ATA_Translation+0x638>
 100ecd8:	00804074 	movhi	r2,257
 100ecdc:	108df404 	addi	r2,r2,14288
 100ece0:	10800203 	ldbu	r2,8(r2)
 100ece4:	10803fcc 	andi	r2,r2,255
 100ece8:	10802018 	cmpnei	r2,r2,128
 100ecec:	1000111e 	bne	r2,zero,100ed34 <SCSI_To_ATA_Translation+0x340>
 100ecf0:	00804074 	movhi	r2,257
 100ecf4:	108df404 	addi	r2,r2,14288
 100ecf8:	10800117 	ldw	r2,4(r2)
 100ecfc:	10800918 	cmpnei	r2,r2,36
 100ed00:	10000a1e 	bne	r2,zero,100ed2c <SCSI_To_ATA_Translation+0x338>
 100ed04:	e13ffd17 	ldw	r4,-12(fp)
 100ed08:	100f0400 	call	100f040 <inquairy>
 100ed0c:	e0bffe17 	ldw	r2,-8(fp)
 100ed10:	00c00904 	movi	r3,36
 100ed14:	10c00015 	stw	r3,0(r2)
 100ed18:	00804074 	movhi	r2,257
 100ed1c:	108dfc04 	addi	r2,r2,14320
 100ed20:	10000305 	stb	zero,12(r2)
 100ed24:	00800044 	movi	r2,1
 100ed28:	0000c006 	br	100f02c <SCSI_To_ATA_Translation+0x638>
 100ed2c:	0005883a 	mov	r2,zero
 100ed30:	0000be06 	br	100f02c <SCSI_To_ATA_Translation+0x638>
 100ed34:	00804074 	movhi	r2,257
 100ed38:	108dfc04 	addi	r2,r2,14320
 100ed3c:	00c00084 	movi	r3,2
 100ed40:	10c00305 	stb	r3,12(r2)
 100ed44:	0005883a 	mov	r2,zero
 100ed48:	0000b806 	br	100f02c <SCSI_To_ATA_Translation+0x638>
 100ed4c:	00804074 	movhi	r2,257
 100ed50:	108dfc04 	addi	r2,r2,14320
 100ed54:	10000305 	stb	zero,12(r2)
 100ed58:	e0bffe17 	ldw	r2,-8(fp)
 100ed5c:	10000015 	stw	zero,0(r2)
 100ed60:	00800044 	movi	r2,1
 100ed64:	0000b106 	br	100f02c <SCSI_To_ATA_Translation+0x638>
 100ed68:	00804074 	movhi	r2,257
 100ed6c:	108df404 	addi	r2,r2,14288
 100ed70:	10800117 	ldw	r2,4(r2)
 100ed74:	10800118 	cmpnei	r2,r2,4
 100ed78:	10000b1e 	bne	r2,zero,100eda8 <SCSI_To_ATA_Translation+0x3b4>
 100ed7c:	e13ffd17 	ldw	r4,-12(fp)
 100ed80:	100f3480 	call	100f348 <mode_sense>
 100ed84:	d0218b15 	stw	zero,-31188(gp)
 100ed88:	00804074 	movhi	r2,257
 100ed8c:	108dfc04 	addi	r2,r2,14320
 100ed90:	10000305 	stb	zero,12(r2)
 100ed94:	e0bffe17 	ldw	r2,-8(fp)
 100ed98:	00c00104 	movi	r3,4
 100ed9c:	10c00015 	stw	r3,0(r2)
 100eda0:	00800044 	movi	r2,1
 100eda4:	0000a106 	br	100f02c <SCSI_To_ATA_Translation+0x638>
 100eda8:	00804074 	movhi	r2,257
 100edac:	108df404 	addi	r2,r2,14288
 100edb0:	10800117 	ldw	r2,4(r2)
 100edb4:	10800320 	cmpeqi	r2,r2,12
 100edb8:	1007883a 	mov	r3,r2
 100edbc:	00804074 	movhi	r2,257
 100edc0:	108df404 	addi	r2,r2,14288
 100edc4:	10800117 	ldw	r2,4(r2)
 100edc8:	10803020 	cmpeqi	r2,r2,192
 100edcc:	1884b03a 	or	r2,r3,r2
 100edd0:	10803fcc 	andi	r2,r2,255
 100edd4:	10000b26 	beq	r2,zero,100ee04 <SCSI_To_ATA_Translation+0x410>
 100edd8:	e13ffd17 	ldw	r4,-12(fp)
 100eddc:	100f3480 	call	100f348 <mode_sense>
 100ede0:	d0218b15 	stw	zero,-31188(gp)
 100ede4:	00804074 	movhi	r2,257
 100ede8:	108dfc04 	addi	r2,r2,14320
 100edec:	10000305 	stb	zero,12(r2)
 100edf0:	e0bffe17 	ldw	r2,-8(fp)
 100edf4:	00c00104 	movi	r3,4
 100edf8:	10c00015 	stw	r3,0(r2)
 100edfc:	00800044 	movi	r2,1
 100ee00:	00008a06 	br	100f02c <SCSI_To_ATA_Translation+0x638>
 100ee04:	00006206 	br	100ef90 <SCSI_To_ATA_Translation+0x59c>
 100ee08:	00804074 	movhi	r2,257
 100ee0c:	108df404 	addi	r2,r2,14288
 100ee10:	108003c3 	ldbu	r2,15(r2)
 100ee14:	10803fcc 	andi	r2,r2,255
 100ee18:	1080004c 	andi	r2,r2,1
 100ee1c:	10000426 	beq	r2,zero,100ee30 <SCSI_To_ATA_Translation+0x43c>
 100ee20:	00804074 	movhi	r2,257
 100ee24:	108dfc04 	addi	r2,r2,14320
 100ee28:	10000305 	stb	zero,12(r2)
 100ee2c:	00000306 	br	100ee3c <SCSI_To_ATA_Translation+0x448>
 100ee30:	00804074 	movhi	r2,257
 100ee34:	108dfc04 	addi	r2,r2,14320
 100ee38:	10000305 	stb	zero,12(r2)
 100ee3c:	e0bffe17 	ldw	r2,-8(fp)
 100ee40:	10000015 	stw	zero,0(r2)
 100ee44:	00800044 	movi	r2,1
 100ee48:	00007806 	br	100f02c <SCSI_To_ATA_Translation+0x638>
 100ee4c:	d0a18b17 	ldw	r2,-31188(gp)
 100ee50:	10800060 	cmpeqi	r2,r2,1
 100ee54:	1000051e 	bne	r2,zero,100ee6c <SCSI_To_ATA_Translation+0x478>
 100ee58:	e13fff17 	ldw	r4,-4(fp)
 100ee5c:	10007980 	call	1000798 <SD_card_init>
 100ee60:	10803fcc 	andi	r2,r2,255
 100ee64:	10800058 	cmpnei	r2,r2,1
 100ee68:	1000051e 	bne	r2,zero,100ee80 <SCSI_To_ATA_Translation+0x48c>
 100ee6c:	00804074 	movhi	r2,257
 100ee70:	108dfc04 	addi	r2,r2,14320
 100ee74:	00c00044 	movi	r3,1
 100ee78:	10c00305 	stb	r3,12(r2)
 100ee7c:	00000306 	br	100ee8c <SCSI_To_ATA_Translation+0x498>
 100ee80:	00804074 	movhi	r2,257
 100ee84:	108dfc04 	addi	r2,r2,14320
 100ee88:	10000305 	stb	zero,12(r2)
 100ee8c:	e13ffd17 	ldw	r4,-12(fp)
 100ee90:	e17fff17 	ldw	r5,-4(fp)
 100ee94:	100f2880 	call	100f288 <read_capacity>
 100ee98:	e0bffe17 	ldw	r2,-8(fp)
 100ee9c:	00c00204 	movi	r3,8
 100eea0:	10c00015 	stw	r3,0(r2)
 100eea4:	00800044 	movi	r2,1
 100eea8:	00006006 	br	100f02c <SCSI_To_ATA_Translation+0x638>
 100eeac:	00804074 	movhi	r2,257
 100eeb0:	108df404 	addi	r2,r2,14288
 100eeb4:	10800203 	ldbu	r2,8(r2)
 100eeb8:	10803fcc 	andi	r2,r2,255
 100eebc:	10000526 	beq	r2,zero,100eed4 <SCSI_To_ATA_Translation+0x4e0>
 100eec0:	00804074 	movhi	r2,257
 100eec4:	108dfc04 	addi	r2,r2,14320
 100eec8:	00c00084 	movi	r3,2
 100eecc:	10c00305 	stb	r3,12(r2)
 100eed0:	00002f06 	br	100ef90 <SCSI_To_ATA_Translation+0x59c>
 100eed4:	00002e06 	br	100ef90 <SCSI_To_ATA_Translation+0x59c>
 100eed8:	00804074 	movhi	r2,257
 100eedc:	108df404 	addi	r2,r2,14288
 100eee0:	108003c3 	ldbu	r2,15(r2)
 100eee4:	10803fcc 	andi	r2,r2,255
 100eee8:	1080008c 	andi	r2,r2,2
 100eeec:	10000326 	beq	r2,zero,100eefc <SCSI_To_ATA_Translation+0x508>
 100eef0:	00800044 	movi	r2,1
 100eef4:	d0a18b15 	stw	r2,-31188(gp)
 100eef8:	00000106 	br	100ef00 <SCSI_To_ATA_Translation+0x50c>
 100eefc:	d0218b15 	stw	zero,-31188(gp)
 100ef00:	e13ffd17 	ldw	r4,-12(fp)
 100ef04:	e17fff17 	ldw	r5,-4(fp)
 100ef08:	100f3980 	call	100f398 <read_format_capacity>
 100ef0c:	e0bffe17 	ldw	r2,-8(fp)
 100ef10:	00c00304 	movi	r3,12
 100ef14:	10c00015 	stw	r3,0(r2)
 100ef18:	00800044 	movi	r2,1
 100ef1c:	00004306 	br	100f02c <SCSI_To_ATA_Translation+0x638>
 100ef20:	00804074 	movhi	r2,257
 100ef24:	108df404 	addi	r2,r2,14288
 100ef28:	108003c3 	ldbu	r2,15(r2)
 100ef2c:	10803fcc 	andi	r2,r2,255
 100ef30:	1080008c 	andi	r2,r2,2
 100ef34:	10000326 	beq	r2,zero,100ef44 <SCSI_To_ATA_Translation+0x550>
 100ef38:	00800044 	movi	r2,1
 100ef3c:	d0a18b15 	stw	r2,-31188(gp)
 100ef40:	00000106 	br	100ef48 <SCSI_To_ATA_Translation+0x554>
 100ef44:	d0218b15 	stw	zero,-31188(gp)
 100ef48:	00804074 	movhi	r2,257
 100ef4c:	108dfc04 	addi	r2,r2,14320
 100ef50:	10000305 	stb	zero,12(r2)
 100ef54:	e0bffe17 	ldw	r2,-8(fp)
 100ef58:	10000015 	stw	zero,0(r2)
 100ef5c:	00800044 	movi	r2,1
 100ef60:	00003206 	br	100f02c <SCSI_To_ATA_Translation+0x638>
 100ef64:	00804074 	movhi	r2,257
 100ef68:	108dfc04 	addi	r2,r2,14320
 100ef6c:	00c00044 	movi	r3,1
 100ef70:	10c00305 	stb	r3,12(r2)
 100ef74:	e0ffff17 	ldw	r3,-4(fp)
 100ef78:	00a00514 	movui	r2,32788
 100ef7c:	1885883a 	add	r2,r3,r2
 100ef80:	00c00044 	movi	r3,1
 100ef84:	10c00015 	stw	r3,0(r2)
 100ef88:	0005883a 	mov	r2,zero
 100ef8c:	00002706 	br	100f02c <SCSI_To_ATA_Translation+0x638>
 100ef90:	e03ffc15 	stw	zero,-16(fp)
 100ef94:	00804074 	movhi	r2,257
 100ef98:	108df404 	addi	r2,r2,14288
 100ef9c:	10800343 	ldbu	r2,13(r2)
 100efa0:	10803fcc 	andi	r2,r2,255
 100efa4:	1004963a 	slli	r2,r2,24
 100efa8:	1007883a 	mov	r3,r2
 100efac:	e0bffc17 	ldw	r2,-16(fp)
 100efb0:	10c4b03a 	or	r2,r2,r3
 100efb4:	e0bffc15 	stw	r2,-16(fp)
 100efb8:	00804074 	movhi	r2,257
 100efbc:	108df404 	addi	r2,r2,14288
 100efc0:	10800383 	ldbu	r2,14(r2)
 100efc4:	10803fcc 	andi	r2,r2,255
 100efc8:	1004943a 	slli	r2,r2,16
 100efcc:	1007883a 	mov	r3,r2
 100efd0:	e0bffc17 	ldw	r2,-16(fp)
 100efd4:	10c4b03a 	or	r2,r2,r3
 100efd8:	e0bffc15 	stw	r2,-16(fp)
 100efdc:	00804074 	movhi	r2,257
 100efe0:	108df404 	addi	r2,r2,14288
 100efe4:	108003c3 	ldbu	r2,15(r2)
 100efe8:	10803fcc 	andi	r2,r2,255
 100efec:	1004923a 	slli	r2,r2,8
 100eff0:	1007883a 	mov	r3,r2
 100eff4:	e0bffc17 	ldw	r2,-16(fp)
 100eff8:	10c4b03a 	or	r2,r2,r3
 100effc:	e0bffc15 	stw	r2,-16(fp)
 100f000:	00804074 	movhi	r2,257
 100f004:	108df404 	addi	r2,r2,14288
 100f008:	10800403 	ldbu	r2,16(r2)
 100f00c:	10803fcc 	andi	r2,r2,255
 100f010:	e0fffc17 	ldw	r3,-16(fp)
 100f014:	1884b03a 	or	r2,r3,r2
 100f018:	e0bffc15 	stw	r2,-16(fp)
 100f01c:	e0bfff17 	ldw	r2,-4(fp)
 100f020:	e0fffc17 	ldw	r3,-16(fp)
 100f024:	10c00315 	stw	r3,12(r2)
 100f028:	0005883a 	mov	r2,zero
 100f02c:	e037883a 	mov	sp,fp
 100f030:	dfc00117 	ldw	ra,4(sp)
 100f034:	df000017 	ldw	fp,0(sp)
 100f038:	dec00204 	addi	sp,sp,8
 100f03c:	f800283a 	ret

0100f040 <inquairy>:
 100f040:	defffe04 	addi	sp,sp,-8
 100f044:	df000115 	stw	fp,4(sp)
 100f048:	df000104 	addi	fp,sp,4
 100f04c:	e13fff15 	stw	r4,-4(fp)
 100f050:	e0bfff17 	ldw	r2,-4(fp)
 100f054:	10000005 	stb	zero,0(r2)
 100f058:	e0bfff17 	ldw	r2,-4(fp)
 100f05c:	10800044 	addi	r2,r2,1
 100f060:	00ffe004 	movi	r3,-128
 100f064:	10c00005 	stb	r3,0(r2)
 100f068:	e0bfff17 	ldw	r2,-4(fp)
 100f06c:	10800084 	addi	r2,r2,2
 100f070:	10000005 	stb	zero,0(r2)
 100f074:	e0bfff17 	ldw	r2,-4(fp)
 100f078:	108000c4 	addi	r2,r2,3
 100f07c:	00c00044 	movi	r3,1
 100f080:	10c00005 	stb	r3,0(r2)
 100f084:	e0bfff17 	ldw	r2,-4(fp)
 100f088:	10800104 	addi	r2,r2,4
 100f08c:	00c007c4 	movi	r3,31
 100f090:	10c00005 	stb	r3,0(r2)
 100f094:	e0bfff17 	ldw	r2,-4(fp)
 100f098:	10800144 	addi	r2,r2,5
 100f09c:	10000005 	stb	zero,0(r2)
 100f0a0:	e0bfff17 	ldw	r2,-4(fp)
 100f0a4:	10800184 	addi	r2,r2,6
 100f0a8:	10000005 	stb	zero,0(r2)
 100f0ac:	e0bfff17 	ldw	r2,-4(fp)
 100f0b0:	108001c4 	addi	r2,r2,7
 100f0b4:	10000005 	stb	zero,0(r2)
 100f0b8:	e0bfff17 	ldw	r2,-4(fp)
 100f0bc:	10800204 	addi	r2,r2,8
 100f0c0:	00c014c4 	movi	r3,83
 100f0c4:	10c00005 	stb	r3,0(r2)
 100f0c8:	e0bfff17 	ldw	r2,-4(fp)
 100f0cc:	10800244 	addi	r2,r2,9
 100f0d0:	00c01304 	movi	r3,76
 100f0d4:	10c00005 	stb	r3,0(r2)
 100f0d8:	e0bfff17 	ldw	r2,-4(fp)
 100f0dc:	10800284 	addi	r2,r2,10
 100f0e0:	00c014c4 	movi	r3,83
 100f0e4:	10c00005 	stb	r3,0(r2)
 100f0e8:	e0bfff17 	ldw	r2,-4(fp)
 100f0ec:	108002c4 	addi	r2,r2,11
 100f0f0:	00c00804 	movi	r3,32
 100f0f4:	10c00005 	stb	r3,0(r2)
 100f0f8:	e0bfff17 	ldw	r2,-4(fp)
 100f0fc:	10800304 	addi	r2,r2,12
 100f100:	00c01544 	movi	r3,85
 100f104:	10c00005 	stb	r3,0(r2)
 100f108:	e0bfff17 	ldw	r2,-4(fp)
 100f10c:	10800344 	addi	r2,r2,13
 100f110:	00c014c4 	movi	r3,83
 100f114:	10c00005 	stb	r3,0(r2)
 100f118:	e0bfff17 	ldw	r2,-4(fp)
 100f11c:	10800384 	addi	r2,r2,14
 100f120:	00c01084 	movi	r3,66
 100f124:	10c00005 	stb	r3,0(r2)
 100f128:	e0bfff17 	ldw	r2,-4(fp)
 100f12c:	108003c4 	addi	r2,r2,15
 100f130:	00c00c84 	movi	r3,50
 100f134:	10c00005 	stb	r3,0(r2)
 100f138:	e0bfff17 	ldw	r2,-4(fp)
 100f13c:	10800404 	addi	r2,r2,16
 100f140:	00c00b84 	movi	r3,46
 100f144:	10c00005 	stb	r3,0(r2)
 100f148:	e0bfff17 	ldw	r2,-4(fp)
 100f14c:	10800444 	addi	r2,r2,17
 100f150:	00c00c04 	movi	r3,48
 100f154:	10c00005 	stb	r3,0(r2)
 100f158:	e0bfff17 	ldw	r2,-4(fp)
 100f15c:	10800484 	addi	r2,r2,18
 100f160:	00c00804 	movi	r3,32
 100f164:	10c00005 	stb	r3,0(r2)
 100f168:	e0bfff17 	ldw	r2,-4(fp)
 100f16c:	108004c4 	addi	r2,r2,19
 100f170:	00c00804 	movi	r3,32
 100f174:	10c00005 	stb	r3,0(r2)
 100f178:	e0bfff17 	ldw	r2,-4(fp)
 100f17c:	10800504 	addi	r2,r2,20
 100f180:	00c014c4 	movi	r3,83
 100f184:	10c00005 	stb	r3,0(r2)
 100f188:	e0bfff17 	ldw	r2,-4(fp)
 100f18c:	10800544 	addi	r2,r2,21
 100f190:	00c01d04 	movi	r3,116
 100f194:	10c00005 	stb	r3,0(r2)
 100f198:	e0bfff17 	ldw	r2,-4(fp)
 100f19c:	10800584 	addi	r2,r2,22
 100f1a0:	00c01bc4 	movi	r3,111
 100f1a4:	10c00005 	stb	r3,0(r2)
 100f1a8:	e0bfff17 	ldw	r2,-4(fp)
 100f1ac:	108005c4 	addi	r2,r2,23
 100f1b0:	00c01c84 	movi	r3,114
 100f1b4:	10c00005 	stb	r3,0(r2)
 100f1b8:	e0bfff17 	ldw	r2,-4(fp)
 100f1bc:	10800604 	addi	r2,r2,24
 100f1c0:	00c01844 	movi	r3,97
 100f1c4:	10c00005 	stb	r3,0(r2)
 100f1c8:	e0bfff17 	ldw	r2,-4(fp)
 100f1cc:	10800644 	addi	r2,r2,25
 100f1d0:	00c019c4 	movi	r3,103
 100f1d4:	10c00005 	stb	r3,0(r2)
 100f1d8:	e0bfff17 	ldw	r2,-4(fp)
 100f1dc:	10800684 	addi	r2,r2,26
 100f1e0:	00c01944 	movi	r3,101
 100f1e4:	10c00005 	stb	r3,0(r2)
 100f1e8:	e0bfff17 	ldw	r2,-4(fp)
 100f1ec:	108006c4 	addi	r2,r2,27
 100f1f0:	00c00b44 	movi	r3,45
 100f1f4:	10c00005 	stb	r3,0(r2)
 100f1f8:	e0bfff17 	ldw	r2,-4(fp)
 100f1fc:	10800704 	addi	r2,r2,28
 100f200:	00c010c4 	movi	r3,67
 100f204:	10c00005 	stb	r3,0(r2)
 100f208:	e0bfff17 	ldw	r2,-4(fp)
 100f20c:	10800744 	addi	r2,r2,29
 100f210:	00c01184 	movi	r3,70
 100f214:	10c00005 	stb	r3,0(r2)
 100f218:	e0bfff17 	ldw	r2,-4(fp)
 100f21c:	10800784 	addi	r2,r2,30
 100f220:	00c01244 	movi	r3,73
 100f224:	10c00005 	stb	r3,0(r2)
 100f228:	e0bfff17 	ldw	r2,-4(fp)
 100f22c:	108007c4 	addi	r2,r2,31
 100f230:	00c00804 	movi	r3,32
 100f234:	10c00005 	stb	r3,0(r2)
 100f238:	e0bfff17 	ldw	r2,-4(fp)
 100f23c:	10800804 	addi	r2,r2,32
 100f240:	00c00c04 	movi	r3,48
 100f244:	10c00005 	stb	r3,0(r2)
 100f248:	e0bfff17 	ldw	r2,-4(fp)
 100f24c:	10800844 	addi	r2,r2,33
 100f250:	00c00c04 	movi	r3,48
 100f254:	10c00005 	stb	r3,0(r2)
 100f258:	e0bfff17 	ldw	r2,-4(fp)
 100f25c:	10800884 	addi	r2,r2,34
 100f260:	00c00c04 	movi	r3,48
 100f264:	10c00005 	stb	r3,0(r2)
 100f268:	e0bfff17 	ldw	r2,-4(fp)
 100f26c:	108008c4 	addi	r2,r2,35
 100f270:	00c00c44 	movi	r3,49
 100f274:	10c00005 	stb	r3,0(r2)
 100f278:	e037883a 	mov	sp,fp
 100f27c:	df000017 	ldw	fp,0(sp)
 100f280:	dec00104 	addi	sp,sp,4
 100f284:	f800283a 	ret

0100f288 <read_capacity>:
 100f288:	defffc04 	addi	sp,sp,-16
 100f28c:	df000315 	stw	fp,12(sp)
 100f290:	df000304 	addi	fp,sp,12
 100f294:	e13ffe15 	stw	r4,-8(fp)
 100f298:	e17fff15 	stw	r5,-4(fp)
 100f29c:	e0bfff17 	ldw	r2,-4(fp)
 100f2a0:	10800017 	ldw	r2,0(r2)
 100f2a4:	e0bffd15 	stw	r2,-12(fp)
 100f2a8:	e0bffd17 	ldw	r2,-12(fp)
 100f2ac:	10bfffc4 	addi	r2,r2,-1
 100f2b0:	1004d63a 	srli	r2,r2,24
 100f2b4:	1007883a 	mov	r3,r2
 100f2b8:	e0bffe17 	ldw	r2,-8(fp)
 100f2bc:	10c00005 	stb	r3,0(r2)
 100f2c0:	e0bffe17 	ldw	r2,-8(fp)
 100f2c4:	10800044 	addi	r2,r2,1
 100f2c8:	e0fffd17 	ldw	r3,-12(fp)
 100f2cc:	18ffffc4 	addi	r3,r3,-1
 100f2d0:	1806d43a 	srli	r3,r3,16
 100f2d4:	10c00005 	stb	r3,0(r2)
 100f2d8:	e0bffe17 	ldw	r2,-8(fp)
 100f2dc:	10800084 	addi	r2,r2,2
 100f2e0:	e0fffd17 	ldw	r3,-12(fp)
 100f2e4:	18ffffc4 	addi	r3,r3,-1
 100f2e8:	1806d23a 	srli	r3,r3,8
 100f2ec:	10c00005 	stb	r3,0(r2)
 100f2f0:	e0bffe17 	ldw	r2,-8(fp)
 100f2f4:	108000c4 	addi	r2,r2,3
 100f2f8:	e0fffd17 	ldw	r3,-12(fp)
 100f2fc:	18ffffc4 	addi	r3,r3,-1
 100f300:	10c00005 	stb	r3,0(r2)
 100f304:	e0bffe17 	ldw	r2,-8(fp)
 100f308:	10800104 	addi	r2,r2,4
 100f30c:	10000005 	stb	zero,0(r2)
 100f310:	e0bffe17 	ldw	r2,-8(fp)
 100f314:	10800144 	addi	r2,r2,5
 100f318:	10000005 	stb	zero,0(r2)
 100f31c:	e0bffe17 	ldw	r2,-8(fp)
 100f320:	10800184 	addi	r2,r2,6
 100f324:	00c00084 	movi	r3,2
 100f328:	10c00005 	stb	r3,0(r2)
 100f32c:	e0bffe17 	ldw	r2,-8(fp)
 100f330:	108001c4 	addi	r2,r2,7
 100f334:	10000005 	stb	zero,0(r2)
 100f338:	e037883a 	mov	sp,fp
 100f33c:	df000017 	ldw	fp,0(sp)
 100f340:	dec00104 	addi	sp,sp,4
 100f344:	f800283a 	ret

0100f348 <mode_sense>:
 100f348:	defffe04 	addi	sp,sp,-8
 100f34c:	df000115 	stw	fp,4(sp)
 100f350:	df000104 	addi	fp,sp,4
 100f354:	e13fff15 	stw	r4,-4(fp)
 100f358:	e0bfff17 	ldw	r2,-4(fp)
 100f35c:	00c000c4 	movi	r3,3
 100f360:	10c00005 	stb	r3,0(r2)
 100f364:	e0bfff17 	ldw	r2,-4(fp)
 100f368:	10800044 	addi	r2,r2,1
 100f36c:	10000005 	stb	zero,0(r2)
 100f370:	e0bfff17 	ldw	r2,-4(fp)
 100f374:	10800084 	addi	r2,r2,2
 100f378:	10000005 	stb	zero,0(r2)
 100f37c:	e0bfff17 	ldw	r2,-4(fp)
 100f380:	108000c4 	addi	r2,r2,3
 100f384:	10000005 	stb	zero,0(r2)
 100f388:	e037883a 	mov	sp,fp
 100f38c:	df000017 	ldw	fp,0(sp)
 100f390:	dec00104 	addi	sp,sp,4
 100f394:	f800283a 	ret

0100f398 <read_format_capacity>:
 100f398:	defffb04 	addi	sp,sp,-20
 100f39c:	df000415 	stw	fp,16(sp)
 100f3a0:	df000404 	addi	fp,sp,16
 100f3a4:	e13ffe15 	stw	r4,-8(fp)
 100f3a8:	e17fff15 	stw	r5,-4(fp)
 100f3ac:	e0bfff17 	ldw	r2,-4(fp)
 100f3b0:	10800017 	ldw	r2,0(r2)
 100f3b4:	e0bffc15 	stw	r2,-16(fp)
 100f3b8:	00808004 	movi	r2,512
 100f3bc:	e0bffd15 	stw	r2,-12(fp)
 100f3c0:	e0bffe17 	ldw	r2,-8(fp)
 100f3c4:	10000005 	stb	zero,0(r2)
 100f3c8:	e0bffe17 	ldw	r2,-8(fp)
 100f3cc:	10800044 	addi	r2,r2,1
 100f3d0:	10000005 	stb	zero,0(r2)
 100f3d4:	e0bffe17 	ldw	r2,-8(fp)
 100f3d8:	10800084 	addi	r2,r2,2
 100f3dc:	10000005 	stb	zero,0(r2)
 100f3e0:	e0bffe17 	ldw	r2,-8(fp)
 100f3e4:	108000c4 	addi	r2,r2,3
 100f3e8:	00c00204 	movi	r3,8
 100f3ec:	10c00005 	stb	r3,0(r2)
 100f3f0:	e0bffe17 	ldw	r2,-8(fp)
 100f3f4:	10800104 	addi	r2,r2,4
 100f3f8:	e0fffc17 	ldw	r3,-16(fp)
 100f3fc:	1806d63a 	srli	r3,r3,24
 100f400:	10c00005 	stb	r3,0(r2)
 100f404:	e0bffe17 	ldw	r2,-8(fp)
 100f408:	10800144 	addi	r2,r2,5
 100f40c:	e0fffc17 	ldw	r3,-16(fp)
 100f410:	1806d43a 	srli	r3,r3,16
 100f414:	10c00005 	stb	r3,0(r2)
 100f418:	e0bffe17 	ldw	r2,-8(fp)
 100f41c:	10800184 	addi	r2,r2,6
 100f420:	e0fffc17 	ldw	r3,-16(fp)
 100f424:	1806d23a 	srli	r3,r3,8
 100f428:	10c00005 	stb	r3,0(r2)
 100f42c:	e0bffe17 	ldw	r2,-8(fp)
 100f430:	108001c4 	addi	r2,r2,7
 100f434:	e0fffc17 	ldw	r3,-16(fp)
 100f438:	10c00005 	stb	r3,0(r2)
 100f43c:	e0bffe17 	ldw	r2,-8(fp)
 100f440:	10800204 	addi	r2,r2,8
 100f444:	00c00084 	movi	r3,2
 100f448:	10c00005 	stb	r3,0(r2)
 100f44c:	e0bffe17 	ldw	r2,-8(fp)
 100f450:	10800244 	addi	r2,r2,9
 100f454:	e0fffd17 	ldw	r3,-12(fp)
 100f458:	1806d43a 	srli	r3,r3,16
 100f45c:	10c00005 	stb	r3,0(r2)
 100f460:	e0bffe17 	ldw	r2,-8(fp)
 100f464:	10800284 	addi	r2,r2,10
 100f468:	e0fffd17 	ldw	r3,-12(fp)
 100f46c:	1806d23a 	srli	r3,r3,8
 100f470:	10c00005 	stb	r3,0(r2)
 100f474:	e0bffe17 	ldw	r2,-8(fp)
 100f478:	108002c4 	addi	r2,r2,11
 100f47c:	e0fffd17 	ldw	r3,-12(fp)
 100f480:	10c00005 	stb	r3,0(r2)
 100f484:	e037883a 	mov	sp,fp
 100f488:	df000017 	ldw	fp,0(sp)
 100f48c:	dec00104 	addi	sp,sp,4
 100f490:	f800283a 	ret

0100f494 <request_sense>:
 100f494:	defffc04 	addi	sp,sp,-16
 100f498:	dfc00315 	stw	ra,12(sp)
 100f49c:	df000215 	stw	fp,8(sp)
 100f4a0:	df000204 	addi	fp,sp,8
 100f4a4:	e13ffe15 	stw	r4,-8(fp)
 100f4a8:	e17fff15 	stw	r5,-4(fp)
 100f4ac:	e0bffe17 	ldw	r2,-8(fp)
 100f4b0:	00c01c04 	movi	r3,112
 100f4b4:	10c00005 	stb	r3,0(r2)
 100f4b8:	e0bffe17 	ldw	r2,-8(fp)
 100f4bc:	10800044 	addi	r2,r2,1
 100f4c0:	10000005 	stb	zero,0(r2)
 100f4c4:	e0bffe17 	ldw	r2,-8(fp)
 100f4c8:	10800084 	addi	r2,r2,2
 100f4cc:	00c00084 	movi	r3,2
 100f4d0:	10c00005 	stb	r3,0(r2)
 100f4d4:	e0ffff17 	ldw	r3,-4(fp)
 100f4d8:	00a00514 	movui	r2,32788
 100f4dc:	1885883a 	add	r2,r3,r2
 100f4e0:	10800017 	ldw	r2,0(r2)
 100f4e4:	10800058 	cmpnei	r2,r2,1
 100f4e8:	1000041e 	bne	r2,zero,100f4fc <request_sense+0x68>
 100f4ec:	e0bffe17 	ldw	r2,-8(fp)
 100f4f0:	10800084 	addi	r2,r2,2
 100f4f4:	00c00144 	movi	r3,5
 100f4f8:	10c00005 	stb	r3,0(r2)
 100f4fc:	e0bffe17 	ldw	r2,-8(fp)
 100f500:	108000c4 	addi	r2,r2,3
 100f504:	10000005 	stb	zero,0(r2)
 100f508:	e0bffe17 	ldw	r2,-8(fp)
 100f50c:	10800104 	addi	r2,r2,4
 100f510:	10000005 	stb	zero,0(r2)
 100f514:	e0bffe17 	ldw	r2,-8(fp)
 100f518:	10800144 	addi	r2,r2,5
 100f51c:	10000005 	stb	zero,0(r2)
 100f520:	e0bffe17 	ldw	r2,-8(fp)
 100f524:	10800184 	addi	r2,r2,6
 100f528:	10000005 	stb	zero,0(r2)
 100f52c:	e0bffe17 	ldw	r2,-8(fp)
 100f530:	108001c4 	addi	r2,r2,7
 100f534:	00c00284 	movi	r3,10
 100f538:	10c00005 	stb	r3,0(r2)
 100f53c:	e0bffe17 	ldw	r2,-8(fp)
 100f540:	10800204 	addi	r2,r2,8
 100f544:	10000005 	stb	zero,0(r2)
 100f548:	e0bffe17 	ldw	r2,-8(fp)
 100f54c:	10800244 	addi	r2,r2,9
 100f550:	10000005 	stb	zero,0(r2)
 100f554:	e0bffe17 	ldw	r2,-8(fp)
 100f558:	10800284 	addi	r2,r2,10
 100f55c:	10000005 	stb	zero,0(r2)
 100f560:	e0bffe17 	ldw	r2,-8(fp)
 100f564:	108002c4 	addi	r2,r2,11
 100f568:	10000005 	stb	zero,0(r2)
 100f56c:	e0bffe17 	ldw	r2,-8(fp)
 100f570:	10800304 	addi	r2,r2,12
 100f574:	00c00e84 	movi	r3,58
 100f578:	10c00005 	stb	r3,0(r2)
 100f57c:	e0bffe17 	ldw	r2,-8(fp)
 100f580:	10800344 	addi	r2,r2,13
 100f584:	10000005 	stb	zero,0(r2)
 100f588:	e0bffe17 	ldw	r2,-8(fp)
 100f58c:	10800384 	addi	r2,r2,14
 100f590:	10000005 	stb	zero,0(r2)
 100f594:	e0bffe17 	ldw	r2,-8(fp)
 100f598:	108003c4 	addi	r2,r2,15
 100f59c:	10000005 	stb	zero,0(r2)
 100f5a0:	e0bffe17 	ldw	r2,-8(fp)
 100f5a4:	10800404 	addi	r2,r2,16
 100f5a8:	10000005 	stb	zero,0(r2)
 100f5ac:	e0bffe17 	ldw	r2,-8(fp)
 100f5b0:	10800444 	addi	r2,r2,17
 100f5b4:	10000005 	stb	zero,0(r2)
 100f5b8:	d0a18b17 	ldw	r2,-31188(gp)
 100f5bc:	1000131e 	bne	r2,zero,100f60c <request_sense+0x178>
 100f5c0:	e13fff17 	ldw	r4,-4(fp)
 100f5c4:	10007980 	call	1000798 <SD_card_init>
 100f5c8:	10803fcc 	andi	r2,r2,255
 100f5cc:	10800058 	cmpnei	r2,r2,1
 100f5d0:	10000e1e 	bne	r2,zero,100f60c <request_sense+0x178>
 100f5d4:	e0ffff17 	ldw	r3,-4(fp)
 100f5d8:	00a00514 	movui	r2,32788
 100f5dc:	1885883a 	add	r2,r3,r2
 100f5e0:	10800017 	ldw	r2,0(r2)
 100f5e4:	10800060 	cmpeqi	r2,r2,1
 100f5e8:	1000081e 	bne	r2,zero,100f60c <request_sense+0x178>
 100f5ec:	e0bffe17 	ldw	r2,-8(fp)
 100f5f0:	10800084 	addi	r2,r2,2
 100f5f4:	00c00184 	movi	r3,6
 100f5f8:	10c00005 	stb	r3,0(r2)
 100f5fc:	e0bffe17 	ldw	r2,-8(fp)
 100f600:	10800304 	addi	r2,r2,12
 100f604:	00c00a04 	movi	r3,40
 100f608:	10c00005 	stb	r3,0(r2)
 100f60c:	e0ffff17 	ldw	r3,-4(fp)
 100f610:	00a00514 	movui	r2,32788
 100f614:	1885883a 	add	r2,r3,r2
 100f618:	10800017 	ldw	r2,0(r2)
 100f61c:	10800058 	cmpnei	r2,r2,1
 100f620:	1000041e 	bne	r2,zero,100f634 <request_sense+0x1a0>
 100f624:	e0ffff17 	ldw	r3,-4(fp)
 100f628:	00a00514 	movui	r2,32788
 100f62c:	1885883a 	add	r2,r3,r2
 100f630:	10000015 	stw	zero,0(r2)
 100f634:	e037883a 	mov	sp,fp
 100f638:	dfc00117 	ldw	ra,4(sp)
 100f63c:	df000017 	ldw	fp,0(sp)
 100f640:	dec00204 	addi	sp,sp,8
 100f644:	f800283a 	ret

0100f648 <__fixunssfsi>:
 100f648:	defffd04 	addi	sp,sp,-12
 100f64c:	dc000015 	stw	r16,0(sp)
 100f650:	0413c034 	movhi	r16,20224
 100f654:	800b883a 	mov	r5,r16
 100f658:	dc400115 	stw	r17,4(sp)
 100f65c:	dfc00215 	stw	ra,8(sp)
 100f660:	2023883a 	mov	r17,r4
 100f664:	10101040 	call	1010104 <__gesf2>
 100f668:	1000070e 	bge	r2,zero,100f688 <__fixunssfsi+0x40>
 100f66c:	8809883a 	mov	r4,r17
 100f670:	10106b80 	call	10106b8 <__fixsfsi>
 100f674:	dfc00217 	ldw	ra,8(sp)
 100f678:	dc400117 	ldw	r17,4(sp)
 100f67c:	dc000017 	ldw	r16,0(sp)
 100f680:	dec00304 	addi	sp,sp,12
 100f684:	f800283a 	ret
 100f688:	800b883a 	mov	r5,r16
 100f68c:	8809883a 	mov	r4,r17
 100f690:	10101bc0 	call	10101bc <__subsf3>
 100f694:	1009883a 	mov	r4,r2
 100f698:	10106b80 	call	10106b8 <__fixsfsi>
 100f69c:	00e00034 	movhi	r3,32768
 100f6a0:	10c5883a 	add	r2,r2,r3
 100f6a4:	003ff306 	br	100f674 <__alt_data_end+0xfffeee74>

0100f6a8 <udivmodsi4>:
 100f6a8:	2900182e 	bgeu	r5,r4,100f70c <udivmodsi4+0x64>
 100f6ac:	28001716 	blt	r5,zero,100f70c <udivmodsi4+0x64>
 100f6b0:	00800804 	movi	r2,32
 100f6b4:	00c00044 	movi	r3,1
 100f6b8:	00000206 	br	100f6c4 <udivmodsi4+0x1c>
 100f6bc:	10001126 	beq	r2,zero,100f704 <udivmodsi4+0x5c>
 100f6c0:	28000516 	blt	r5,zero,100f6d8 <udivmodsi4+0x30>
 100f6c4:	294b883a 	add	r5,r5,r5
 100f6c8:	10bfffc4 	addi	r2,r2,-1
 100f6cc:	18c7883a 	add	r3,r3,r3
 100f6d0:	293ffa36 	bltu	r5,r4,100f6bc <__alt_data_end+0xfffeeebc>
 100f6d4:	18000b26 	beq	r3,zero,100f704 <udivmodsi4+0x5c>
 100f6d8:	0005883a 	mov	r2,zero
 100f6dc:	21400236 	bltu	r4,r5,100f6e8 <udivmodsi4+0x40>
 100f6e0:	2149c83a 	sub	r4,r4,r5
 100f6e4:	10c4b03a 	or	r2,r2,r3
 100f6e8:	1806d07a 	srli	r3,r3,1
 100f6ec:	280ad07a 	srli	r5,r5,1
 100f6f0:	183ffa1e 	bne	r3,zero,100f6dc <__alt_data_end+0xfffeeedc>
 100f6f4:	3000011e 	bne	r6,zero,100f6fc <udivmodsi4+0x54>
 100f6f8:	f800283a 	ret
 100f6fc:	2005883a 	mov	r2,r4
 100f700:	f800283a 	ret
 100f704:	0005883a 	mov	r2,zero
 100f708:	003ffa06 	br	100f6f4 <__alt_data_end+0xfffeeef4>
 100f70c:	00c00044 	movi	r3,1
 100f710:	003ff106 	br	100f6d8 <__alt_data_end+0xfffeeed8>

0100f714 <__divsi3>:
 100f714:	defffe04 	addi	sp,sp,-8
 100f718:	dfc00115 	stw	ra,4(sp)
 100f71c:	dc000015 	stw	r16,0(sp)
 100f720:	20000b16 	blt	r4,zero,100f750 <__divsi3+0x3c>
 100f724:	0021883a 	mov	r16,zero
 100f728:	28000c16 	blt	r5,zero,100f75c <__divsi3+0x48>
 100f72c:	000d883a 	mov	r6,zero
 100f730:	100f6a80 	call	100f6a8 <udivmodsi4>
 100f734:	0407c83a 	sub	r3,zero,r16
 100f738:	1884f03a 	xor	r2,r3,r2
 100f73c:	1405883a 	add	r2,r2,r16
 100f740:	dfc00117 	ldw	ra,4(sp)
 100f744:	dc000017 	ldw	r16,0(sp)
 100f748:	dec00204 	addi	sp,sp,8
 100f74c:	f800283a 	ret
 100f750:	0109c83a 	sub	r4,zero,r4
 100f754:	04000044 	movi	r16,1
 100f758:	283ff40e 	bge	r5,zero,100f72c <__alt_data_end+0xfffeef2c>
 100f75c:	014bc83a 	sub	r5,zero,r5
 100f760:	8400005c 	xori	r16,r16,1
 100f764:	003ff106 	br	100f72c <__alt_data_end+0xfffeef2c>

0100f768 <__modsi3>:
 100f768:	defffd04 	addi	sp,sp,-12
 100f76c:	dfc00215 	stw	ra,8(sp)
 100f770:	dc400115 	stw	r17,4(sp)
 100f774:	dc000015 	stw	r16,0(sp)
 100f778:	20000c16 	blt	r4,zero,100f7ac <__modsi3+0x44>
 100f77c:	0023883a 	mov	r17,zero
 100f780:	0021883a 	mov	r16,zero
 100f784:	28000d16 	blt	r5,zero,100f7bc <__modsi3+0x54>
 100f788:	01800044 	movi	r6,1
 100f78c:	100f6a80 	call	100f6a8 <udivmodsi4>
 100f790:	1404f03a 	xor	r2,r2,r16
 100f794:	8885883a 	add	r2,r17,r2
 100f798:	dfc00217 	ldw	ra,8(sp)
 100f79c:	dc400117 	ldw	r17,4(sp)
 100f7a0:	dc000017 	ldw	r16,0(sp)
 100f7a4:	dec00304 	addi	sp,sp,12
 100f7a8:	f800283a 	ret
 100f7ac:	0109c83a 	sub	r4,zero,r4
 100f7b0:	04400044 	movi	r17,1
 100f7b4:	043fffc4 	movi	r16,-1
 100f7b8:	283ff30e 	bge	r5,zero,100f788 <__alt_data_end+0xfffeef88>
 100f7bc:	014bc83a 	sub	r5,zero,r5
 100f7c0:	003ff106 	br	100f788 <__alt_data_end+0xfffeef88>

0100f7c4 <__udivsi3>:
 100f7c4:	000d883a 	mov	r6,zero
 100f7c8:	100f6a81 	jmpi	100f6a8 <udivmodsi4>

0100f7cc <__umodsi3>:
 100f7cc:	01800044 	movi	r6,1
 100f7d0:	100f6a81 	jmpi	100f6a8 <udivmodsi4>

0100f7d4 <__addsf3>:
 100f7d4:	defffc04 	addi	sp,sp,-16
 100f7d8:	2004d7fa 	srli	r2,r4,31
 100f7dc:	280ed5fa 	srli	r7,r5,23
 100f7e0:	dc000015 	stw	r16,0(sp)
 100f7e4:	01802034 	movhi	r6,128
 100f7e8:	2020d5fa 	srli	r16,r4,23
 100f7ec:	31bfffc4 	addi	r6,r6,-1
 100f7f0:	2810d7fa 	srli	r8,r5,31
 100f7f4:	3108703a 	and	r4,r6,r4
 100f7f8:	dc800215 	stw	r18,8(sp)
 100f7fc:	314c703a 	and	r6,r6,r5
 100f800:	84003fcc 	andi	r16,r16,255
 100f804:	200690fa 	slli	r3,r4,3
 100f808:	dfc00315 	stw	ra,12(sp)
 100f80c:	39003fcc 	andi	r4,r7,255
 100f810:	dc400115 	stw	r17,4(sp)
 100f814:	14803fcc 	andi	r18,r2,255
 100f818:	300c90fa 	slli	r6,r6,3
 100f81c:	810bc83a 	sub	r5,r16,r4
 100f820:	92004826 	beq	r18,r8,100f944 <__addsf3+0x170>
 100f824:	01406c0e 	bge	zero,r5,100f9d8 <__addsf3+0x204>
 100f828:	20001e1e 	bne	r4,zero,100f8a4 <__addsf3+0xd0>
 100f82c:	3000611e 	bne	r6,zero,100f9b4 <__addsf3+0x1e0>
 100f830:	188001cc 	andi	r2,r3,7
 100f834:	10000426 	beq	r2,zero,100f848 <__addsf3+0x74>
 100f838:	190003cc 	andi	r4,r3,15
 100f83c:	00800104 	movi	r2,4
 100f840:	20800126 	beq	r4,r2,100f848 <__addsf3+0x74>
 100f844:	18c00104 	addi	r3,r3,4
 100f848:	1901002c 	andhi	r4,r3,1024
 100f84c:	9005883a 	mov	r2,r18
 100f850:	20003426 	beq	r4,zero,100f924 <__addsf3+0x150>
 100f854:	81400044 	addi	r5,r16,1
 100f858:	01003fc4 	movi	r4,255
 100f85c:	29006926 	beq	r5,r4,100fa04 <__addsf3+0x230>
 100f860:	180691ba 	slli	r3,r3,6
 100f864:	1808d27a 	srli	r4,r3,9
 100f868:	29403fcc 	andi	r5,r5,255
 100f86c:	280a95fa 	slli	r5,r5,23
 100f870:	10803fcc 	andi	r2,r2,255
 100f874:	00c02034 	movhi	r3,128
 100f878:	100497fa 	slli	r2,r2,31
 100f87c:	18ffffc4 	addi	r3,r3,-1
 100f880:	20c6703a 	and	r3,r4,r3
 100f884:	1946b03a 	or	r3,r3,r5
 100f888:	1884b03a 	or	r2,r3,r2
 100f88c:	dfc00317 	ldw	ra,12(sp)
 100f890:	dc800217 	ldw	r18,8(sp)
 100f894:	dc400117 	ldw	r17,4(sp)
 100f898:	dc000017 	ldw	r16,0(sp)
 100f89c:	dec00404 	addi	sp,sp,16
 100f8a0:	f800283a 	ret
 100f8a4:	00803fc4 	movi	r2,255
 100f8a8:	80bfe126 	beq	r16,r2,100f830 <__alt_data_end+0xfffef030>
 100f8ac:	31810034 	orhi	r6,r6,1024
 100f8b0:	008006c4 	movi	r2,27
 100f8b4:	11405b0e 	bge	r2,r5,100fa24 <__addsf3+0x250>
 100f8b8:	01400044 	movi	r5,1
 100f8bc:	1947c83a 	sub	r3,r3,r5
 100f8c0:	1881002c 	andhi	r2,r3,1024
 100f8c4:	10001426 	beq	r2,zero,100f918 <__addsf3+0x144>
 100f8c8:	04410034 	movhi	r17,1024
 100f8cc:	8c7fffc4 	addi	r17,r17,-1
 100f8d0:	1c62703a 	and	r17,r3,r17
 100f8d4:	8809883a 	mov	r4,r17
 100f8d8:	10109500 	call	1010950 <__clzsi2>
 100f8dc:	10bffec4 	addi	r2,r2,-5
 100f8e0:	88a2983a 	sll	r17,r17,r2
 100f8e4:	14004a16 	blt	r2,r16,100fa10 <__addsf3+0x23c>
 100f8e8:	140bc83a 	sub	r5,r2,r16
 100f8ec:	00c007c4 	movi	r3,31
 100f8f0:	1947c83a 	sub	r3,r3,r5
 100f8f4:	88c6983a 	sll	r3,r17,r3
 100f8f8:	29400044 	addi	r5,r5,1
 100f8fc:	8962d83a 	srl	r17,r17,r5
 100f900:	1806c03a 	cmpne	r3,r3,zero
 100f904:	0021883a 	mov	r16,zero
 100f908:	1c46b03a 	or	r3,r3,r17
 100f90c:	003fc806 	br	100f830 <__alt_data_end+0xfffef030>
 100f910:	1000e526 	beq	r2,zero,100fca8 <__addsf3+0x4d4>
 100f914:	1007883a 	mov	r3,r2
 100f918:	188001cc 	andi	r2,r3,7
 100f91c:	103fc61e 	bne	r2,zero,100f838 <__alt_data_end+0xfffef038>
 100f920:	9005883a 	mov	r2,r18
 100f924:	01003fc4 	movi	r4,255
 100f928:	1806d0fa 	srli	r3,r3,3
 100f92c:	81001a26 	beq	r16,r4,100f998 <__addsf3+0x1c4>
 100f930:	01002034 	movhi	r4,128
 100f934:	213fffc4 	addi	r4,r4,-1
 100f938:	800b883a 	mov	r5,r16
 100f93c:	1908703a 	and	r4,r3,r4
 100f940:	003fc906 	br	100f868 <__alt_data_end+0xfffef068>
 100f944:	01403e0e 	bge	zero,r5,100fa40 <__addsf3+0x26c>
 100f948:	20001e26 	beq	r4,zero,100f9c4 <__addsf3+0x1f0>
 100f94c:	01003fc4 	movi	r4,255
 100f950:	813fb726 	beq	r16,r4,100f830 <__alt_data_end+0xfffef030>
 100f954:	31810034 	orhi	r6,r6,1024
 100f958:	010006c4 	movi	r4,27
 100f95c:	2140570e 	bge	r4,r5,100fabc <__addsf3+0x2e8>
 100f960:	01400044 	movi	r5,1
 100f964:	1947883a 	add	r3,r3,r5
 100f968:	1901002c 	andhi	r4,r3,1024
 100f96c:	203fea26 	beq	r4,zero,100f918 <__alt_data_end+0xfffef118>
 100f970:	84000044 	addi	r16,r16,1
 100f974:	01003fc4 	movi	r4,255
 100f978:	81007526 	beq	r16,r4,100fb50 <__addsf3+0x37c>
 100f97c:	00bf0034 	movhi	r2,64512
 100f980:	10bfffc4 	addi	r2,r2,-1
 100f984:	1900004c 	andi	r4,r3,1
 100f988:	1886703a 	and	r3,r3,r2
 100f98c:	1806d07a 	srli	r3,r3,1
 100f990:	1906b03a 	or	r3,r3,r4
 100f994:	003fa606 	br	100f830 <__alt_data_end+0xfffef030>
 100f998:	18001a26 	beq	r3,zero,100fa04 <__addsf3+0x230>
 100f99c:	19001034 	orhi	r4,r3,64
 100f9a0:	00c02034 	movhi	r3,128
 100f9a4:	18ffffc4 	addi	r3,r3,-1
 100f9a8:	017fffc4 	movi	r5,-1
 100f9ac:	20c8703a 	and	r4,r4,r3
 100f9b0:	003fad06 	br	100f868 <__alt_data_end+0xfffef068>
 100f9b4:	297fffc4 	addi	r5,r5,-1
 100f9b8:	28002c1e 	bne	r5,zero,100fa6c <__addsf3+0x298>
 100f9bc:	1987c83a 	sub	r3,r3,r6
 100f9c0:	003fbf06 	br	100f8c0 <__alt_data_end+0xfffef0c0>
 100f9c4:	303f9a26 	beq	r6,zero,100f830 <__alt_data_end+0xfffef030>
 100f9c8:	297fffc4 	addi	r5,r5,-1
 100f9cc:	28004b1e 	bne	r5,zero,100fafc <__addsf3+0x328>
 100f9d0:	1987883a 	add	r3,r3,r6
 100f9d4:	003fe406 	br	100f968 <__alt_data_end+0xfffef168>
 100f9d8:	2800271e 	bne	r5,zero,100fa78 <__addsf3+0x2a4>
 100f9dc:	80800044 	addi	r2,r16,1
 100f9e0:	10803fcc 	andi	r2,r2,255
 100f9e4:	01000044 	movi	r4,1
 100f9e8:	2080520e 	bge	r4,r2,100fb34 <__addsf3+0x360>
 100f9ec:	19a3c83a 	sub	r17,r3,r6
 100f9f0:	8881002c 	andhi	r2,r17,1024
 100f9f4:	10002c26 	beq	r2,zero,100faa8 <__addsf3+0x2d4>
 100f9f8:	30e3c83a 	sub	r17,r6,r3
 100f9fc:	4025883a 	mov	r18,r8
 100fa00:	003fb406 	br	100f8d4 <__alt_data_end+0xfffef0d4>
 100fa04:	017fffc4 	movi	r5,-1
 100fa08:	0009883a 	mov	r4,zero
 100fa0c:	003f9606 	br	100f868 <__alt_data_end+0xfffef068>
 100fa10:	00ff0034 	movhi	r3,64512
 100fa14:	18ffffc4 	addi	r3,r3,-1
 100fa18:	80a1c83a 	sub	r16,r16,r2
 100fa1c:	88c6703a 	and	r3,r17,r3
 100fa20:	003f8306 	br	100f830 <__alt_data_end+0xfffef030>
 100fa24:	00800804 	movi	r2,32
 100fa28:	1145c83a 	sub	r2,r2,r5
 100fa2c:	3084983a 	sll	r2,r6,r2
 100fa30:	314cd83a 	srl	r6,r6,r5
 100fa34:	100ac03a 	cmpne	r5,r2,zero
 100fa38:	298ab03a 	or	r5,r5,r6
 100fa3c:	003f9f06 	br	100f8bc <__alt_data_end+0xfffef0bc>
 100fa40:	2800451e 	bne	r5,zero,100fb58 <__addsf3+0x384>
 100fa44:	81000044 	addi	r4,r16,1
 100fa48:	21c03fcc 	andi	r7,r4,255
 100fa4c:	01400044 	movi	r5,1
 100fa50:	29c02d0e 	bge	r5,r7,100fb08 <__addsf3+0x334>
 100fa54:	01403fc4 	movi	r5,255
 100fa58:	21403c26 	beq	r4,r5,100fb4c <__addsf3+0x378>
 100fa5c:	30c7883a 	add	r3,r6,r3
 100fa60:	1806d07a 	srli	r3,r3,1
 100fa64:	2021883a 	mov	r16,r4
 100fa68:	003f7106 	br	100f830 <__alt_data_end+0xfffef030>
 100fa6c:	00803fc4 	movi	r2,255
 100fa70:	80bf8f1e 	bne	r16,r2,100f8b0 <__alt_data_end+0xfffef0b0>
 100fa74:	003f6e06 	br	100f830 <__alt_data_end+0xfffef030>
 100fa78:	80001726 	beq	r16,zero,100fad8 <__addsf3+0x304>
 100fa7c:	00803fc4 	movi	r2,255
 100fa80:	20801a26 	beq	r4,r2,100faec <__addsf3+0x318>
 100fa84:	014bc83a 	sub	r5,zero,r5
 100fa88:	18c10034 	orhi	r3,r3,1024
 100fa8c:	008006c4 	movi	r2,27
 100fa90:	1140430e 	bge	r2,r5,100fba0 <__addsf3+0x3cc>
 100fa94:	00c00044 	movi	r3,1
 100fa98:	30c7c83a 	sub	r3,r6,r3
 100fa9c:	2021883a 	mov	r16,r4
 100faa0:	4025883a 	mov	r18,r8
 100faa4:	003f8606 	br	100f8c0 <__alt_data_end+0xfffef0c0>
 100faa8:	883f8a1e 	bne	r17,zero,100f8d4 <__alt_data_end+0xfffef0d4>
 100faac:	0007883a 	mov	r3,zero
 100fab0:	0005883a 	mov	r2,zero
 100fab4:	0021883a 	mov	r16,zero
 100fab8:	003f9a06 	br	100f924 <__alt_data_end+0xfffef124>
 100fabc:	01000804 	movi	r4,32
 100fac0:	2149c83a 	sub	r4,r4,r5
 100fac4:	3108983a 	sll	r4,r6,r4
 100fac8:	314cd83a 	srl	r6,r6,r5
 100facc:	200ac03a 	cmpne	r5,r4,zero
 100fad0:	298ab03a 	or	r5,r5,r6
 100fad4:	003fa306 	br	100f964 <__alt_data_end+0xfffef164>
 100fad8:	18000426 	beq	r3,zero,100faec <__addsf3+0x318>
 100fadc:	014a303a 	nor	r5,zero,r5
 100fae0:	283fed26 	beq	r5,zero,100fa98 <__alt_data_end+0xfffef298>
 100fae4:	00803fc4 	movi	r2,255
 100fae8:	20bfe81e 	bne	r4,r2,100fa8c <__alt_data_end+0xfffef28c>
 100faec:	3007883a 	mov	r3,r6
 100faf0:	2021883a 	mov	r16,r4
 100faf4:	4025883a 	mov	r18,r8
 100faf8:	003f4d06 	br	100f830 <__alt_data_end+0xfffef030>
 100fafc:	01003fc4 	movi	r4,255
 100fb00:	813f951e 	bne	r16,r4,100f958 <__alt_data_end+0xfffef158>
 100fb04:	003f4a06 	br	100f830 <__alt_data_end+0xfffef030>
 100fb08:	8000471e 	bne	r16,zero,100fc28 <__addsf3+0x454>
 100fb0c:	18006126 	beq	r3,zero,100fc94 <__addsf3+0x4c0>
 100fb10:	303f4726 	beq	r6,zero,100f830 <__alt_data_end+0xfffef030>
 100fb14:	1987883a 	add	r3,r3,r6
 100fb18:	1881002c 	andhi	r2,r3,1024
 100fb1c:	103f7e26 	beq	r2,zero,100f918 <__alt_data_end+0xfffef118>
 100fb20:	00bf0034 	movhi	r2,64512
 100fb24:	10bfffc4 	addi	r2,r2,-1
 100fb28:	2821883a 	mov	r16,r5
 100fb2c:	1886703a 	and	r3,r3,r2
 100fb30:	003f3f06 	br	100f830 <__alt_data_end+0xfffef030>
 100fb34:	8000141e 	bne	r16,zero,100fb88 <__addsf3+0x3b4>
 100fb38:	1800311e 	bne	r3,zero,100fc00 <__addsf3+0x42c>
 100fb3c:	30004626 	beq	r6,zero,100fc58 <__addsf3+0x484>
 100fb40:	3007883a 	mov	r3,r6
 100fb44:	4025883a 	mov	r18,r8
 100fb48:	003f3906 	br	100f830 <__alt_data_end+0xfffef030>
 100fb4c:	2021883a 	mov	r16,r4
 100fb50:	0007883a 	mov	r3,zero
 100fb54:	003f7306 	br	100f924 <__alt_data_end+0xfffef124>
 100fb58:	8000181e 	bne	r16,zero,100fbbc <__addsf3+0x3e8>
 100fb5c:	18002f26 	beq	r3,zero,100fc1c <__addsf3+0x448>
 100fb60:	014a303a 	nor	r5,zero,r5
 100fb64:	28000526 	beq	r5,zero,100fb7c <__addsf3+0x3a8>
 100fb68:	01c03fc4 	movi	r7,255
 100fb6c:	21c02b26 	beq	r4,r7,100fc1c <__addsf3+0x448>
 100fb70:	01c006c4 	movi	r7,27
 100fb74:	3940400e 	bge	r7,r5,100fc78 <__addsf3+0x4a4>
 100fb78:	00c00044 	movi	r3,1
 100fb7c:	1987883a 	add	r3,r3,r6
 100fb80:	2021883a 	mov	r16,r4
 100fb84:	003f7806 	br	100f968 <__alt_data_end+0xfffef168>
 100fb88:	1800111e 	bne	r3,zero,100fbd0 <__addsf3+0x3fc>
 100fb8c:	30003526 	beq	r6,zero,100fc64 <__addsf3+0x490>
 100fb90:	3007883a 	mov	r3,r6
 100fb94:	4025883a 	mov	r18,r8
 100fb98:	04003fc4 	movi	r16,255
 100fb9c:	003f2406 	br	100f830 <__alt_data_end+0xfffef030>
 100fba0:	00800804 	movi	r2,32
 100fba4:	1145c83a 	sub	r2,r2,r5
 100fba8:	1884983a 	sll	r2,r3,r2
 100fbac:	194ad83a 	srl	r5,r3,r5
 100fbb0:	1006c03a 	cmpne	r3,r2,zero
 100fbb4:	1946b03a 	or	r3,r3,r5
 100fbb8:	003fb706 	br	100fa98 <__alt_data_end+0xfffef298>
 100fbbc:	01c03fc4 	movi	r7,255
 100fbc0:	21c01626 	beq	r4,r7,100fc1c <__addsf3+0x448>
 100fbc4:	014bc83a 	sub	r5,zero,r5
 100fbc8:	18c10034 	orhi	r3,r3,1024
 100fbcc:	003fe806 	br	100fb70 <__alt_data_end+0xfffef370>
 100fbd0:	30001f26 	beq	r6,zero,100fc50 <__addsf3+0x47c>
 100fbd4:	1806d0fa 	srli	r3,r3,3
 100fbd8:	1880102c 	andhi	r2,r3,64
 100fbdc:	10000526 	beq	r2,zero,100fbf4 <__addsf3+0x420>
 100fbe0:	300cd0fa 	srli	r6,r6,3
 100fbe4:	3080102c 	andhi	r2,r6,64
 100fbe8:	1000021e 	bne	r2,zero,100fbf4 <__addsf3+0x420>
 100fbec:	3007883a 	mov	r3,r6
 100fbf0:	4025883a 	mov	r18,r8
 100fbf4:	180690fa 	slli	r3,r3,3
 100fbf8:	04003fc4 	movi	r16,255
 100fbfc:	003f0c06 	br	100f830 <__alt_data_end+0xfffef030>
 100fc00:	303f0b26 	beq	r6,zero,100f830 <__alt_data_end+0xfffef030>
 100fc04:	1985c83a 	sub	r2,r3,r6
 100fc08:	1101002c 	andhi	r4,r2,1024
 100fc0c:	203f4026 	beq	r4,zero,100f910 <__alt_data_end+0xfffef110>
 100fc10:	30c7c83a 	sub	r3,r6,r3
 100fc14:	4025883a 	mov	r18,r8
 100fc18:	003f0506 	br	100f830 <__alt_data_end+0xfffef030>
 100fc1c:	3007883a 	mov	r3,r6
 100fc20:	2021883a 	mov	r16,r4
 100fc24:	003f0206 	br	100f830 <__alt_data_end+0xfffef030>
 100fc28:	18001c26 	beq	r3,zero,100fc9c <__addsf3+0x4c8>
 100fc2c:	30000826 	beq	r6,zero,100fc50 <__addsf3+0x47c>
 100fc30:	1806d0fa 	srli	r3,r3,3
 100fc34:	1880102c 	andhi	r2,r3,64
 100fc38:	103fee26 	beq	r2,zero,100fbf4 <__alt_data_end+0xfffef3f4>
 100fc3c:	300cd0fa 	srli	r6,r6,3
 100fc40:	3080102c 	andhi	r2,r6,64
 100fc44:	103feb1e 	bne	r2,zero,100fbf4 <__alt_data_end+0xfffef3f4>
 100fc48:	3007883a 	mov	r3,r6
 100fc4c:	003fe906 	br	100fbf4 <__alt_data_end+0xfffef3f4>
 100fc50:	04003fc4 	movi	r16,255
 100fc54:	003ef606 	br	100f830 <__alt_data_end+0xfffef030>
 100fc58:	8007883a 	mov	r3,r16
 100fc5c:	0005883a 	mov	r2,zero
 100fc60:	003f3006 	br	100f924 <__alt_data_end+0xfffef124>
 100fc64:	00c10034 	movhi	r3,1024
 100fc68:	0005883a 	mov	r2,zero
 100fc6c:	18fffe04 	addi	r3,r3,-8
 100fc70:	04003fc4 	movi	r16,255
 100fc74:	003f2b06 	br	100f924 <__alt_data_end+0xfffef124>
 100fc78:	01c00804 	movi	r7,32
 100fc7c:	394fc83a 	sub	r7,r7,r5
 100fc80:	19ce983a 	sll	r7,r3,r7
 100fc84:	194ad83a 	srl	r5,r3,r5
 100fc88:	3806c03a 	cmpne	r3,r7,zero
 100fc8c:	1946b03a 	or	r3,r3,r5
 100fc90:	003fba06 	br	100fb7c <__alt_data_end+0xfffef37c>
 100fc94:	3007883a 	mov	r3,r6
 100fc98:	003ee506 	br	100f830 <__alt_data_end+0xfffef030>
 100fc9c:	3007883a 	mov	r3,r6
 100fca0:	04003fc4 	movi	r16,255
 100fca4:	003ee206 	br	100f830 <__alt_data_end+0xfffef030>
 100fca8:	0007883a 	mov	r3,zero
 100fcac:	0005883a 	mov	r2,zero
 100fcb0:	003f1c06 	br	100f924 <__alt_data_end+0xfffef124>

0100fcb4 <__divsf3>:
 100fcb4:	defff504 	addi	sp,sp,-44
 100fcb8:	dd000515 	stw	r20,20(sp)
 100fcbc:	2028d5fa 	srli	r20,r4,23
 100fcc0:	dd400615 	stw	r21,24(sp)
 100fcc4:	202ad7fa 	srli	r21,r4,31
 100fcc8:	00c02034 	movhi	r3,128
 100fccc:	dcc00415 	stw	r19,16(sp)
 100fcd0:	dc800315 	stw	r18,12(sp)
 100fcd4:	18ffffc4 	addi	r3,r3,-1
 100fcd8:	dfc00a15 	stw	ra,40(sp)
 100fcdc:	df000915 	stw	fp,36(sp)
 100fce0:	ddc00815 	stw	r23,32(sp)
 100fce4:	dd800715 	stw	r22,28(sp)
 100fce8:	dc400215 	stw	r17,8(sp)
 100fcec:	dc000115 	stw	r16,4(sp)
 100fcf0:	a5003fcc 	andi	r20,r20,255
 100fcf4:	1924703a 	and	r18,r3,r4
 100fcf8:	acc03fcc 	andi	r19,r21,255
 100fcfc:	a0004d26 	beq	r20,zero,100fe34 <__divsf3+0x180>
 100fd00:	00803fc4 	movi	r2,255
 100fd04:	a0802e26 	beq	r20,r2,100fdc0 <__divsf3+0x10c>
 100fd08:	91002034 	orhi	r4,r18,128
 100fd0c:	202490fa 	slli	r18,r4,3
 100fd10:	a53fe044 	addi	r20,r20,-127
 100fd14:	0021883a 	mov	r16,zero
 100fd18:	002f883a 	mov	r23,zero
 100fd1c:	2804d5fa 	srli	r2,r5,23
 100fd20:	282cd7fa 	srli	r22,r5,31
 100fd24:	00c02034 	movhi	r3,128
 100fd28:	18ffffc4 	addi	r3,r3,-1
 100fd2c:	10803fcc 	andi	r2,r2,255
 100fd30:	1962703a 	and	r17,r3,r5
 100fd34:	b7003fcc 	andi	fp,r22,255
 100fd38:	10004526 	beq	r2,zero,100fe50 <__divsf3+0x19c>
 100fd3c:	00c03fc4 	movi	r3,255
 100fd40:	10c04026 	beq	r2,r3,100fe44 <__divsf3+0x190>
 100fd44:	88c02034 	orhi	r3,r17,128
 100fd48:	182290fa 	slli	r17,r3,3
 100fd4c:	10bfe044 	addi	r2,r2,-127
 100fd50:	0009883a 	mov	r4,zero
 100fd54:	2420b03a 	or	r16,r4,r16
 100fd58:	802090ba 	slli	r16,r16,2
 100fd5c:	01c04074 	movhi	r7,257
 100fd60:	39ff6004 	addi	r7,r7,-640
 100fd64:	81e1883a 	add	r16,r16,r7
 100fd68:	80c00017 	ldw	r3,0(r16)
 100fd6c:	ad8af03a 	xor	r5,r21,r22
 100fd70:	280d883a 	mov	r6,r5
 100fd74:	a085c83a 	sub	r2,r20,r2
 100fd78:	29403fcc 	andi	r5,r5,255
 100fd7c:	1800683a 	jmp	r3
 100fd80:	0100ff8c 	andi	r4,zero,1022
 100fd84:	0100ff34 	movhi	r4,1020
 100fd88:	0100ff58 	cmpnei	r4,zero,1021
 100fd8c:	0100ff20 	cmpeqi	r4,zero,1020
 100fd90:	0100ff58 	cmpnei	r4,zero,1021
 100fd94:	0100fdd0 	cmplti	r4,zero,1015
 100fd98:	0100ff58 	cmpnei	r4,zero,1021
 100fd9c:	0100ff20 	cmpeqi	r4,zero,1020
 100fda0:	0100ff34 	movhi	r4,1020
 100fda4:	0100ff34 	movhi	r4,1020
 100fda8:	0100fdd0 	cmplti	r4,zero,1015
 100fdac:	0100ff20 	cmpeqi	r4,zero,1020
 100fdb0:	01010024 	muli	r4,zero,1024
 100fdb4:	01010024 	muli	r4,zero,1024
 100fdb8:	01010024 	muli	r4,zero,1024
 100fdbc:	0100ff64 	muli	r4,zero,1021
 100fdc0:	9000531e 	bne	r18,zero,100ff10 <__divsf3+0x25c>
 100fdc4:	04000204 	movi	r16,8
 100fdc8:	05c00084 	movi	r23,2
 100fdcc:	003fd306 	br	100fd1c <__alt_data_end+0xfffef51c>
 100fdd0:	00c02034 	movhi	r3,128
 100fdd4:	000d883a 	mov	r6,zero
 100fdd8:	18ffffc4 	addi	r3,r3,-1
 100fddc:	013fffc4 	movi	r4,-1
 100fde0:	21003fcc 	andi	r4,r4,255
 100fde4:	200895fa 	slli	r4,r4,23
 100fde8:	30803fcc 	andi	r2,r6,255
 100fdec:	01802034 	movhi	r6,128
 100fdf0:	31bfffc4 	addi	r6,r6,-1
 100fdf4:	100497fa 	slli	r2,r2,31
 100fdf8:	1986703a 	and	r3,r3,r6
 100fdfc:	1906b03a 	or	r3,r3,r4
 100fe00:	1884b03a 	or	r2,r3,r2
 100fe04:	dfc00a17 	ldw	ra,40(sp)
 100fe08:	df000917 	ldw	fp,36(sp)
 100fe0c:	ddc00817 	ldw	r23,32(sp)
 100fe10:	dd800717 	ldw	r22,28(sp)
 100fe14:	dd400617 	ldw	r21,24(sp)
 100fe18:	dd000517 	ldw	r20,20(sp)
 100fe1c:	dcc00417 	ldw	r19,16(sp)
 100fe20:	dc800317 	ldw	r18,12(sp)
 100fe24:	dc400217 	ldw	r17,8(sp)
 100fe28:	dc000117 	ldw	r16,4(sp)
 100fe2c:	dec00b04 	addi	sp,sp,44
 100fe30:	f800283a 	ret
 100fe34:	90002b1e 	bne	r18,zero,100fee4 <__divsf3+0x230>
 100fe38:	04000104 	movi	r16,4
 100fe3c:	05c00044 	movi	r23,1
 100fe40:	003fb606 	br	100fd1c <__alt_data_end+0xfffef51c>
 100fe44:	8800251e 	bne	r17,zero,100fedc <__divsf3+0x228>
 100fe48:	01000084 	movi	r4,2
 100fe4c:	00000206 	br	100fe58 <__divsf3+0x1a4>
 100fe50:	88001a1e 	bne	r17,zero,100febc <__divsf3+0x208>
 100fe54:	01000044 	movi	r4,1
 100fe58:	2420b03a 	or	r16,r4,r16
 100fe5c:	802090ba 	slli	r16,r16,2
 100fe60:	00c04074 	movhi	r3,257
 100fe64:	18ff9f04 	addi	r3,r3,-388
 100fe68:	80e1883a 	add	r16,r16,r3
 100fe6c:	80c00017 	ldw	r3,0(r16)
 100fe70:	ad8af03a 	xor	r5,r21,r22
 100fe74:	a085c83a 	sub	r2,r20,r2
 100fe78:	1800683a 	jmp	r3
 100fe7c:	0100ff34 	movhi	r4,1020
 100fe80:	0100ff34 	movhi	r4,1020
 100fe84:	01010084 	movi	r4,1026
 100fe88:	0100ff1c 	xori	r4,zero,1020
 100fe8c:	01010084 	movi	r4,1026
 100fe90:	0100fdd0 	cmplti	r4,zero,1015
 100fe94:	01010084 	movi	r4,1026
 100fe98:	0100ff1c 	xori	r4,zero,1020
 100fe9c:	0100ff34 	movhi	r4,1020
 100fea0:	0100ff34 	movhi	r4,1020
 100fea4:	0100fdd0 	cmplti	r4,zero,1015
 100fea8:	0100ff1c 	xori	r4,zero,1020
 100feac:	01010024 	muli	r4,zero,1024
 100feb0:	01010024 	muli	r4,zero,1024
 100feb4:	01010024 	muli	r4,zero,1024
 100feb8:	01010050 	cmplti	r4,zero,1025
 100febc:	8809883a 	mov	r4,r17
 100fec0:	10109500 	call	1010950 <__clzsi2>
 100fec4:	10fffec4 	addi	r3,r2,-5
 100fec8:	88e2983a 	sll	r17,r17,r3
 100fecc:	00ffe284 	movi	r3,-118
 100fed0:	1885c83a 	sub	r2,r3,r2
 100fed4:	0009883a 	mov	r4,zero
 100fed8:	003f9e06 	br	100fd54 <__alt_data_end+0xfffef554>
 100fedc:	010000c4 	movi	r4,3
 100fee0:	003f9c06 	br	100fd54 <__alt_data_end+0xfffef554>
 100fee4:	9009883a 	mov	r4,r18
 100fee8:	d9400015 	stw	r5,0(sp)
 100feec:	10109500 	call	1010950 <__clzsi2>
 100fef0:	10fffec4 	addi	r3,r2,-5
 100fef4:	053fe284 	movi	r20,-118
 100fef8:	90e4983a 	sll	r18,r18,r3
 100fefc:	a0a9c83a 	sub	r20,r20,r2
 100ff00:	0021883a 	mov	r16,zero
 100ff04:	002f883a 	mov	r23,zero
 100ff08:	d9400017 	ldw	r5,0(sp)
 100ff0c:	003f8306 	br	100fd1c <__alt_data_end+0xfffef51c>
 100ff10:	04000304 	movi	r16,12
 100ff14:	05c000c4 	movi	r23,3
 100ff18:	003f8006 	br	100fd1c <__alt_data_end+0xfffef51c>
 100ff1c:	0023883a 	mov	r17,zero
 100ff20:	e027883a 	mov	r19,fp
 100ff24:	202f883a 	mov	r23,r4
 100ff28:	00c00084 	movi	r3,2
 100ff2c:	980b883a 	mov	r5,r19
 100ff30:	b8c0501e 	bne	r23,r3,1010074 <__divsf3+0x3c0>
 100ff34:	2980004c 	andi	r6,r5,1
 100ff38:	013fffc4 	movi	r4,-1
 100ff3c:	0007883a 	mov	r3,zero
 100ff40:	003fa706 	br	100fde0 <__alt_data_end+0xfffef5e0>
 100ff44:	013fe084 	movi	r4,-126
 100ff48:	2089c83a 	sub	r4,r4,r2
 100ff4c:	00c006c4 	movi	r3,27
 100ff50:	1900500e 	bge	r3,r4,1010094 <__divsf3+0x3e0>
 100ff54:	9980004c 	andi	r6,r19,1
 100ff58:	0009883a 	mov	r4,zero
 100ff5c:	0007883a 	mov	r3,zero
 100ff60:	003f9f06 	br	100fde0 <__alt_data_end+0xfffef5e0>
 100ff64:	9080102c 	andhi	r2,r18,64
 100ff68:	10000226 	beq	r2,zero,100ff74 <__divsf3+0x2c0>
 100ff6c:	8880102c 	andhi	r2,r17,64
 100ff70:	10003a26 	beq	r2,zero,101005c <__divsf3+0x3a8>
 100ff74:	00802034 	movhi	r2,128
 100ff78:	90c01034 	orhi	r3,r18,64
 100ff7c:	10bfffc4 	addi	r2,r2,-1
 100ff80:	a80d883a 	mov	r6,r21
 100ff84:	1886703a 	and	r3,r3,r2
 100ff88:	003f9406 	br	100fddc <__alt_data_end+0xfffef5dc>
 100ff8c:	9006917a 	slli	r3,r18,5
 100ff90:	8822917a 	slli	r17,r17,5
 100ff94:	1c402936 	bltu	r3,r17,101003c <__divsf3+0x388>
 100ff98:	1c47c83a 	sub	r3,r3,r17
 100ff9c:	2827883a 	mov	r19,r5
 100ffa0:	01800684 	movi	r6,26
 100ffa4:	01000044 	movi	r4,1
 100ffa8:	180f883a 	mov	r7,r3
 100ffac:	2109883a 	add	r4,r4,r4
 100ffb0:	18c7883a 	add	r3,r3,r3
 100ffb4:	38000116 	blt	r7,zero,100ffbc <__divsf3+0x308>
 100ffb8:	1c400236 	bltu	r3,r17,100ffc4 <__divsf3+0x310>
 100ffbc:	1c47c83a 	sub	r3,r3,r17
 100ffc0:	21000054 	ori	r4,r4,1
 100ffc4:	31bfffc4 	addi	r6,r6,-1
 100ffc8:	303ff71e 	bne	r6,zero,100ffa8 <__alt_data_end+0xfffef7a8>
 100ffcc:	1806c03a 	cmpne	r3,r3,zero
 100ffd0:	1922b03a 	or	r17,r3,r4
 100ffd4:	11001fc4 	addi	r4,r2,127
 100ffd8:	013fda0e 	bge	zero,r4,100ff44 <__alt_data_end+0xfffef744>
 100ffdc:	88c001cc 	andi	r3,r17,7
 100ffe0:	18000426 	beq	r3,zero,100fff4 <__divsf3+0x340>
 100ffe4:	894003cc 	andi	r5,r17,15
 100ffe8:	00c00104 	movi	r3,4
 100ffec:	28c00126 	beq	r5,r3,100fff4 <__divsf3+0x340>
 100fff0:	88e3883a 	add	r17,r17,r3
 100fff4:	88c2002c 	andhi	r3,r17,2048
 100fff8:	18000426 	beq	r3,zero,101000c <__divsf3+0x358>
 100fffc:	11002004 	addi	r4,r2,128
 1010000:	00be0034 	movhi	r2,63488
 1010004:	10bfffc4 	addi	r2,r2,-1
 1010008:	88a2703a 	and	r17,r17,r2
 101000c:	00803f84 	movi	r2,254
 1010010:	1100060e 	bge	r2,r4,101002c <__divsf3+0x378>
 1010014:	9980004c 	andi	r6,r19,1
 1010018:	013fffc4 	movi	r4,-1
 101001c:	0007883a 	mov	r3,zero
 1010020:	003f6f06 	br	100fde0 <__alt_data_end+0xfffef5e0>
 1010024:	9023883a 	mov	r17,r18
 1010028:	003fbf06 	br	100ff28 <__alt_data_end+0xfffef728>
 101002c:	880691ba 	slli	r3,r17,6
 1010030:	9980004c 	andi	r6,r19,1
 1010034:	1806d27a 	srli	r3,r3,9
 1010038:	003f6906 	br	100fde0 <__alt_data_end+0xfffef5e0>
 101003c:	10bfffc4 	addi	r2,r2,-1
 1010040:	2827883a 	mov	r19,r5
 1010044:	018006c4 	movi	r6,27
 1010048:	0009883a 	mov	r4,zero
 101004c:	003fd606 	br	100ffa8 <__alt_data_end+0xfffef7a8>
 1010050:	9080102c 	andhi	r2,r18,64
 1010054:	0023883a 	mov	r17,zero
 1010058:	103fc626 	beq	r2,zero,100ff74 <__alt_data_end+0xfffef774>
 101005c:	00802034 	movhi	r2,128
 1010060:	88c01034 	orhi	r3,r17,64
 1010064:	10bfffc4 	addi	r2,r2,-1
 1010068:	b00d883a 	mov	r6,r22
 101006c:	1886703a 	and	r3,r3,r2
 1010070:	003f5a06 	br	100fddc <__alt_data_end+0xfffef5dc>
 1010074:	00c000c4 	movi	r3,3
 1010078:	b8c01c26 	beq	r23,r3,10100ec <__divsf3+0x438>
 101007c:	00c00044 	movi	r3,1
 1010080:	b8ffd41e 	bne	r23,r3,100ffd4 <__alt_data_end+0xfffef7d4>
 1010084:	2980004c 	andi	r6,r5,1
 1010088:	0009883a 	mov	r4,zero
 101008c:	0007883a 	mov	r3,zero
 1010090:	003f5306 	br	100fde0 <__alt_data_end+0xfffef5e0>
 1010094:	10802784 	addi	r2,r2,158
 1010098:	8884983a 	sll	r2,r17,r2
 101009c:	8908d83a 	srl	r4,r17,r4
 10100a0:	1022c03a 	cmpne	r17,r2,zero
 10100a4:	8908b03a 	or	r4,r17,r4
 10100a8:	208001cc 	andi	r2,r4,7
 10100ac:	10000426 	beq	r2,zero,10100c0 <__divsf3+0x40c>
 10100b0:	20c003cc 	andi	r3,r4,15
 10100b4:	00800104 	movi	r2,4
 10100b8:	18800126 	beq	r3,r2,10100c0 <__divsf3+0x40c>
 10100bc:	2089883a 	add	r4,r4,r2
 10100c0:	2081002c 	andhi	r2,r4,1024
 10100c4:	10000426 	beq	r2,zero,10100d8 <__divsf3+0x424>
 10100c8:	9980004c 	andi	r6,r19,1
 10100cc:	01000044 	movi	r4,1
 10100d0:	0007883a 	mov	r3,zero
 10100d4:	003f4206 	br	100fde0 <__alt_data_end+0xfffef5e0>
 10100d8:	200691ba 	slli	r3,r4,6
 10100dc:	9980004c 	andi	r6,r19,1
 10100e0:	0009883a 	mov	r4,zero
 10100e4:	1806d27a 	srli	r3,r3,9
 10100e8:	003f3d06 	br	100fde0 <__alt_data_end+0xfffef5e0>
 10100ec:	00802034 	movhi	r2,128
 10100f0:	88c01034 	orhi	r3,r17,64
 10100f4:	10bfffc4 	addi	r2,r2,-1
 10100f8:	9980004c 	andi	r6,r19,1
 10100fc:	1886703a 	and	r3,r3,r2
 1010100:	003f3606 	br	100fddc <__alt_data_end+0xfffef5dc>

01010104 <__gesf2>:
 1010104:	2004d5fa 	srli	r2,r4,23
 1010108:	2806d5fa 	srli	r3,r5,23
 101010c:	01802034 	movhi	r6,128
 1010110:	31bfffc4 	addi	r6,r6,-1
 1010114:	10803fcc 	andi	r2,r2,255
 1010118:	01c03fc4 	movi	r7,255
 101011c:	3110703a 	and	r8,r6,r4
 1010120:	18c03fcc 	andi	r3,r3,255
 1010124:	314c703a 	and	r6,r6,r5
 1010128:	2008d7fa 	srli	r4,r4,31
 101012c:	280ad7fa 	srli	r5,r5,31
 1010130:	11c00926 	beq	r2,r7,1010158 <__gesf2+0x54>
 1010134:	19c01226 	beq	r3,r7,1010180 <__gesf2+0x7c>
 1010138:	1000091e 	bne	r2,zero,1010160 <__gesf2+0x5c>
 101013c:	4013003a 	cmpeq	r9,r8,zero
 1010140:	480f883a 	mov	r7,r9
 1010144:	1800091e 	bne	r3,zero,101016c <__gesf2+0x68>
 1010148:	3000081e 	bne	r6,zero,101016c <__gesf2+0x68>
 101014c:	48001026 	beq	r9,zero,1010190 <__gesf2+0x8c>
 1010150:	0005883a 	mov	r2,zero
 1010154:	f800283a 	ret
 1010158:	4000161e 	bne	r8,zero,10101b4 <__gesf2+0xb0>
 101015c:	18800826 	beq	r3,r2,1010180 <__gesf2+0x7c>
 1010160:	1800091e 	bne	r3,zero,1010188 <__gesf2+0x84>
 1010164:	000f883a 	mov	r7,zero
 1010168:	30000926 	beq	r6,zero,1010190 <__gesf2+0x8c>
 101016c:	29403fcc 	andi	r5,r5,255
 1010170:	38000626 	beq	r7,zero,101018c <__gesf2+0x88>
 1010174:	2800071e 	bne	r5,zero,1010194 <__gesf2+0x90>
 1010178:	00bfffc4 	movi	r2,-1
 101017c:	f800283a 	ret
 1010180:	30000c1e 	bne	r6,zero,10101b4 <__gesf2+0xb0>
 1010184:	103fed26 	beq	r2,zero,101013c <__alt_data_end+0xfffef93c>
 1010188:	29403fcc 	andi	r5,r5,255
 101018c:	21400326 	beq	r4,r5,101019c <__gesf2+0x98>
 1010190:	203ff91e 	bne	r4,zero,1010178 <__alt_data_end+0xfffef978>
 1010194:	00800044 	movi	r2,1
 1010198:	f800283a 	ret
 101019c:	18bffc16 	blt	r3,r2,1010190 <__alt_data_end+0xfffef990>
 10101a0:	10c00216 	blt	r2,r3,10101ac <__gesf2+0xa8>
 10101a4:	323ffa36 	bltu	r6,r8,1010190 <__alt_data_end+0xfffef990>
 10101a8:	41bfe92e 	bgeu	r8,r6,1010150 <__alt_data_end+0xfffef950>
 10101ac:	203ff226 	beq	r4,zero,1010178 <__alt_data_end+0xfffef978>
 10101b0:	003ff806 	br	1010194 <__alt_data_end+0xfffef994>
 10101b4:	00bfff84 	movi	r2,-2
 10101b8:	f800283a 	ret

010101bc <__subsf3>:
 10101bc:	defffc04 	addi	sp,sp,-16
 10101c0:	280ed5fa 	srli	r7,r5,23
 10101c4:	02002034 	movhi	r8,128
 10101c8:	280d883a 	mov	r6,r5
 10101cc:	423fffc4 	addi	r8,r8,-1
 10101d0:	200ad5fa 	srli	r5,r4,23
 10101d4:	dc400115 	stw	r17,4(sp)
 10101d8:	2022d7fa 	srli	r17,r4,31
 10101dc:	4108703a 	and	r4,r8,r4
 10101e0:	dc000015 	stw	r16,0(sp)
 10101e4:	4190703a 	and	r8,r8,r6
 10101e8:	200690fa 	slli	r3,r4,3
 10101ec:	dfc00315 	stw	ra,12(sp)
 10101f0:	dc800215 	stw	r18,8(sp)
 10101f4:	39c03fcc 	andi	r7,r7,255
 10101f8:	01003fc4 	movi	r4,255
 10101fc:	8805883a 	mov	r2,r17
 1010200:	2c003fcc 	andi	r16,r5,255
 1010204:	8c403fcc 	andi	r17,r17,255
 1010208:	300cd7fa 	srli	r6,r6,31
 101020c:	401090fa 	slli	r8,r8,3
 1010210:	39006126 	beq	r7,r4,1010398 <__subsf3+0x1dc>
 1010214:	3180005c 	xori	r6,r6,1
 1010218:	89804926 	beq	r17,r6,1010340 <__subsf3+0x184>
 101021c:	81c5c83a 	sub	r2,r16,r7
 1010220:	0080710e 	bge	zero,r2,10103e8 <__subsf3+0x22c>
 1010224:	38001e1e 	bne	r7,zero,10102a0 <__subsf3+0xe4>
 1010228:	4000651e 	bne	r8,zero,10103c0 <__subsf3+0x204>
 101022c:	188001cc 	andi	r2,r3,7
 1010230:	10000426 	beq	r2,zero,1010244 <__subsf3+0x88>
 1010234:	190003cc 	andi	r4,r3,15
 1010238:	00800104 	movi	r2,4
 101023c:	20800126 	beq	r4,r2,1010244 <__subsf3+0x88>
 1010240:	18c00104 	addi	r3,r3,4
 1010244:	1901002c 	andhi	r4,r3,1024
 1010248:	8880004c 	andi	r2,r17,1
 101024c:	20003426 	beq	r4,zero,1010320 <__subsf3+0x164>
 1010250:	81400044 	addi	r5,r16,1
 1010254:	01003fc4 	movi	r4,255
 1010258:	29006e26 	beq	r5,r4,1010414 <__subsf3+0x258>
 101025c:	180691ba 	slli	r3,r3,6
 1010260:	1808d27a 	srli	r4,r3,9
 1010264:	29403fcc 	andi	r5,r5,255
 1010268:	280a95fa 	slli	r5,r5,23
 101026c:	10803fcc 	andi	r2,r2,255
 1010270:	00c02034 	movhi	r3,128
 1010274:	100497fa 	slli	r2,r2,31
 1010278:	18ffffc4 	addi	r3,r3,-1
 101027c:	20c6703a 	and	r3,r4,r3
 1010280:	1946b03a 	or	r3,r3,r5
 1010284:	1884b03a 	or	r2,r3,r2
 1010288:	dfc00317 	ldw	ra,12(sp)
 101028c:	dc800217 	ldw	r18,8(sp)
 1010290:	dc400117 	ldw	r17,4(sp)
 1010294:	dc000017 	ldw	r16,0(sp)
 1010298:	dec00404 	addi	sp,sp,16
 101029c:	f800283a 	ret
 10102a0:	01003fc4 	movi	r4,255
 10102a4:	813fe126 	beq	r16,r4,101022c <__alt_data_end+0xfffefa2c>
 10102a8:	42010034 	orhi	r8,r8,1024
 10102ac:	010006c4 	movi	r4,27
 10102b0:	2080600e 	bge	r4,r2,1010434 <__subsf3+0x278>
 10102b4:	02000044 	movi	r8,1
 10102b8:	1a07c83a 	sub	r3,r3,r8
 10102bc:	1881002c 	andhi	r2,r3,1024
 10102c0:	10001426 	beq	r2,zero,1010314 <__subsf3+0x158>
 10102c4:	04810034 	movhi	r18,1024
 10102c8:	94bfffc4 	addi	r18,r18,-1
 10102cc:	1ca4703a 	and	r18,r3,r18
 10102d0:	9009883a 	mov	r4,r18
 10102d4:	10109500 	call	1010950 <__clzsi2>
 10102d8:	10bffec4 	addi	r2,r2,-5
 10102dc:	90a4983a 	sll	r18,r18,r2
 10102e0:	14004f16 	blt	r2,r16,1010420 <__subsf3+0x264>
 10102e4:	140bc83a 	sub	r5,r2,r16
 10102e8:	00c007c4 	movi	r3,31
 10102ec:	1947c83a 	sub	r3,r3,r5
 10102f0:	90c6983a 	sll	r3,r18,r3
 10102f4:	29400044 	addi	r5,r5,1
 10102f8:	9164d83a 	srl	r18,r18,r5
 10102fc:	1806c03a 	cmpne	r3,r3,zero
 1010300:	0021883a 	mov	r16,zero
 1010304:	1c86b03a 	or	r3,r3,r18
 1010308:	003fc806 	br	101022c <__alt_data_end+0xfffefa2c>
 101030c:	1000e726 	beq	r2,zero,10106ac <__subsf3+0x4f0>
 1010310:	1007883a 	mov	r3,r2
 1010314:	188001cc 	andi	r2,r3,7
 1010318:	103fc61e 	bne	r2,zero,1010234 <__alt_data_end+0xfffefa34>
 101031c:	8880004c 	andi	r2,r17,1
 1010320:	01003fc4 	movi	r4,255
 1010324:	1806d0fa 	srli	r3,r3,3
 1010328:	81001e26 	beq	r16,r4,10103a4 <__subsf3+0x1e8>
 101032c:	01002034 	movhi	r4,128
 1010330:	213fffc4 	addi	r4,r4,-1
 1010334:	800b883a 	mov	r5,r16
 1010338:	1908703a 	and	r4,r3,r4
 101033c:	003fc906 	br	1010264 <__alt_data_end+0xfffefa64>
 1010340:	81c9c83a 	sub	r4,r16,r7
 1010344:	0100420e 	bge	zero,r4,1010450 <__subsf3+0x294>
 1010348:	38002226 	beq	r7,zero,10103d4 <__subsf3+0x218>
 101034c:	01403fc4 	movi	r5,255
 1010350:	817fb626 	beq	r16,r5,101022c <__alt_data_end+0xfffefa2c>
 1010354:	42010034 	orhi	r8,r8,1024
 1010358:	014006c4 	movi	r5,27
 101035c:	2900580e 	bge	r5,r4,10104c0 <__subsf3+0x304>
 1010360:	01000044 	movi	r4,1
 1010364:	1907883a 	add	r3,r3,r4
 1010368:	1901002c 	andhi	r4,r3,1024
 101036c:	203fe926 	beq	r4,zero,1010314 <__alt_data_end+0xfffefb14>
 1010370:	84000044 	addi	r16,r16,1
 1010374:	01003fc4 	movi	r4,255
 1010378:	81007626 	beq	r16,r4,1010554 <__subsf3+0x398>
 101037c:	00bf0034 	movhi	r2,64512
 1010380:	10bfffc4 	addi	r2,r2,-1
 1010384:	1900004c 	andi	r4,r3,1
 1010388:	1886703a 	and	r3,r3,r2
 101038c:	1806d07a 	srli	r3,r3,1
 1010390:	1906b03a 	or	r3,r3,r4
 1010394:	003fa506 	br	101022c <__alt_data_end+0xfffefa2c>
 1010398:	403f9e26 	beq	r8,zero,1010214 <__alt_data_end+0xfffefa14>
 101039c:	31803fcc 	andi	r6,r6,255
 10103a0:	003f9d06 	br	1010218 <__alt_data_end+0xfffefa18>
 10103a4:	18001b26 	beq	r3,zero,1010414 <__subsf3+0x258>
 10103a8:	19001034 	orhi	r4,r3,64
 10103ac:	00c02034 	movhi	r3,128
 10103b0:	18ffffc4 	addi	r3,r3,-1
 10103b4:	017fffc4 	movi	r5,-1
 10103b8:	20c8703a 	and	r4,r4,r3
 10103bc:	003fa906 	br	1010264 <__alt_data_end+0xfffefa64>
 10103c0:	10bfffc4 	addi	r2,r2,-1
 10103c4:	103fbc26 	beq	r2,zero,10102b8 <__alt_data_end+0xfffefab8>
 10103c8:	01003fc4 	movi	r4,255
 10103cc:	813fb71e 	bne	r16,r4,10102ac <__alt_data_end+0xfffefaac>
 10103d0:	003f9606 	br	101022c <__alt_data_end+0xfffefa2c>
 10103d4:	403f9526 	beq	r8,zero,101022c <__alt_data_end+0xfffefa2c>
 10103d8:	213fffc4 	addi	r4,r4,-1
 10103dc:	2000481e 	bne	r4,zero,1010500 <__subsf3+0x344>
 10103e0:	1a07883a 	add	r3,r3,r8
 10103e4:	003fe006 	br	1010368 <__alt_data_end+0xfffefb68>
 10103e8:	1000241e 	bne	r2,zero,101047c <__subsf3+0x2c0>
 10103ec:	80800044 	addi	r2,r16,1
 10103f0:	10803fcc 	andi	r2,r2,255
 10103f4:	01000044 	movi	r4,1
 10103f8:	20804f0e 	bge	r4,r2,1010538 <__subsf3+0x37c>
 10103fc:	1a25c83a 	sub	r18,r3,r8
 1010400:	9081002c 	andhi	r2,r18,1024
 1010404:	10002926 	beq	r2,zero,10104ac <__subsf3+0x2f0>
 1010408:	40e5c83a 	sub	r18,r8,r3
 101040c:	3023883a 	mov	r17,r6
 1010410:	003faf06 	br	10102d0 <__alt_data_end+0xfffefad0>
 1010414:	017fffc4 	movi	r5,-1
 1010418:	0009883a 	mov	r4,zero
 101041c:	003f9106 	br	1010264 <__alt_data_end+0xfffefa64>
 1010420:	00ff0034 	movhi	r3,64512
 1010424:	18ffffc4 	addi	r3,r3,-1
 1010428:	80a1c83a 	sub	r16,r16,r2
 101042c:	90c6703a 	and	r3,r18,r3
 1010430:	003f7e06 	br	101022c <__alt_data_end+0xfffefa2c>
 1010434:	01000804 	movi	r4,32
 1010438:	2089c83a 	sub	r4,r4,r2
 101043c:	4108983a 	sll	r4,r8,r4
 1010440:	4090d83a 	srl	r8,r8,r2
 1010444:	2004c03a 	cmpne	r2,r4,zero
 1010448:	1210b03a 	or	r8,r2,r8
 101044c:	003f9a06 	br	10102b8 <__alt_data_end+0xfffefab8>
 1010450:	2000421e 	bne	r4,zero,101055c <__subsf3+0x3a0>
 1010454:	81000044 	addi	r4,r16,1
 1010458:	21803fcc 	andi	r6,r4,255
 101045c:	01400044 	movi	r5,1
 1010460:	29802a0e 	bge	r5,r6,101050c <__subsf3+0x350>
 1010464:	01403fc4 	movi	r5,255
 1010468:	21403926 	beq	r4,r5,1010550 <__subsf3+0x394>
 101046c:	40c7883a 	add	r3,r8,r3
 1010470:	1806d07a 	srli	r3,r3,1
 1010474:	2021883a 	mov	r16,r4
 1010478:	003f6c06 	br	101022c <__alt_data_end+0xfffefa2c>
 101047c:	80001726 	beq	r16,zero,10104dc <__subsf3+0x320>
 1010480:	01003fc4 	movi	r4,255
 1010484:	39001a26 	beq	r7,r4,10104f0 <__subsf3+0x334>
 1010488:	0085c83a 	sub	r2,zero,r2
 101048c:	18c10034 	orhi	r3,r3,1024
 1010490:	010006c4 	movi	r4,27
 1010494:	2080430e 	bge	r4,r2,10105a4 <__subsf3+0x3e8>
 1010498:	00c00044 	movi	r3,1
 101049c:	40c7c83a 	sub	r3,r8,r3
 10104a0:	3821883a 	mov	r16,r7
 10104a4:	3023883a 	mov	r17,r6
 10104a8:	003f8406 	br	10102bc <__alt_data_end+0xfffefabc>
 10104ac:	903f881e 	bne	r18,zero,10102d0 <__alt_data_end+0xfffefad0>
 10104b0:	0007883a 	mov	r3,zero
 10104b4:	0005883a 	mov	r2,zero
 10104b8:	0021883a 	mov	r16,zero
 10104bc:	003f9806 	br	1010320 <__alt_data_end+0xfffefb20>
 10104c0:	01400804 	movi	r5,32
 10104c4:	290bc83a 	sub	r5,r5,r4
 10104c8:	414a983a 	sll	r5,r8,r5
 10104cc:	4110d83a 	srl	r8,r8,r4
 10104d0:	2808c03a 	cmpne	r4,r5,zero
 10104d4:	2208b03a 	or	r4,r4,r8
 10104d8:	003fa206 	br	1010364 <__alt_data_end+0xfffefb64>
 10104dc:	18000426 	beq	r3,zero,10104f0 <__subsf3+0x334>
 10104e0:	0084303a 	nor	r2,zero,r2
 10104e4:	103fed26 	beq	r2,zero,101049c <__alt_data_end+0xfffefc9c>
 10104e8:	01003fc4 	movi	r4,255
 10104ec:	393fe81e 	bne	r7,r4,1010490 <__alt_data_end+0xfffefc90>
 10104f0:	4007883a 	mov	r3,r8
 10104f4:	3821883a 	mov	r16,r7
 10104f8:	3023883a 	mov	r17,r6
 10104fc:	003f4b06 	br	101022c <__alt_data_end+0xfffefa2c>
 1010500:	01403fc4 	movi	r5,255
 1010504:	817f941e 	bne	r16,r5,1010358 <__alt_data_end+0xfffefb58>
 1010508:	003f4806 	br	101022c <__alt_data_end+0xfffefa2c>
 101050c:	8000471e 	bne	r16,zero,101062c <__subsf3+0x470>
 1010510:	18006126 	beq	r3,zero,1010698 <__subsf3+0x4dc>
 1010514:	403f4526 	beq	r8,zero,101022c <__alt_data_end+0xfffefa2c>
 1010518:	1a07883a 	add	r3,r3,r8
 101051c:	1881002c 	andhi	r2,r3,1024
 1010520:	103f7c26 	beq	r2,zero,1010314 <__alt_data_end+0xfffefb14>
 1010524:	00bf0034 	movhi	r2,64512
 1010528:	10bfffc4 	addi	r2,r2,-1
 101052c:	2821883a 	mov	r16,r5
 1010530:	1886703a 	and	r3,r3,r2
 1010534:	003f3d06 	br	101022c <__alt_data_end+0xfffefa2c>
 1010538:	8000141e 	bne	r16,zero,101058c <__subsf3+0x3d0>
 101053c:	1800311e 	bne	r3,zero,1010604 <__subsf3+0x448>
 1010540:	40004626 	beq	r8,zero,101065c <__subsf3+0x4a0>
 1010544:	4007883a 	mov	r3,r8
 1010548:	3023883a 	mov	r17,r6
 101054c:	003f3706 	br	101022c <__alt_data_end+0xfffefa2c>
 1010550:	2021883a 	mov	r16,r4
 1010554:	0007883a 	mov	r3,zero
 1010558:	003f7106 	br	1010320 <__alt_data_end+0xfffefb20>
 101055c:	8000181e 	bne	r16,zero,10105c0 <__subsf3+0x404>
 1010560:	18002f26 	beq	r3,zero,1010620 <__subsf3+0x464>
 1010564:	0108303a 	nor	r4,zero,r4
 1010568:	20000526 	beq	r4,zero,1010580 <__subsf3+0x3c4>
 101056c:	01403fc4 	movi	r5,255
 1010570:	39402b26 	beq	r7,r5,1010620 <__subsf3+0x464>
 1010574:	014006c4 	movi	r5,27
 1010578:	2900400e 	bge	r5,r4,101067c <__subsf3+0x4c0>
 101057c:	00c00044 	movi	r3,1
 1010580:	1a07883a 	add	r3,r3,r8
 1010584:	3821883a 	mov	r16,r7
 1010588:	003f7706 	br	1010368 <__alt_data_end+0xfffefb68>
 101058c:	1800111e 	bne	r3,zero,10105d4 <__subsf3+0x418>
 1010590:	40003526 	beq	r8,zero,1010668 <__subsf3+0x4ac>
 1010594:	4007883a 	mov	r3,r8
 1010598:	3023883a 	mov	r17,r6
 101059c:	04003fc4 	movi	r16,255
 10105a0:	003f2206 	br	101022c <__alt_data_end+0xfffefa2c>
 10105a4:	01000804 	movi	r4,32
 10105a8:	2089c83a 	sub	r4,r4,r2
 10105ac:	1908983a 	sll	r4,r3,r4
 10105b0:	1884d83a 	srl	r2,r3,r2
 10105b4:	2006c03a 	cmpne	r3,r4,zero
 10105b8:	1886b03a 	or	r3,r3,r2
 10105bc:	003fb706 	br	101049c <__alt_data_end+0xfffefc9c>
 10105c0:	01403fc4 	movi	r5,255
 10105c4:	39401626 	beq	r7,r5,1010620 <__subsf3+0x464>
 10105c8:	0109c83a 	sub	r4,zero,r4
 10105cc:	18c10034 	orhi	r3,r3,1024
 10105d0:	003fe806 	br	1010574 <__alt_data_end+0xfffefd74>
 10105d4:	40001f26 	beq	r8,zero,1010654 <__subsf3+0x498>
 10105d8:	1806d0fa 	srli	r3,r3,3
 10105dc:	1880102c 	andhi	r2,r3,64
 10105e0:	10000526 	beq	r2,zero,10105f8 <__subsf3+0x43c>
 10105e4:	4010d0fa 	srli	r8,r8,3
 10105e8:	4080102c 	andhi	r2,r8,64
 10105ec:	1000021e 	bne	r2,zero,10105f8 <__subsf3+0x43c>
 10105f0:	4007883a 	mov	r3,r8
 10105f4:	3023883a 	mov	r17,r6
 10105f8:	180690fa 	slli	r3,r3,3
 10105fc:	04003fc4 	movi	r16,255
 1010600:	003f0a06 	br	101022c <__alt_data_end+0xfffefa2c>
 1010604:	403f0926 	beq	r8,zero,101022c <__alt_data_end+0xfffefa2c>
 1010608:	1a05c83a 	sub	r2,r3,r8
 101060c:	1101002c 	andhi	r4,r2,1024
 1010610:	203f3e26 	beq	r4,zero,101030c <__alt_data_end+0xfffefb0c>
 1010614:	40c7c83a 	sub	r3,r8,r3
 1010618:	3023883a 	mov	r17,r6
 101061c:	003f0306 	br	101022c <__alt_data_end+0xfffefa2c>
 1010620:	4007883a 	mov	r3,r8
 1010624:	3821883a 	mov	r16,r7
 1010628:	003f0006 	br	101022c <__alt_data_end+0xfffefa2c>
 101062c:	18001c26 	beq	r3,zero,10106a0 <__subsf3+0x4e4>
 1010630:	40000826 	beq	r8,zero,1010654 <__subsf3+0x498>
 1010634:	1806d0fa 	srli	r3,r3,3
 1010638:	1880102c 	andhi	r2,r3,64
 101063c:	103fee26 	beq	r2,zero,10105f8 <__alt_data_end+0xfffefdf8>
 1010640:	4010d0fa 	srli	r8,r8,3
 1010644:	4080102c 	andhi	r2,r8,64
 1010648:	103feb1e 	bne	r2,zero,10105f8 <__alt_data_end+0xfffefdf8>
 101064c:	4007883a 	mov	r3,r8
 1010650:	003fe906 	br	10105f8 <__alt_data_end+0xfffefdf8>
 1010654:	04003fc4 	movi	r16,255
 1010658:	003ef406 	br	101022c <__alt_data_end+0xfffefa2c>
 101065c:	8007883a 	mov	r3,r16
 1010660:	0005883a 	mov	r2,zero
 1010664:	003f2e06 	br	1010320 <__alt_data_end+0xfffefb20>
 1010668:	00c10034 	movhi	r3,1024
 101066c:	0005883a 	mov	r2,zero
 1010670:	18fffe04 	addi	r3,r3,-8
 1010674:	04003fc4 	movi	r16,255
 1010678:	003f2906 	br	1010320 <__alt_data_end+0xfffefb20>
 101067c:	01400804 	movi	r5,32
 1010680:	290bc83a 	sub	r5,r5,r4
 1010684:	194a983a 	sll	r5,r3,r5
 1010688:	1908d83a 	srl	r4,r3,r4
 101068c:	2806c03a 	cmpne	r3,r5,zero
 1010690:	1906b03a 	or	r3,r3,r4
 1010694:	003fba06 	br	1010580 <__alt_data_end+0xfffefd80>
 1010698:	4007883a 	mov	r3,r8
 101069c:	003ee306 	br	101022c <__alt_data_end+0xfffefa2c>
 10106a0:	4007883a 	mov	r3,r8
 10106a4:	04003fc4 	movi	r16,255
 10106a8:	003ee006 	br	101022c <__alt_data_end+0xfffefa2c>
 10106ac:	0007883a 	mov	r3,zero
 10106b0:	0005883a 	mov	r2,zero
 10106b4:	003f1a06 	br	1010320 <__alt_data_end+0xfffefb20>

010106b8 <__fixsfsi>:
 10106b8:	2006d5fa 	srli	r3,r4,23
 10106bc:	00802034 	movhi	r2,128
 10106c0:	10bfffc4 	addi	r2,r2,-1
 10106c4:	18c03fcc 	andi	r3,r3,255
 10106c8:	01401f84 	movi	r5,126
 10106cc:	1104703a 	and	r2,r2,r4
 10106d0:	2008d7fa 	srli	r4,r4,31
 10106d4:	28c0110e 	bge	r5,r3,101071c <__fixsfsi+0x64>
 10106d8:	01402744 	movi	r5,157
 10106dc:	28c00b16 	blt	r5,r3,101070c <__fixsfsi+0x54>
 10106e0:	01402544 	movi	r5,149
 10106e4:	10802034 	orhi	r2,r2,128
 10106e8:	28c00e16 	blt	r5,r3,1010724 <__fixsfsi+0x6c>
 10106ec:	01402584 	movi	r5,150
 10106f0:	28c7c83a 	sub	r3,r5,r3
 10106f4:	10c6d83a 	srl	r3,r2,r3
 10106f8:	21003fcc 	andi	r4,r4,255
 10106fc:	0105c83a 	sub	r2,zero,r4
 1010700:	1886f03a 	xor	r3,r3,r2
 1010704:	1905883a 	add	r2,r3,r4
 1010708:	f800283a 	ret
 101070c:	00a00034 	movhi	r2,32768
 1010710:	10bfffc4 	addi	r2,r2,-1
 1010714:	2085883a 	add	r2,r4,r2
 1010718:	f800283a 	ret
 101071c:	0005883a 	mov	r2,zero
 1010720:	f800283a 	ret
 1010724:	18ffda84 	addi	r3,r3,-150
 1010728:	10c6983a 	sll	r3,r2,r3
 101072c:	003ff206 	br	10106f8 <__alt_data_end+0xfffefef8>

01010730 <__floatunsisf>:
 1010730:	defffe04 	addi	sp,sp,-8
 1010734:	dc000015 	stw	r16,0(sp)
 1010738:	dfc00115 	stw	ra,4(sp)
 101073c:	2021883a 	mov	r16,r4
 1010740:	20002626 	beq	r4,zero,10107dc <__floatunsisf+0xac>
 1010744:	10109500 	call	1010950 <__clzsi2>
 1010748:	00c02784 	movi	r3,158
 101074c:	1887c83a 	sub	r3,r3,r2
 1010750:	01002584 	movi	r4,150
 1010754:	20c00816 	blt	r4,r3,1010778 <__floatunsisf+0x48>
 1010758:	01000204 	movi	r4,8
 101075c:	2080340e 	bge	r4,r2,1010830 <__floatunsisf+0x100>
 1010760:	10bffe04 	addi	r2,r2,-8
 1010764:	8088983a 	sll	r4,r16,r2
 1010768:	00802034 	movhi	r2,128
 101076c:	10bfffc4 	addi	r2,r2,-1
 1010770:	2088703a 	and	r4,r4,r2
 1010774:	00001b06 	br	10107e4 <__floatunsisf+0xb4>
 1010778:	01002644 	movi	r4,153
 101077c:	20c02316 	blt	r4,r3,101080c <__floatunsisf+0xdc>
 1010780:	01000144 	movi	r4,5
 1010784:	2080020e 	bge	r4,r2,1010790 <__floatunsisf+0x60>
 1010788:	113ffec4 	addi	r4,r2,-5
 101078c:	8120983a 	sll	r16,r16,r4
 1010790:	017f0034 	movhi	r5,64512
 1010794:	297fffc4 	addi	r5,r5,-1
 1010798:	810001cc 	andi	r4,r16,7
 101079c:	814a703a 	and	r5,r16,r5
 10107a0:	20000426 	beq	r4,zero,10107b4 <__floatunsisf+0x84>
 10107a4:	840003cc 	andi	r16,r16,15
 10107a8:	01000104 	movi	r4,4
 10107ac:	81000126 	beq	r16,r4,10107b4 <__floatunsisf+0x84>
 10107b0:	290b883a 	add	r5,r5,r4
 10107b4:	2901002c 	andhi	r4,r5,1024
 10107b8:	20000526 	beq	r4,zero,10107d0 <__floatunsisf+0xa0>
 10107bc:	00c027c4 	movi	r3,159
 10107c0:	1887c83a 	sub	r3,r3,r2
 10107c4:	00bf0034 	movhi	r2,64512
 10107c8:	10bfffc4 	addi	r2,r2,-1
 10107cc:	288a703a 	and	r5,r5,r2
 10107d0:	280891ba 	slli	r4,r5,6
 10107d4:	2008d27a 	srli	r4,r4,9
 10107d8:	00000206 	br	10107e4 <__floatunsisf+0xb4>
 10107dc:	0007883a 	mov	r3,zero
 10107e0:	0009883a 	mov	r4,zero
 10107e4:	18c03fcc 	andi	r3,r3,255
 10107e8:	180695fa 	slli	r3,r3,23
 10107ec:	00802034 	movhi	r2,128
 10107f0:	10bfffc4 	addi	r2,r2,-1
 10107f4:	2084703a 	and	r2,r4,r2
 10107f8:	10c4b03a 	or	r2,r2,r3
 10107fc:	dfc00117 	ldw	ra,4(sp)
 1010800:	dc000017 	ldw	r16,0(sp)
 1010804:	dec00204 	addi	sp,sp,8
 1010808:	f800283a 	ret
 101080c:	01400144 	movi	r5,5
 1010810:	110006c4 	addi	r4,r2,27
 1010814:	8108983a 	sll	r4,r16,r4
 1010818:	288dc83a 	sub	r6,r5,r2
 101081c:	81a0d83a 	srl	r16,r16,r6
 1010820:	2008c03a 	cmpne	r4,r4,zero
 1010824:	2420b03a 	or	r16,r4,r16
 1010828:	28bfd90e 	bge	r5,r2,1010790 <__alt_data_end+0xfffeff90>
 101082c:	003fd606 	br	1010788 <__alt_data_end+0xfffeff88>
 1010830:	01402034 	movhi	r5,128
 1010834:	297fffc4 	addi	r5,r5,-1
 1010838:	8148703a 	and	r4,r16,r5
 101083c:	003fe906 	br	10107e4 <__alt_data_end+0xfffeffe4>

01010840 <__extendsfdf2>:
 1010840:	200ad5fa 	srli	r5,r4,23
 1010844:	defffd04 	addi	sp,sp,-12
 1010848:	dc400115 	stw	r17,4(sp)
 101084c:	29403fcc 	andi	r5,r5,255
 1010850:	29800044 	addi	r6,r5,1
 1010854:	04402034 	movhi	r17,128
 1010858:	dc000015 	stw	r16,0(sp)
 101085c:	8c7fffc4 	addi	r17,r17,-1
 1010860:	dfc00215 	stw	ra,8(sp)
 1010864:	31803fcc 	andi	r6,r6,255
 1010868:	00800044 	movi	r2,1
 101086c:	8922703a 	and	r17,r17,r4
 1010870:	2020d7fa 	srli	r16,r4,31
 1010874:	1180110e 	bge	r2,r6,10108bc <__extendsfdf2+0x7c>
 1010878:	880ed0fa 	srli	r7,r17,3
 101087c:	8822977a 	slli	r17,r17,29
 1010880:	2940e004 	addi	r5,r5,896
 1010884:	2941ffcc 	andi	r5,r5,2047
 1010888:	280c953a 	slli	r6,r5,20
 101088c:	01400434 	movhi	r5,16
 1010890:	800697fa 	slli	r3,r16,31
 1010894:	297fffc4 	addi	r5,r5,-1
 1010898:	394a703a 	and	r5,r7,r5
 101089c:	298ab03a 	or	r5,r5,r6
 10108a0:	8805883a 	mov	r2,r17
 10108a4:	28c6b03a 	or	r3,r5,r3
 10108a8:	dfc00217 	ldw	ra,8(sp)
 10108ac:	dc400117 	ldw	r17,4(sp)
 10108b0:	dc000017 	ldw	r16,0(sp)
 10108b4:	dec00304 	addi	sp,sp,12
 10108b8:	f800283a 	ret
 10108bc:	2800111e 	bne	r5,zero,1010904 <__extendsfdf2+0xc4>
 10108c0:	88001c26 	beq	r17,zero,1010934 <__extendsfdf2+0xf4>
 10108c4:	8809883a 	mov	r4,r17
 10108c8:	10109500 	call	1010950 <__clzsi2>
 10108cc:	00c00284 	movi	r3,10
 10108d0:	18801b16 	blt	r3,r2,1010940 <__extendsfdf2+0x100>
 10108d4:	01c002c4 	movi	r7,11
 10108d8:	388fc83a 	sub	r7,r7,r2
 10108dc:	10c00544 	addi	r3,r2,21
 10108e0:	89ced83a 	srl	r7,r17,r7
 10108e4:	88e2983a 	sll	r17,r17,r3
 10108e8:	0180e244 	movi	r6,905
 10108ec:	308bc83a 	sub	r5,r6,r2
 10108f0:	01800434 	movhi	r6,16
 10108f4:	31bfffc4 	addi	r6,r6,-1
 10108f8:	398e703a 	and	r7,r7,r6
 10108fc:	2941ffcc 	andi	r5,r5,2047
 1010900:	003fe006 	br	1010884 <__alt_data_end+0xffff0084>
 1010904:	88000826 	beq	r17,zero,1010928 <__extendsfdf2+0xe8>
 1010908:	880ed0fa 	srli	r7,r17,3
 101090c:	00800434 	movhi	r2,16
 1010910:	10bfffc4 	addi	r2,r2,-1
 1010914:	39c00234 	orhi	r7,r7,8
 1010918:	8822977a 	slli	r17,r17,29
 101091c:	388e703a 	and	r7,r7,r2
 1010920:	0141ffc4 	movi	r5,2047
 1010924:	003fd706 	br	1010884 <__alt_data_end+0xffff0084>
 1010928:	0141ffc4 	movi	r5,2047
 101092c:	000f883a 	mov	r7,zero
 1010930:	003fd406 	br	1010884 <__alt_data_end+0xffff0084>
 1010934:	000b883a 	mov	r5,zero
 1010938:	000f883a 	mov	r7,zero
 101093c:	003fd106 	br	1010884 <__alt_data_end+0xffff0084>
 1010940:	11fffd44 	addi	r7,r2,-11
 1010944:	89ce983a 	sll	r7,r17,r7
 1010948:	0023883a 	mov	r17,zero
 101094c:	003fe606 	br	10108e8 <__alt_data_end+0xffff00e8>

01010950 <__clzsi2>:
 1010950:	00bfffd4 	movui	r2,65535
 1010954:	11000b36 	bltu	r2,r4,1010984 <__clzsi2+0x34>
 1010958:	00803fc4 	movi	r2,255
 101095c:	1100122e 	bgeu	r2,r4,10109a8 <__clzsi2+0x58>
 1010960:	00c00204 	movi	r3,8
 1010964:	01400604 	movi	r5,24
 1010968:	20c8d83a 	srl	r4,r4,r3
 101096c:	00804074 	movhi	r2,257
 1010970:	108a8404 	addi	r2,r2,10768
 1010974:	1109883a 	add	r4,r2,r4
 1010978:	20800003 	ldbu	r2,0(r4)
 101097c:	2885c83a 	sub	r2,r5,r2
 1010980:	f800283a 	ret
 1010984:	00804034 	movhi	r2,256
 1010988:	10bfffc4 	addi	r2,r2,-1
 101098c:	11000336 	bltu	r2,r4,101099c <__clzsi2+0x4c>
 1010990:	00c00404 	movi	r3,16
 1010994:	180b883a 	mov	r5,r3
 1010998:	003ff306 	br	1010968 <__alt_data_end+0xffff0168>
 101099c:	00c00604 	movi	r3,24
 10109a0:	01400204 	movi	r5,8
 10109a4:	003ff006 	br	1010968 <__alt_data_end+0xffff0168>
 10109a8:	0007883a 	mov	r3,zero
 10109ac:	01400804 	movi	r5,32
 10109b0:	003fed06 	br	1010968 <__alt_data_end+0xffff0168>

010109b4 <memcpy>:
 10109b4:	2005883a 	mov	r2,r4
 10109b8:	0007883a 	mov	r3,zero
 10109bc:	19800626 	beq	r3,r6,10109d8 <memcpy+0x24>
 10109c0:	28c9883a 	add	r4,r5,r3
 10109c4:	21c00003 	ldbu	r7,0(r4)
 10109c8:	10c9883a 	add	r4,r2,r3
 10109cc:	18c00044 	addi	r3,r3,1
 10109d0:	21c00005 	stb	r7,0(r4)
 10109d4:	003ff906 	br	10109bc <__alt_data_end+0xffff01bc>
 10109d8:	f800283a 	ret

010109dc <memset>:
 10109dc:	2005883a 	mov	r2,r4
 10109e0:	2007883a 	mov	r3,r4
 10109e4:	218d883a 	add	r6,r4,r6
 10109e8:	19800326 	beq	r3,r6,10109f8 <memset+0x1c>
 10109ec:	19400005 	stb	r5,0(r3)
 10109f0:	18c00044 	addi	r3,r3,1
 10109f4:	003ffc06 	br	10109e8 <__alt_data_end+0xffff01e8>
 10109f8:	f800283a 	ret

010109fc <_printf_r>:
 10109fc:	defffd04 	addi	sp,sp,-12
 1010a00:	dfc00015 	stw	ra,0(sp)
 1010a04:	d9800115 	stw	r6,4(sp)
 1010a08:	d9c00215 	stw	r7,8(sp)
 1010a0c:	20c00217 	ldw	r3,8(r4)
 1010a10:	280d883a 	mov	r6,r5
 1010a14:	01404074 	movhi	r5,257
 1010a18:	29444a04 	addi	r5,r5,4392
 1010a1c:	19400115 	stw	r5,4(r3)
 1010a20:	21400217 	ldw	r5,8(r4)
 1010a24:	d9c00104 	addi	r7,sp,4
 1010a28:	1010bc00 	call	1010bc0 <___vfprintf_internal_r>
 1010a2c:	dfc00017 	ldw	ra,0(sp)
 1010a30:	dec00304 	addi	sp,sp,12
 1010a34:	f800283a 	ret

01010a38 <printf>:
 1010a38:	defffc04 	addi	sp,sp,-16
 1010a3c:	dfc00015 	stw	ra,0(sp)
 1010a40:	d9400115 	stw	r5,4(sp)
 1010a44:	d9800215 	stw	r6,8(sp)
 1010a48:	d9c00315 	stw	r7,12(sp)
 1010a4c:	00804074 	movhi	r2,257
 1010a50:	108c3a04 	addi	r2,r2,12520
 1010a54:	10800017 	ldw	r2,0(r2)
 1010a58:	200b883a 	mov	r5,r4
 1010a5c:	01004074 	movhi	r4,257
 1010a60:	10c00217 	ldw	r3,8(r2)
 1010a64:	21044a04 	addi	r4,r4,4392
 1010a68:	d9800104 	addi	r6,sp,4
 1010a6c:	19000115 	stw	r4,4(r3)
 1010a70:	11000217 	ldw	r4,8(r2)
 1010a74:	10111040 	call	1011104 <__vfprintf_internal>
 1010a78:	dfc00017 	ldw	ra,0(sp)
 1010a7c:	dec00404 	addi	sp,sp,16
 1010a80:	f800283a 	ret

01010a84 <_putchar_r>:
 1010a84:	21800217 	ldw	r6,8(r4)
 1010a88:	10112281 	jmpi	1011228 <_putc_r>

01010a8c <putchar>:
 1010a8c:	00804074 	movhi	r2,257
 1010a90:	108c3a04 	addi	r2,r2,12520
 1010a94:	200b883a 	mov	r5,r4
 1010a98:	11000017 	ldw	r4,0(r2)
 1010a9c:	21800217 	ldw	r6,8(r4)
 1010aa0:	10112281 	jmpi	1011228 <_putc_r>

01010aa4 <_puts_r>:
 1010aa4:	defffd04 	addi	sp,sp,-12
 1010aa8:	dc000015 	stw	r16,0(sp)
 1010aac:	2021883a 	mov	r16,r4
 1010ab0:	2809883a 	mov	r4,r5
 1010ab4:	dfc00215 	stw	ra,8(sp)
 1010ab8:	dc400115 	stw	r17,4(sp)
 1010abc:	2823883a 	mov	r17,r5
 1010ac0:	1010b380 	call	1010b38 <strlen>
 1010ac4:	81400217 	ldw	r5,8(r16)
 1010ac8:	00c04074 	movhi	r3,257
 1010acc:	18c44a04 	addi	r3,r3,4392
 1010ad0:	28c00115 	stw	r3,4(r5)
 1010ad4:	8009883a 	mov	r4,r16
 1010ad8:	880d883a 	mov	r6,r17
 1010adc:	100f883a 	mov	r7,r2
 1010ae0:	10111280 	call	1011128 <__sfvwrite_small_dev>
 1010ae4:	00ffffc4 	movi	r3,-1
 1010ae8:	10c00926 	beq	r2,r3,1010b10 <_puts_r+0x6c>
 1010aec:	81400217 	ldw	r5,8(r16)
 1010af0:	01804074 	movhi	r6,257
 1010af4:	8009883a 	mov	r4,r16
 1010af8:	28800117 	ldw	r2,4(r5)
 1010afc:	318ac404 	addi	r6,r6,11024
 1010b00:	01c00044 	movi	r7,1
 1010b04:	103ee83a 	callr	r2
 1010b08:	10bfffe0 	cmpeqi	r2,r2,-1
 1010b0c:	0085c83a 	sub	r2,zero,r2
 1010b10:	dfc00217 	ldw	ra,8(sp)
 1010b14:	dc400117 	ldw	r17,4(sp)
 1010b18:	dc000017 	ldw	r16,0(sp)
 1010b1c:	dec00304 	addi	sp,sp,12
 1010b20:	f800283a 	ret

01010b24 <puts>:
 1010b24:	00804074 	movhi	r2,257
 1010b28:	108c3a04 	addi	r2,r2,12520
 1010b2c:	200b883a 	mov	r5,r4
 1010b30:	11000017 	ldw	r4,0(r2)
 1010b34:	1010aa41 	jmpi	1010aa4 <_puts_r>

01010b38 <strlen>:
 1010b38:	2005883a 	mov	r2,r4
 1010b3c:	10c00007 	ldb	r3,0(r2)
 1010b40:	18000226 	beq	r3,zero,1010b4c <strlen+0x14>
 1010b44:	10800044 	addi	r2,r2,1
 1010b48:	003ffc06 	br	1010b3c <__alt_data_end+0xffff033c>
 1010b4c:	1105c83a 	sub	r2,r2,r4
 1010b50:	f800283a 	ret

01010b54 <print_repeat>:
 1010b54:	defffb04 	addi	sp,sp,-20
 1010b58:	dc800315 	stw	r18,12(sp)
 1010b5c:	dc400215 	stw	r17,8(sp)
 1010b60:	dc000115 	stw	r16,4(sp)
 1010b64:	dfc00415 	stw	ra,16(sp)
 1010b68:	2025883a 	mov	r18,r4
 1010b6c:	2823883a 	mov	r17,r5
 1010b70:	d9800005 	stb	r6,0(sp)
 1010b74:	3821883a 	mov	r16,r7
 1010b78:	04000a0e 	bge	zero,r16,1010ba4 <print_repeat+0x50>
 1010b7c:	88800117 	ldw	r2,4(r17)
 1010b80:	9009883a 	mov	r4,r18
 1010b84:	880b883a 	mov	r5,r17
 1010b88:	d80d883a 	mov	r6,sp
 1010b8c:	01c00044 	movi	r7,1
 1010b90:	103ee83a 	callr	r2
 1010b94:	843fffc4 	addi	r16,r16,-1
 1010b98:	103ff726 	beq	r2,zero,1010b78 <__alt_data_end+0xffff0378>
 1010b9c:	00bfffc4 	movi	r2,-1
 1010ba0:	00000106 	br	1010ba8 <print_repeat+0x54>
 1010ba4:	0005883a 	mov	r2,zero
 1010ba8:	dfc00417 	ldw	ra,16(sp)
 1010bac:	dc800317 	ldw	r18,12(sp)
 1010bb0:	dc400217 	ldw	r17,8(sp)
 1010bb4:	dc000117 	ldw	r16,4(sp)
 1010bb8:	dec00504 	addi	sp,sp,20
 1010bbc:	f800283a 	ret

01010bc0 <___vfprintf_internal_r>:
 1010bc0:	deffe404 	addi	sp,sp,-112
 1010bc4:	d8c00804 	addi	r3,sp,32
 1010bc8:	df001a15 	stw	fp,104(sp)
 1010bcc:	ddc01915 	stw	r23,100(sp)
 1010bd0:	dd801815 	stw	r22,96(sp)
 1010bd4:	dd401715 	stw	r21,92(sp)
 1010bd8:	dd001615 	stw	r20,88(sp)
 1010bdc:	dcc01515 	stw	r19,84(sp)
 1010be0:	dc801415 	stw	r18,80(sp)
 1010be4:	dc401315 	stw	r17,76(sp)
 1010be8:	dc001215 	stw	r16,72(sp)
 1010bec:	dfc01b15 	stw	ra,108(sp)
 1010bf0:	2027883a 	mov	r19,r4
 1010bf4:	2839883a 	mov	fp,r5
 1010bf8:	382f883a 	mov	r23,r7
 1010bfc:	d9800f15 	stw	r6,60(sp)
 1010c00:	0021883a 	mov	r16,zero
 1010c04:	d8000e15 	stw	zero,56(sp)
 1010c08:	002d883a 	mov	r22,zero
 1010c0c:	0029883a 	mov	r20,zero
 1010c10:	0025883a 	mov	r18,zero
 1010c14:	0023883a 	mov	r17,zero
 1010c18:	d8000c15 	stw	zero,48(sp)
 1010c1c:	d8000b15 	stw	zero,44(sp)
 1010c20:	002b883a 	mov	r21,zero
 1010c24:	d8c00915 	stw	r3,36(sp)
 1010c28:	d8c00f17 	ldw	r3,60(sp)
 1010c2c:	19000003 	ldbu	r4,0(r3)
 1010c30:	20803fcc 	andi	r2,r4,255
 1010c34:	1080201c 	xori	r2,r2,128
 1010c38:	10bfe004 	addi	r2,r2,-128
 1010c3c:	10012426 	beq	r2,zero,10110d0 <___vfprintf_internal_r+0x510>
 1010c40:	00c00044 	movi	r3,1
 1010c44:	a8c01426 	beq	r21,r3,1010c98 <___vfprintf_internal_r+0xd8>
 1010c48:	1d400216 	blt	r3,r21,1010c54 <___vfprintf_internal_r+0x94>
 1010c4c:	a8000626 	beq	r21,zero,1010c68 <___vfprintf_internal_r+0xa8>
 1010c50:	00011b06 	br	10110c0 <___vfprintf_internal_r+0x500>
 1010c54:	01400084 	movi	r5,2
 1010c58:	a9401d26 	beq	r21,r5,1010cd0 <___vfprintf_internal_r+0x110>
 1010c5c:	014000c4 	movi	r5,3
 1010c60:	a9402926 	beq	r21,r5,1010d08 <___vfprintf_internal_r+0x148>
 1010c64:	00011606 	br	10110c0 <___vfprintf_internal_r+0x500>
 1010c68:	01400944 	movi	r5,37
 1010c6c:	11410326 	beq	r2,r5,101107c <___vfprintf_internal_r+0x4bc>
 1010c70:	e0800117 	ldw	r2,4(fp)
 1010c74:	d9000005 	stb	r4,0(sp)
 1010c78:	e00b883a 	mov	r5,fp
 1010c7c:	9809883a 	mov	r4,r19
 1010c80:	d80d883a 	mov	r6,sp
 1010c84:	01c00044 	movi	r7,1
 1010c88:	103ee83a 	callr	r2
 1010c8c:	1000de1e 	bne	r2,zero,1011008 <___vfprintf_internal_r+0x448>
 1010c90:	84000044 	addi	r16,r16,1
 1010c94:	00010a06 	br	10110c0 <___vfprintf_internal_r+0x500>
 1010c98:	01400c04 	movi	r5,48
 1010c9c:	11410026 	beq	r2,r5,10110a0 <___vfprintf_internal_r+0x4e0>
 1010ca0:	01400944 	movi	r5,37
 1010ca4:	11400a1e 	bne	r2,r5,1010cd0 <___vfprintf_internal_r+0x110>
 1010ca8:	d8800005 	stb	r2,0(sp)
 1010cac:	e0800117 	ldw	r2,4(fp)
 1010cb0:	9809883a 	mov	r4,r19
 1010cb4:	e00b883a 	mov	r5,fp
 1010cb8:	d80d883a 	mov	r6,sp
 1010cbc:	a80f883a 	mov	r7,r21
 1010cc0:	103ee83a 	callr	r2
 1010cc4:	1000d01e 	bne	r2,zero,1011008 <___vfprintf_internal_r+0x448>
 1010cc8:	84000044 	addi	r16,r16,1
 1010ccc:	0000fb06 	br	10110bc <___vfprintf_internal_r+0x4fc>
 1010cd0:	217ff404 	addi	r5,r4,-48
 1010cd4:	29403fcc 	andi	r5,r5,255
 1010cd8:	00c00244 	movi	r3,9
 1010cdc:	19400736 	bltu	r3,r5,1010cfc <___vfprintf_internal_r+0x13c>
 1010ce0:	00bfffc4 	movi	r2,-1
 1010ce4:	88800226 	beq	r17,r2,1010cf0 <___vfprintf_internal_r+0x130>
 1010ce8:	8c4002a4 	muli	r17,r17,10
 1010cec:	00000106 	br	1010cf4 <___vfprintf_internal_r+0x134>
 1010cf0:	0023883a 	mov	r17,zero
 1010cf4:	8963883a 	add	r17,r17,r5
 1010cf8:	0000ea06 	br	10110a4 <___vfprintf_internal_r+0x4e4>
 1010cfc:	01400b84 	movi	r5,46
 1010d00:	1140ec26 	beq	r2,r5,10110b4 <___vfprintf_internal_r+0x4f4>
 1010d04:	05400084 	movi	r21,2
 1010d08:	213ff404 	addi	r4,r4,-48
 1010d0c:	21003fcc 	andi	r4,r4,255
 1010d10:	00c00244 	movi	r3,9
 1010d14:	19000736 	bltu	r3,r4,1010d34 <___vfprintf_internal_r+0x174>
 1010d18:	00bfffc4 	movi	r2,-1
 1010d1c:	90800226 	beq	r18,r2,1010d28 <___vfprintf_internal_r+0x168>
 1010d20:	948002a4 	muli	r18,r18,10
 1010d24:	00000106 	br	1010d2c <___vfprintf_internal_r+0x16c>
 1010d28:	0025883a 	mov	r18,zero
 1010d2c:	9125883a 	add	r18,r18,r4
 1010d30:	0000e306 	br	10110c0 <___vfprintf_internal_r+0x500>
 1010d34:	00c01b04 	movi	r3,108
 1010d38:	10c0dc26 	beq	r2,r3,10110ac <___vfprintf_internal_r+0x4ec>
 1010d3c:	013fffc4 	movi	r4,-1
 1010d40:	91000226 	beq	r18,r4,1010d4c <___vfprintf_internal_r+0x18c>
 1010d44:	d8000b15 	stw	zero,44(sp)
 1010d48:	00000106 	br	1010d50 <___vfprintf_internal_r+0x190>
 1010d4c:	04800044 	movi	r18,1
 1010d50:	01001a44 	movi	r4,105
 1010d54:	11001626 	beq	r2,r4,1010db0 <___vfprintf_internal_r+0x1f0>
 1010d58:	20800916 	blt	r4,r2,1010d80 <___vfprintf_internal_r+0x1c0>
 1010d5c:	010018c4 	movi	r4,99
 1010d60:	11009226 	beq	r2,r4,1010fac <___vfprintf_internal_r+0x3ec>
 1010d64:	01001904 	movi	r4,100
 1010d68:	11001126 	beq	r2,r4,1010db0 <___vfprintf_internal_r+0x1f0>
 1010d6c:	01001604 	movi	r4,88
 1010d70:	1100d21e 	bne	r2,r4,10110bc <___vfprintf_internal_r+0x4fc>
 1010d74:	00c00044 	movi	r3,1
 1010d78:	d8c00e15 	stw	r3,56(sp)
 1010d7c:	00001406 	br	1010dd0 <___vfprintf_internal_r+0x210>
 1010d80:	01001cc4 	movi	r4,115
 1010d84:	1100a226 	beq	r2,r4,1011010 <___vfprintf_internal_r+0x450>
 1010d88:	20800416 	blt	r4,r2,1010d9c <___vfprintf_internal_r+0x1dc>
 1010d8c:	01001bc4 	movi	r4,111
 1010d90:	1100ca1e 	bne	r2,r4,10110bc <___vfprintf_internal_r+0x4fc>
 1010d94:	05000204 	movi	r20,8
 1010d98:	00000e06 	br	1010dd4 <___vfprintf_internal_r+0x214>
 1010d9c:	01001d44 	movi	r4,117
 1010da0:	11000c26 	beq	r2,r4,1010dd4 <___vfprintf_internal_r+0x214>
 1010da4:	01001e04 	movi	r4,120
 1010da8:	11000926 	beq	r2,r4,1010dd0 <___vfprintf_internal_r+0x210>
 1010dac:	0000c306 	br	10110bc <___vfprintf_internal_r+0x4fc>
 1010db0:	b8800104 	addi	r2,r23,4
 1010db4:	b0000726 	beq	r22,zero,1010dd4 <___vfprintf_internal_r+0x214>
 1010db8:	d8800d15 	stw	r2,52(sp)
 1010dbc:	bdc00017 	ldw	r23,0(r23)
 1010dc0:	b800080e 	bge	r23,zero,1010de4 <___vfprintf_internal_r+0x224>
 1010dc4:	05efc83a 	sub	r23,zero,r23
 1010dc8:	02400044 	movi	r9,1
 1010dcc:	00000606 	br	1010de8 <___vfprintf_internal_r+0x228>
 1010dd0:	05000404 	movi	r20,16
 1010dd4:	b8c00104 	addi	r3,r23,4
 1010dd8:	d8c00d15 	stw	r3,52(sp)
 1010ddc:	bdc00017 	ldw	r23,0(r23)
 1010de0:	002d883a 	mov	r22,zero
 1010de4:	0013883a 	mov	r9,zero
 1010de8:	002b883a 	mov	r21,zero
 1010dec:	dd4d883a 	add	r6,sp,r21
 1010df0:	b8001626 	beq	r23,zero,1010e4c <___vfprintf_internal_r+0x28c>
 1010df4:	b809883a 	mov	r4,r23
 1010df8:	a00b883a 	mov	r5,r20
 1010dfc:	d9801015 	stw	r6,64(sp)
 1010e00:	da401115 	stw	r9,68(sp)
 1010e04:	100f7c40 	call	100f7c4 <__udivsi3>
 1010e08:	a089383a 	mul	r4,r20,r2
 1010e0c:	00c00244 	movi	r3,9
 1010e10:	d9801017 	ldw	r6,64(sp)
 1010e14:	b92fc83a 	sub	r23,r23,r4
 1010e18:	da401117 	ldw	r9,68(sp)
 1010e1c:	1dc00216 	blt	r3,r23,1010e28 <___vfprintf_internal_r+0x268>
 1010e20:	bdc00c04 	addi	r23,r23,48
 1010e24:	00000506 	br	1010e3c <___vfprintf_internal_r+0x27c>
 1010e28:	d8c00e17 	ldw	r3,56(sp)
 1010e2c:	18000226 	beq	r3,zero,1010e38 <___vfprintf_internal_r+0x278>
 1010e30:	bdc00dc4 	addi	r23,r23,55
 1010e34:	00000106 	br	1010e3c <___vfprintf_internal_r+0x27c>
 1010e38:	bdc015c4 	addi	r23,r23,87
 1010e3c:	35c00005 	stb	r23,0(r6)
 1010e40:	ad400044 	addi	r21,r21,1
 1010e44:	102f883a 	mov	r23,r2
 1010e48:	003fe806 	br	1010dec <__alt_data_end+0xffff05ec>
 1010e4c:	36c7c83a 	sub	r3,r6,sp
 1010e50:	d8c00a15 	stw	r3,40(sp)
 1010e54:	90c5c83a 	sub	r2,r18,r3
 1010e58:	302f883a 	mov	r23,r6
 1010e5c:	00800e0e 	bge	zero,r2,1010e98 <___vfprintf_internal_r+0x2d8>
 1010e60:	302b883a 	mov	r21,r6
 1010e64:	3085883a 	add	r2,r6,r2
 1010e68:	01400c04 	movi	r5,48
 1010e6c:	d8c00917 	ldw	r3,36(sp)
 1010e70:	a809883a 	mov	r4,r21
 1010e74:	a8c0052e 	bgeu	r21,r3,1010e8c <___vfprintf_internal_r+0x2cc>
 1010e78:	ad400044 	addi	r21,r21,1
 1010e7c:	21400005 	stb	r5,0(r4)
 1010e80:	a82f883a 	mov	r23,r21
 1010e84:	a8bff91e 	bne	r21,r2,1010e6c <__alt_data_end+0xffff066c>
 1010e88:	00000106 	br	1010e90 <___vfprintf_internal_r+0x2d0>
 1010e8c:	a82f883a 	mov	r23,r21
 1010e90:	aeebc83a 	sub	r21,r21,sp
 1010e94:	dd400a15 	stw	r21,40(sp)
 1010e98:	d8c00a17 	ldw	r3,40(sp)
 1010e9c:	1a51883a 	add	r8,r3,r9
 1010ea0:	d8c00b17 	ldw	r3,44(sp)
 1010ea4:	8a2bc83a 	sub	r21,r17,r8
 1010ea8:	18001726 	beq	r3,zero,1010f08 <___vfprintf_internal_r+0x348>
 1010eac:	48000a26 	beq	r9,zero,1010ed8 <___vfprintf_internal_r+0x318>
 1010eb0:	00800b44 	movi	r2,45
 1010eb4:	d8800805 	stb	r2,32(sp)
 1010eb8:	e0800117 	ldw	r2,4(fp)
 1010ebc:	9809883a 	mov	r4,r19
 1010ec0:	e00b883a 	mov	r5,fp
 1010ec4:	d9800804 	addi	r6,sp,32
 1010ec8:	01c00044 	movi	r7,1
 1010ecc:	103ee83a 	callr	r2
 1010ed0:	10004d1e 	bne	r2,zero,1011008 <___vfprintf_internal_r+0x448>
 1010ed4:	84000044 	addi	r16,r16,1
 1010ed8:	0540070e 	bge	zero,r21,1010ef8 <___vfprintf_internal_r+0x338>
 1010edc:	9809883a 	mov	r4,r19
 1010ee0:	e00b883a 	mov	r5,fp
 1010ee4:	01800c04 	movi	r6,48
 1010ee8:	a80f883a 	mov	r7,r21
 1010eec:	1010b540 	call	1010b54 <print_repeat>
 1010ef0:	1000451e 	bne	r2,zero,1011008 <___vfprintf_internal_r+0x448>
 1010ef4:	8561883a 	add	r16,r16,r21
 1010ef8:	d8c00a17 	ldw	r3,40(sp)
 1010efc:	b811883a 	mov	r8,r23
 1010f00:	1debc83a 	sub	r21,r3,r23
 1010f04:	00002206 	br	1010f90 <___vfprintf_internal_r+0x3d0>
 1010f08:	0540090e 	bge	zero,r21,1010f30 <___vfprintf_internal_r+0x370>
 1010f0c:	9809883a 	mov	r4,r19
 1010f10:	e00b883a 	mov	r5,fp
 1010f14:	01800804 	movi	r6,32
 1010f18:	a80f883a 	mov	r7,r21
 1010f1c:	da401115 	stw	r9,68(sp)
 1010f20:	1010b540 	call	1010b54 <print_repeat>
 1010f24:	da401117 	ldw	r9,68(sp)
 1010f28:	1000371e 	bne	r2,zero,1011008 <___vfprintf_internal_r+0x448>
 1010f2c:	8561883a 	add	r16,r16,r21
 1010f30:	483ff126 	beq	r9,zero,1010ef8 <__alt_data_end+0xffff06f8>
 1010f34:	00800b44 	movi	r2,45
 1010f38:	d8800805 	stb	r2,32(sp)
 1010f3c:	e0800117 	ldw	r2,4(fp)
 1010f40:	9809883a 	mov	r4,r19
 1010f44:	e00b883a 	mov	r5,fp
 1010f48:	d9800804 	addi	r6,sp,32
 1010f4c:	01c00044 	movi	r7,1
 1010f50:	103ee83a 	callr	r2
 1010f54:	10002c1e 	bne	r2,zero,1011008 <___vfprintf_internal_r+0x448>
 1010f58:	84000044 	addi	r16,r16,1
 1010f5c:	003fe606 	br	1010ef8 <__alt_data_end+0xffff06f8>
 1010f60:	423fffc4 	addi	r8,r8,-1
 1010f64:	40800003 	ldbu	r2,0(r8)
 1010f68:	9809883a 	mov	r4,r19
 1010f6c:	e00b883a 	mov	r5,fp
 1010f70:	d8800805 	stb	r2,32(sp)
 1010f74:	e0800117 	ldw	r2,4(fp)
 1010f78:	d9800804 	addi	r6,sp,32
 1010f7c:	da001015 	stw	r8,64(sp)
 1010f80:	01c00044 	movi	r7,1
 1010f84:	103ee83a 	callr	r2
 1010f88:	da001017 	ldw	r8,64(sp)
 1010f8c:	10001e1e 	bne	r2,zero,1011008 <___vfprintf_internal_r+0x448>
 1010f90:	8205c83a 	sub	r2,r16,r8
 1010f94:	4549883a 	add	r4,r8,r21
 1010f98:	b885883a 	add	r2,r23,r2
 1010f9c:	013ff016 	blt	zero,r4,1010f60 <__alt_data_end+0xffff0760>
 1010fa0:	1021883a 	mov	r16,r2
 1010fa4:	ddc00d17 	ldw	r23,52(sp)
 1010fa8:	00004406 	br	10110bc <___vfprintf_internal_r+0x4fc>
 1010fac:	00800044 	movi	r2,1
 1010fb0:	1440080e 	bge	r2,r17,1010fd4 <___vfprintf_internal_r+0x414>
 1010fb4:	8d7fffc4 	addi	r21,r17,-1
 1010fb8:	9809883a 	mov	r4,r19
 1010fbc:	e00b883a 	mov	r5,fp
 1010fc0:	01800804 	movi	r6,32
 1010fc4:	a80f883a 	mov	r7,r21
 1010fc8:	1010b540 	call	1010b54 <print_repeat>
 1010fcc:	10000e1e 	bne	r2,zero,1011008 <___vfprintf_internal_r+0x448>
 1010fd0:	8561883a 	add	r16,r16,r21
 1010fd4:	b8800017 	ldw	r2,0(r23)
 1010fd8:	9809883a 	mov	r4,r19
 1010fdc:	e00b883a 	mov	r5,fp
 1010fe0:	d8800005 	stb	r2,0(sp)
 1010fe4:	e0800117 	ldw	r2,4(fp)
 1010fe8:	d80d883a 	mov	r6,sp
 1010fec:	01c00044 	movi	r7,1
 1010ff0:	bd400104 	addi	r21,r23,4
 1010ff4:	103ee83a 	callr	r2
 1010ff8:	1000031e 	bne	r2,zero,1011008 <___vfprintf_internal_r+0x448>
 1010ffc:	84000044 	addi	r16,r16,1
 1011000:	a82f883a 	mov	r23,r21
 1011004:	00002d06 	br	10110bc <___vfprintf_internal_r+0x4fc>
 1011008:	00bfffc4 	movi	r2,-1
 101100c:	00003106 	br	10110d4 <___vfprintf_internal_r+0x514>
 1011010:	bd400017 	ldw	r21,0(r23)
 1011014:	b8c00104 	addi	r3,r23,4
 1011018:	d8c00a15 	stw	r3,40(sp)
 101101c:	a809883a 	mov	r4,r21
 1011020:	1010b380 	call	1010b38 <strlen>
 1011024:	8893c83a 	sub	r9,r17,r2
 1011028:	102f883a 	mov	r23,r2
 101102c:	0240090e 	bge	zero,r9,1011054 <___vfprintf_internal_r+0x494>
 1011030:	480f883a 	mov	r7,r9
 1011034:	9809883a 	mov	r4,r19
 1011038:	e00b883a 	mov	r5,fp
 101103c:	01800804 	movi	r6,32
 1011040:	da401115 	stw	r9,68(sp)
 1011044:	1010b540 	call	1010b54 <print_repeat>
 1011048:	da401117 	ldw	r9,68(sp)
 101104c:	103fee1e 	bne	r2,zero,1011008 <__alt_data_end+0xffff0808>
 1011050:	8261883a 	add	r16,r16,r9
 1011054:	e0800117 	ldw	r2,4(fp)
 1011058:	9809883a 	mov	r4,r19
 101105c:	e00b883a 	mov	r5,fp
 1011060:	a80d883a 	mov	r6,r21
 1011064:	b80f883a 	mov	r7,r23
 1011068:	103ee83a 	callr	r2
 101106c:	103fe61e 	bne	r2,zero,1011008 <__alt_data_end+0xffff0808>
 1011070:	85e1883a 	add	r16,r16,r23
 1011074:	ddc00a17 	ldw	r23,40(sp)
 1011078:	00001006 	br	10110bc <___vfprintf_internal_r+0x4fc>
 101107c:	05800044 	movi	r22,1
 1011080:	04bfffc4 	movi	r18,-1
 1011084:	d8000e15 	stw	zero,56(sp)
 1011088:	05000284 	movi	r20,10
 101108c:	9023883a 	mov	r17,r18
 1011090:	d8000c15 	stw	zero,48(sp)
 1011094:	d8000b15 	stw	zero,44(sp)
 1011098:	b02b883a 	mov	r21,r22
 101109c:	00000806 	br	10110c0 <___vfprintf_internal_r+0x500>
 10110a0:	dd400b15 	stw	r21,44(sp)
 10110a4:	05400084 	movi	r21,2
 10110a8:	00000506 	br	10110c0 <___vfprintf_internal_r+0x500>
 10110ac:	00c00044 	movi	r3,1
 10110b0:	d8c00c15 	stw	r3,48(sp)
 10110b4:	054000c4 	movi	r21,3
 10110b8:	00000106 	br	10110c0 <___vfprintf_internal_r+0x500>
 10110bc:	002b883a 	mov	r21,zero
 10110c0:	d8c00f17 	ldw	r3,60(sp)
 10110c4:	18c00044 	addi	r3,r3,1
 10110c8:	d8c00f15 	stw	r3,60(sp)
 10110cc:	003ed606 	br	1010c28 <__alt_data_end+0xffff0428>
 10110d0:	8005883a 	mov	r2,r16
 10110d4:	dfc01b17 	ldw	ra,108(sp)
 10110d8:	df001a17 	ldw	fp,104(sp)
 10110dc:	ddc01917 	ldw	r23,100(sp)
 10110e0:	dd801817 	ldw	r22,96(sp)
 10110e4:	dd401717 	ldw	r21,92(sp)
 10110e8:	dd001617 	ldw	r20,88(sp)
 10110ec:	dcc01517 	ldw	r19,84(sp)
 10110f0:	dc801417 	ldw	r18,80(sp)
 10110f4:	dc401317 	ldw	r17,76(sp)
 10110f8:	dc001217 	ldw	r16,72(sp)
 10110fc:	dec01c04 	addi	sp,sp,112
 1011100:	f800283a 	ret

01011104 <__vfprintf_internal>:
 1011104:	2007883a 	mov	r3,r4
 1011108:	01004074 	movhi	r4,257
 101110c:	210c3a04 	addi	r4,r4,12520
 1011110:	21000017 	ldw	r4,0(r4)
 1011114:	2805883a 	mov	r2,r5
 1011118:	300f883a 	mov	r7,r6
 101111c:	180b883a 	mov	r5,r3
 1011120:	100d883a 	mov	r6,r2
 1011124:	1010bc01 	jmpi	1010bc0 <___vfprintf_internal_r>

01011128 <__sfvwrite_small_dev>:
 1011128:	2880000b 	ldhu	r2,0(r5)
 101112c:	defffa04 	addi	sp,sp,-24
 1011130:	dc000015 	stw	r16,0(sp)
 1011134:	dfc00515 	stw	ra,20(sp)
 1011138:	dd000415 	stw	r20,16(sp)
 101113c:	dcc00315 	stw	r19,12(sp)
 1011140:	dc800215 	stw	r18,8(sp)
 1011144:	dc400115 	stw	r17,4(sp)
 1011148:	1080020c 	andi	r2,r2,8
 101114c:	2821883a 	mov	r16,r5
 1011150:	10001726 	beq	r2,zero,10111b0 <__sfvwrite_small_dev+0x88>
 1011154:	2880008f 	ldh	r2,2(r5)
 1011158:	10001216 	blt	r2,zero,10111a4 <__sfvwrite_small_dev+0x7c>
 101115c:	2027883a 	mov	r19,r4
 1011160:	3025883a 	mov	r18,r6
 1011164:	3823883a 	mov	r17,r7
 1011168:	05010004 	movi	r20,1024
 101116c:	04400b0e 	bge	zero,r17,101119c <__sfvwrite_small_dev+0x74>
 1011170:	8140008f 	ldh	r5,2(r16)
 1011174:	880f883a 	mov	r7,r17
 1011178:	a440010e 	bge	r20,r17,1011180 <__sfvwrite_small_dev+0x58>
 101117c:	01c10004 	movi	r7,1024
 1011180:	9809883a 	mov	r4,r19
 1011184:	900d883a 	mov	r6,r18
 1011188:	10112800 	call	1011280 <_write_r>
 101118c:	0080050e 	bge	zero,r2,10111a4 <__sfvwrite_small_dev+0x7c>
 1011190:	88a3c83a 	sub	r17,r17,r2
 1011194:	90a5883a 	add	r18,r18,r2
 1011198:	003ff406 	br	101116c <__alt_data_end+0xffff096c>
 101119c:	0005883a 	mov	r2,zero
 10111a0:	00000406 	br	10111b4 <__sfvwrite_small_dev+0x8c>
 10111a4:	8080000b 	ldhu	r2,0(r16)
 10111a8:	10801014 	ori	r2,r2,64
 10111ac:	8080000d 	sth	r2,0(r16)
 10111b0:	00bfffc4 	movi	r2,-1
 10111b4:	dfc00517 	ldw	ra,20(sp)
 10111b8:	dd000417 	ldw	r20,16(sp)
 10111bc:	dcc00317 	ldw	r19,12(sp)
 10111c0:	dc800217 	ldw	r18,8(sp)
 10111c4:	dc400117 	ldw	r17,4(sp)
 10111c8:	dc000017 	ldw	r16,0(sp)
 10111cc:	dec00604 	addi	sp,sp,24
 10111d0:	f800283a 	ret

010111d4 <putc>:
 10111d4:	defffd04 	addi	sp,sp,-12
 10111d8:	00804074 	movhi	r2,257
 10111dc:	dc000115 	stw	r16,4(sp)
 10111e0:	dfc00215 	stw	ra,8(sp)
 10111e4:	10844a04 	addi	r2,r2,4392
 10111e8:	28800115 	stw	r2,4(r5)
 10111ec:	00804074 	movhi	r2,257
 10111f0:	108c3a04 	addi	r2,r2,12520
 10111f4:	d9000005 	stb	r4,0(sp)
 10111f8:	2021883a 	mov	r16,r4
 10111fc:	11000017 	ldw	r4,0(r2)
 1011200:	d80d883a 	mov	r6,sp
 1011204:	01c00044 	movi	r7,1
 1011208:	10111280 	call	1011128 <__sfvwrite_small_dev>
 101120c:	00ffffc4 	movi	r3,-1
 1011210:	10c00126 	beq	r2,r3,1011218 <putc+0x44>
 1011214:	8005883a 	mov	r2,r16
 1011218:	dfc00217 	ldw	ra,8(sp)
 101121c:	dc000117 	ldw	r16,4(sp)
 1011220:	dec00304 	addi	sp,sp,12
 1011224:	f800283a 	ret

01011228 <_putc_r>:
 1011228:	defffd04 	addi	sp,sp,-12
 101122c:	00804074 	movhi	r2,257
 1011230:	dc000115 	stw	r16,4(sp)
 1011234:	dfc00215 	stw	ra,8(sp)
 1011238:	10844a04 	addi	r2,r2,4392
 101123c:	30800115 	stw	r2,4(r6)
 1011240:	00804074 	movhi	r2,257
 1011244:	108c3a04 	addi	r2,r2,12520
 1011248:	11000017 	ldw	r4,0(r2)
 101124c:	2821883a 	mov	r16,r5
 1011250:	01c00044 	movi	r7,1
 1011254:	300b883a 	mov	r5,r6
 1011258:	d80d883a 	mov	r6,sp
 101125c:	dc000005 	stb	r16,0(sp)
 1011260:	10111280 	call	1011128 <__sfvwrite_small_dev>
 1011264:	00ffffc4 	movi	r3,-1
 1011268:	10c00126 	beq	r2,r3,1011270 <_putc_r+0x48>
 101126c:	8005883a 	mov	r2,r16
 1011270:	dfc00217 	ldw	ra,8(sp)
 1011274:	dc000117 	ldw	r16,4(sp)
 1011278:	dec00304 	addi	sp,sp,12
 101127c:	f800283a 	ret

01011280 <_write_r>:
 1011280:	defffd04 	addi	sp,sp,-12
 1011284:	dc000015 	stw	r16,0(sp)
 1011288:	04004074 	movhi	r16,257
 101128c:	dc400115 	stw	r17,4(sp)
 1011290:	840dc204 	addi	r16,r16,14088
 1011294:	2023883a 	mov	r17,r4
 1011298:	2809883a 	mov	r4,r5
 101129c:	300b883a 	mov	r5,r6
 10112a0:	380d883a 	mov	r6,r7
 10112a4:	dfc00215 	stw	ra,8(sp)
 10112a8:	80000015 	stw	zero,0(r16)
 10112ac:	10114c40 	call	10114c4 <write>
 10112b0:	00ffffc4 	movi	r3,-1
 10112b4:	10c0031e 	bne	r2,r3,10112c4 <_write_r+0x44>
 10112b8:	80c00017 	ldw	r3,0(r16)
 10112bc:	18000126 	beq	r3,zero,10112c4 <_write_r+0x44>
 10112c0:	88c00015 	stw	r3,0(r17)
 10112c4:	dfc00217 	ldw	ra,8(sp)
 10112c8:	dc400117 	ldw	r17,4(sp)
 10112cc:	dc000017 	ldw	r16,0(sp)
 10112d0:	dec00304 	addi	sp,sp,12
 10112d4:	f800283a 	ret

010112d8 <alt_dcache_flush>:
void alt_dcache_flush (void* start, alt_u32 len)
{
#if NIOS2_DCACHE_SIZE > 0

  char* i;
  char* end = ((char*) start) + len; 
 10112d8:	214b883a 	add	r5,r4,r5

  for (i = start; i < end; i+= NIOS2_DCACHE_LINE_SIZE)
 10112dc:	2005883a 	mov	r2,r4
 10112e0:	1140032e 	bgeu	r2,r5,10112f0 <alt_dcache_flush+0x18>
  { 
    ALT_FLUSH_DATA(i); 
 10112e4:	1000001b 	flushda	0(r2)
#if NIOS2_DCACHE_SIZE > 0

  char* i;
  char* end = ((char*) start) + len; 

  for (i = start; i < end; i+= NIOS2_DCACHE_LINE_SIZE)
 10112e8:	10800804 	addi	r2,r2,32
 10112ec:	003ffc06 	br	10112e0 <__alt_data_end+0xffff0ae0>
   * For an unaligned flush request, we've got one more line left.
   * Note that this is dependent on NIOS2_DCACHE_LINE_SIZE to be a 
   * multiple of 2 (which it always is).
   */

  if (((alt_u32) start) & (NIOS2_DCACHE_LINE_SIZE - 1))
 10112f0:	210007cc 	andi	r4,r4,31
 10112f4:	20000126 	beq	r4,zero,10112fc <alt_dcache_flush+0x24>
  {
    ALT_FLUSH_DATA(i);
 10112f8:	1000001b 	flushda	0(r2)
 10112fc:	f800283a 	ret

01011300 <alt_irq_register>:
                      alt_isr_func handler)
{
  int rc = -EINVAL;  
  alt_irq_context status;

  if (id < ALT_NIRQ)
 1011300:	008007c4 	movi	r2,31
 1011304:	11002336 	bltu	r2,r4,1011394 <alt_irq_register+0x94>
static ALT_INLINE alt_irq_context ALT_ALWAYS_INLINE 
       alt_irq_disable_all (void)
{
  alt_irq_context context;

  NIOS2_READ_STATUS (context);
 1011308:	000f303a 	rdctl	r7,status

  NIOS2_WRITE_STATUS (context & ~NIOS2_STATUS_PIE_MSK);
 101130c:	00ffff84 	movi	r3,-2
 1011310:	38c4703a 	and	r2,r7,r3
 1011314:	1001703a 	wrctl	status,r2
     * state.
     */

    status = alt_irq_disable_all ();

    alt_irq[id].handler = handler;
 1011318:	200490fa 	slli	r2,r4,3
 101131c:	02004074 	movhi	r8,257
 1011320:	420fbd04 	addi	r8,r8,16116
 1011324:	4085883a 	add	r2,r8,r2
    alt_irq[id].context = context;
 1011328:	11400115 	stw	r5,4(r2)
     * state.
     */

    status = alt_irq_disable_all ();

    alt_irq[id].handler = handler;
 101132c:	11800015 	stw	r6,0(r2)
 1011330:	01404074 	movhi	r5,257
 1011334:	294dc304 	addi	r5,r5,14092
 1011338:	00800044 	movi	r2,1
    alt_irq[id].context = context;

    rc = (handler) ? alt_irq_enable (id): alt_irq_disable (id);
 101133c:	30000726 	beq	r6,zero,101135c <alt_irq_register+0x5c>
static ALT_INLINE alt_irq_context ALT_ALWAYS_INLINE 
       alt_irq_disable_all (void)
{
  alt_irq_context context;

  NIOS2_READ_STATUS (context);
 1011340:	000d303a 	rdctl	r6,status

  NIOS2_WRITE_STATUS (context & ~NIOS2_STATUS_PIE_MSK);
 1011344:	30c6703a 	and	r3,r6,r3
 1011348:	1801703a 	wrctl	status,r3
  alt_irq_context  status;
  extern volatile alt_u32 alt_irq_active;

  status = alt_irq_disable_all ();

  alt_irq_active |= (1 << id);
 101134c:	28c00017 	ldw	r3,0(r5)
 1011350:	1104983a 	sll	r2,r2,r4
 1011354:	10c4b03a 	or	r2,r2,r3
 1011358:	00000706 	br	1011378 <alt_irq_register+0x78>
static ALT_INLINE alt_irq_context ALT_ALWAYS_INLINE 
       alt_irq_disable_all (void)
{
  alt_irq_context context;

  NIOS2_READ_STATUS (context);
 101135c:	000d303a 	rdctl	r6,status

  NIOS2_WRITE_STATUS (context & ~NIOS2_STATUS_PIE_MSK);
 1011360:	30c6703a 	and	r3,r6,r3
 1011364:	1801703a 	wrctl	status,r3
  alt_irq_context  status;
  extern volatile alt_u32 alt_irq_active;

  status = alt_irq_disable_all ();

  alt_irq_active &= ~(1 << id);
 1011368:	1104983a 	sll	r2,r2,r4
 101136c:	28c00017 	ldw	r3,0(r5)
 1011370:	0084303a 	nor	r2,zero,r2
 1011374:	10c4703a 	and	r2,r2,r3
 1011378:	28800015 	stw	r2,0(r5)
  NIOS2_WRITE_IENABLE (alt_irq_active);
 101137c:	28800017 	ldw	r2,0(r5)
 1011380:	100170fa 	wrctl	ienable,r2
  status &= ~NIOS2_STATUS_PIE_MSK;
  status |= (context & NIOS2_STATUS_PIE_MSK);
  
  NIOS2_WRITE_STATUS (status);
#else
  NIOS2_WRITE_STATUS (context);
 1011384:	3001703a 	wrctl	status,r6
 1011388:	3801703a 	wrctl	status,r7
 101138c:	0005883a 	mov	r2,zero
 1011390:	f800283a 	ret
 
int alt_irq_register (alt_u32 id, 
                      void* context, 
                      alt_isr_func handler)
{
  int rc = -EINVAL;  
 1011394:	00bffa84 	movi	r2,-22
    rc = (handler) ? alt_irq_enable (id): alt_irq_disable (id);

    alt_irq_enable_all(status);
  }
  return rc; 
}
 1011398:	f800283a 	ret

0101139c <alt_load>:
 * there is no bootloader, so this application is responsible for loading to
 * RAM any sections that are required.
 */  

void alt_load (void)
{
 101139c:	deffff04 	addi	sp,sp,-4
 10113a0:	01004074 	movhi	r4,257
 10113a4:	01404074 	movhi	r5,257
 10113a8:	dfc00015 	stw	ra,0(sp)
 10113ac:	210ac904 	addi	r4,r4,11044
 10113b0:	294c4204 	addi	r5,r5,12552

static void ALT_INLINE alt_load_section (alt_u32* from, 
                                         alt_u32* to, 
                                         alt_u32* end)
{
  if (to != from)
 10113b4:	2140061e 	bne	r4,r5,10113d0 <alt_load+0x34>
 10113b8:	01004034 	movhi	r4,256
 10113bc:	01404034 	movhi	r5,256
 10113c0:	21000804 	addi	r4,r4,32
 10113c4:	29400804 	addi	r5,r5,32
 10113c8:	2140141e 	bne	r4,r5,101141c <alt_load+0x80>
 10113cc:	00000d06 	br	1011404 <alt_load+0x68>
 10113d0:	00c04074 	movhi	r3,257
 10113d4:	18cc4204 	addi	r3,r3,12552
 10113d8:	00bfff04 	movi	r2,-4
 10113dc:	1907c83a 	sub	r3,r3,r4
 10113e0:	1886703a 	and	r3,r3,r2
 10113e4:	0005883a 	mov	r2,zero
  {
    while( to != end )
 10113e8:	10fff326 	beq	r2,r3,10113b8 <__alt_data_end+0xffff0bb8>
 10113ec:	114f883a 	add	r7,r2,r5
    {
      *to++ = *from++;
 10113f0:	39c00017 	ldw	r7,0(r7)
 10113f4:	110d883a 	add	r6,r2,r4
 10113f8:	10800104 	addi	r2,r2,4
 10113fc:	31c00015 	stw	r7,0(r6)
 1011400:	003ff906 	br	10113e8 <__alt_data_end+0xffff0be8>
 1011404:	01004074 	movhi	r4,257
 1011408:	01404074 	movhi	r5,257
 101140c:	2107fa04 	addi	r4,r4,8168
 1011410:	2947fa04 	addi	r5,r5,8168

static void ALT_INLINE alt_load_section (alt_u32* from, 
                                         alt_u32* to, 
                                         alt_u32* end)
{
  if (to != from)
 1011414:	2140121e 	bne	r4,r5,1011460 <alt_load+0xc4>
 1011418:	00000d06 	br	1011450 <alt_load+0xb4>
 101141c:	00c04034 	movhi	r3,256
 1011420:	18c06204 	addi	r3,r3,392
 1011424:	00bfff04 	movi	r2,-4
 1011428:	1907c83a 	sub	r3,r3,r4
 101142c:	1886703a 	and	r3,r3,r2
 1011430:	0005883a 	mov	r2,zero
  {
    while( to != end )
 1011434:	10fff326 	beq	r2,r3,1011404 <__alt_data_end+0xffff0c04>
 1011438:	114f883a 	add	r7,r2,r5
    {
      *to++ = *from++;
 101143c:	39c00017 	ldw	r7,0(r7)
 1011440:	110d883a 	add	r6,r2,r4
 1011444:	10800104 	addi	r2,r2,4
 1011448:	31c00015 	stw	r7,0(r6)
 101144c:	003ff906 	br	1011434 <__alt_data_end+0xffff0c34>
  
  /*
   * Now ensure that the caches are in synch.
   */
  
  alt_dcache_flush_all();
 1011450:	1011c400 	call	1011c40 <alt_dcache_flush_all>
  alt_icache_flush_all();
}
 1011454:	dfc00017 	ldw	ra,0(sp)
 1011458:	dec00104 	addi	sp,sp,4
  /*
   * Now ensure that the caches are in synch.
   */
  
  alt_dcache_flush_all();
  alt_icache_flush_all();
 101145c:	1011df41 	jmpi	1011df4 <alt_icache_flush_all>
 1011460:	00c04074 	movhi	r3,257
 1011464:	18cac904 	addi	r3,r3,11044
 1011468:	00bfff04 	movi	r2,-4
 101146c:	1907c83a 	sub	r3,r3,r4
 1011470:	1886703a 	and	r3,r3,r2

static void ALT_INLINE alt_load_section (alt_u32* from, 
                                         alt_u32* to, 
                                         alt_u32* end)
{
  if (to != from)
 1011474:	0005883a 	mov	r2,zero
  {
    while( to != end )
 1011478:	10fff526 	beq	r2,r3,1011450 <__alt_data_end+0xffff0c50>
 101147c:	114f883a 	add	r7,r2,r5
    {
      *to++ = *from++;
 1011480:	39c00017 	ldw	r7,0(r7)
 1011484:	110d883a 	add	r6,r2,r4
 1011488:	10800104 	addi	r2,r2,4
 101148c:	31c00015 	stw	r7,0(r6)
 1011490:	003ff906 	br	1011478 <__alt_data_end+0xffff0c78>

01011494 <alt_main>:
 * devices/filesystems/components in the system; and call the entry point for
 * the users application, i.e. main().
 */

void alt_main (void)
{
 1011494:	deffff04 	addi	sp,sp,-4
#endif

  /* ALT LOG - please see HAL/sys/alt_log_printf.h for details */
  ALT_LOG_PRINT_BOOT("[alt_main.c] Entering alt_main, calling alt_irq_init.\r\n");
  /* Initialize the interrupt controller. */
  alt_irq_init (NULL);
 1011498:	0009883a 	mov	r4,zero
 * devices/filesystems/components in the system; and call the entry point for
 * the users application, i.e. main().
 */

void alt_main (void)
{
 101149c:	dfc00015 	stw	ra,0(sp)
#endif

  /* ALT LOG - please see HAL/sys/alt_log_printf.h for details */
  ALT_LOG_PRINT_BOOT("[alt_main.c] Entering alt_main, calling alt_irq_init.\r\n");
  /* Initialize the interrupt controller. */
  alt_irq_init (NULL);
 10114a0:	10115300 	call	1011530 <alt_irq_init>
  ALT_LOG_PRINT_BOOT("[alt_main.c] Done OS Init, calling alt_sem_create.\r\n");
  ALT_SEM_CREATE (&alt_fd_list_lock, 1);

  /* Initialize the device drivers/software components. */
  ALT_LOG_PRINT_BOOT("[alt_main.c] Calling alt_sys_init.\r\n");
  alt_sys_init();
 10114a4:	10115500 	call	1011550 <alt_sys_init>
   */

  ALT_LOG_PRINT_BOOT("[alt_main.c] Calling main.\r\n");

#ifdef ALT_NO_EXIT
  main (alt_argc, alt_argv, alt_envp);
 10114a8:	d1219017 	ldw	r4,-31168(gp)
 10114ac:	d1618f17 	ldw	r5,-31172(gp)
 10114b0:	d1a18e17 	ldw	r6,-31176(gp)
  close(STDOUT_FILENO);
  exit (result);
#endif

  ALT_LOG_PRINT_BOOT("[alt_main.c] After main - we should not be here?.\r\n");
}
 10114b4:	dfc00017 	ldw	ra,0(sp)
 10114b8:	dec00104 	addi	sp,sp,4
   */

  ALT_LOG_PRINT_BOOT("[alt_main.c] Calling main.\r\n");

#ifdef ALT_NO_EXIT
  main (alt_argc, alt_argv, alt_envp);
 10114bc:	10006f81 	jmpi	10006f8 <main>

010114c0 <usleep>:
int ALT_USLEEP (useconds_t us)
#else
unsigned int ALT_USLEEP (unsigned int us)
#endif
{
  return alt_busy_sleep(us);
 10114c0:	1011bc81 	jmpi	1011bc8 <alt_busy_sleep>

010114c4 <write>:
#if !defined(ALT_STDOUT_PRESENT) && !defined(ALT_STDERR_PRESENT)
    /* Generate a link time warning, should this function ever be called. */
    ALT_STUB_WARNING(write);
#endif

    switch (file) {
 10114c4:	00800044 	movi	r2,1
 10114c8:	20800226 	beq	r4,r2,10114d4 <write+0x10>
 10114cc:	00800084 	movi	r2,2
 10114d0:	2080041e 	bne	r4,r2,10114e4 <write+0x20>
    case 1: /* stdout file descriptor */
        return ALT_DRIVER_WRITE(ALT_STDOUT_DEV, ptr, len, 0);
#endif /* ALT_STDOUT_PRESENT */
#ifdef ALT_STDERR_PRESENT
    case 2: /* stderr file descriptor */
        return ALT_DRIVER_WRITE(ALT_STDERR_DEV, ptr, len, 0);
 10114d4:	01004074 	movhi	r4,257
 10114d8:	210c3c04 	addi	r4,r4,12528
 10114dc:	000f883a 	mov	r7,zero
 10114e0:	1011b941 	jmpi	1011b94 <altera_avalon_jtag_uart_write>

extern int errno;

static ALT_INLINE int* alt_get_errno(void)
{
  return ((alt_errno) ? alt_errno() : &errno);
 10114e4:	00804074 	movhi	r2,257
 10114e8:	108c4104 	addi	r2,r2,12548
 10114ec:	10800017 	ldw	r2,0(r2)
 10114f0:	10000926 	beq	r2,zero,1011518 <write+0x54>
 * Provide minimal version that just writes to the stdout/stderr devices
 * when provided.
 */

int ALT_WRITE (int file, const void *ptr, size_t len)
{
 10114f4:	deffff04 	addi	sp,sp,-4
 10114f8:	dfc00015 	stw	ra,0(sp)
 10114fc:	103ee83a 	callr	r2
#ifdef ALT_STDERR_PRESENT
    case 2: /* stderr file descriptor */
        return ALT_DRIVER_WRITE(ALT_STDERR_DEV, ptr, len, 0);
#endif /* ALT_STDERR_PRESENT */
    default:
        ALT_ERRNO = EBADFD;
 1011500:	00c01444 	movi	r3,81
 1011504:	10c00015 	stw	r3,0(r2)
        return -1;
    }
}
 1011508:	00bfffc4 	movi	r2,-1
 101150c:	dfc00017 	ldw	ra,0(sp)
 1011510:	dec00104 	addi	sp,sp,4
 1011514:	f800283a 	ret
 1011518:	00804074 	movhi	r2,257
 101151c:	108dc204 	addi	r2,r2,14088
#ifdef ALT_STDERR_PRESENT
    case 2: /* stderr file descriptor */
        return ALT_DRIVER_WRITE(ALT_STDERR_DEV, ptr, len, 0);
#endif /* ALT_STDERR_PRESENT */
    default:
        ALT_ERRNO = EBADFD;
 1011520:	00c01444 	movi	r3,81
 1011524:	10c00015 	stw	r3,0(r2)
        return -1;
    }
}
 1011528:	00bfffc4 	movi	r2,-1
 101152c:	f800283a 	ret

01011530 <alt_irq_init>:
 * The "base" parameter is ignored and only
 * present for backwards-compatibility.
 */

void alt_irq_init ( const void* base )
{
 1011530:	deffff04 	addi	sp,sp,-4
 1011534:	dfc00015 	stw	ra,0(sp)
    ALTERA_NIOS2_GEN2_IRQ_INIT ( CPU_QSYS_GEN2, cpu_qsys_gen2);
 1011538:	1011f040 	call	1011f04 <altera_nios2_gen2_irq_init>
 * alt_irq_cpu_enable_interrupts() enables the CPU to start taking interrupts.
 */
static ALT_INLINE void ALT_ALWAYS_INLINE 
       alt_irq_cpu_enable_interrupts (void)
{
    NIOS2_WRITE_STATUS(NIOS2_STATUS_PIE_MSK
 101153c:	00800044 	movi	r2,1
 1011540:	1001703a 	wrctl	status,r2
    alt_irq_cpu_enable_interrupts();
}
 1011544:	dfc00017 	ldw	ra,0(sp)
 1011548:	dec00104 	addi	sp,sp,4
 101154c:	f800283a 	ret

01011550 <alt_sys_init>:
 * Initialize the non-interrupt controller devices.
 * Called after alt_irq_init().
 */

void alt_sys_init( void )
{
 1011550:	defffe04 	addi	sp,sp,-8
    ALTERA_AVALON_TIMER_INIT ( TIMER_0, timer_0);
    ALTERA_AVALON_DMA_INIT ( DMA_0, dma_0);
 1011554:	008000c4 	movi	r2,3
 1011558:	01004074 	movhi	r4,257
 101155c:	01404074 	movhi	r5,257
 1011560:	01800134 	movhi	r6,4
 1011564:	d8800015 	stw	r2,0(sp)
 1011568:	210c0604 	addi	r4,r4,12312
 101156c:	294bff04 	addi	r5,r5,12284
 1011570:	31842004 	addi	r6,r6,4224
 1011574:	000f883a 	mov	r7,zero
 * Initialize the non-interrupt controller devices.
 * Called after alt_irq_init().
 */

void alt_sys_init( void )
{
 1011578:	dfc00115 	stw	ra,4(sp)
    ALTERA_AVALON_TIMER_INIT ( TIMER_0, timer_0);
    ALTERA_AVALON_DMA_INIT ( DMA_0, dma_0);
 101157c:	1011afc0 	call	1011afc <alt_avalon_dma_init>
    ALTERA_AVALON_JTAG_UART_INIT ( JTAG_UART_0, jtag_uart_0);
    ALTERA_AVALON_SYSID_QSYS_INIT ( SYSID_QSYS_0, sysid_qsys_0);
}
 1011580:	dfc00117 	ldw	ra,4(sp)
 1011584:	dec00204 	addi	sp,sp,8
 1011588:	f800283a 	ret

0101158c <alt_avalon_dma_irq>:
#ifdef ALT_ENHANCED_INTERRUPT_API_PRESENT
static void alt_avalon_dma_irq (void* context)
#else
static void alt_avalon_dma_irq (void* context, alt_u32 id)
#endif
{
 101158c:	defffa04 	addi	sp,sp,-24
 1011590:	dcc00315 	stw	r19,12(sp)
  alt_u32                rx_start;
  int                    stream_tx;
  int                    stream_rx;
  alt_irq_context        cpu_sr;

  stream_tx = priv->flags & ALT_AVALON_DMA_TX_STREAM;
 1011594:	24c00517 	ldw	r19,20(r4)
#ifdef ALT_ENHANCED_INTERRUPT_API_PRESENT
static void alt_avalon_dma_irq (void* context)
#else
static void alt_avalon_dma_irq (void* context, alt_u32 id)
#endif
{
 1011598:	dc800215 	stw	r18,8(sp)
 101159c:	dc400115 	stw	r17,4(sp)
  alt_irq_context        cpu_sr;

  stream_tx = priv->flags & ALT_AVALON_DMA_TX_STREAM;
  stream_rx = priv->flags & ALT_AVALON_DMA_RX_STREAM;

  tx_start = priv->tx_start;
 10115a0:	24400117 	ldw	r17,4(r4)
  rx_start = priv->rx_start;
 10115a4:	24800317 	ldw	r18,12(r4)
#ifdef ALT_ENHANCED_INTERRUPT_API_PRESENT
static void alt_avalon_dma_irq (void* context)
#else
static void alt_avalon_dma_irq (void* context, alt_u32 id)
#endif
{
 10115a8:	dd000415 	stw	r20,16(sp)
 10115ac:	dc000015 	stw	r16,0(sp)
  alt_u32                rx_start;
  int                    stream_tx;
  int                    stream_rx;
  alt_irq_context        cpu_sr;

  stream_tx = priv->flags & ALT_AVALON_DMA_TX_STREAM;
 10115b0:	9d00080c 	andi	r20,r19,32
#ifdef ALT_ENHANCED_INTERRUPT_API_PRESENT
static void alt_avalon_dma_irq (void* context)
#else
static void alt_avalon_dma_irq (void* context, alt_u32 id)
#endif
{
 10115b4:	dfc00515 	stw	ra,20(sp)
 10115b8:	2021883a 	mov	r16,r4
  int                    stream_tx;
  int                    stream_rx;
  alt_irq_context        cpu_sr;

  stream_tx = priv->flags & ALT_AVALON_DMA_TX_STREAM;
  stream_rx = priv->flags & ALT_AVALON_DMA_RX_STREAM;
 10115bc:	9cc0100c 	andi	r19,r19,64
  tx_slot = &priv->tx_buf[tx_start];
  rx_slot = &priv->rx_buf[rx_start];

  /* Increment the descriptors */

  if (!stream_tx)
 10115c0:	a000081e 	bne	r20,zero,10115e4 <alt_avalon_dma_irq+0x58>
  {
    priv->tx_start = (tx_start + 1) & ALT_AVALON_DMA_NSLOTS_MSK;
 10115c4:	88800044 	addi	r2,r17,1
 10115c8:	108000cc 	andi	r2,r2,3
 10115cc:	20800115 	stw	r2,4(r4)
  }
  if (!stream_rx)
 10115d0:	98002c1e 	bne	r19,zero,1011684 <alt_avalon_dma_irq+0xf8>
  {
    priv->rx_start = (rx_start + 1) & ALT_AVALON_DMA_NSLOTS_MSK;
 10115d4:	90800044 	addi	r2,r18,1
 10115d8:	108000cc 	andi	r2,r2,3
 10115dc:	80800315 	stw	r2,12(r16)
 10115e0:	00000106 	br	10115e8 <alt_avalon_dma_irq+0x5c>

  if (!stream_tx)
  {
    priv->tx_start = (tx_start + 1) & ALT_AVALON_DMA_NSLOTS_MSK;
  }
  if (!stream_rx)
 10115e4:	983ffb26 	beq	r19,zero,10115d4 <__alt_data_end+0xffff0dd4>
    priv->rx_start = (rx_start + 1) & ALT_AVALON_DMA_NSLOTS_MSK;
  }

  /* clear the interrupt */

  IOWR_ALTERA_AVALON_DMA_STATUS (priv->base, 0);
 10115e8:	80800017 	ldw	r2,0(r16)
 10115ec:	10000035 	stwio	zero,0(r2)
  
  /* Dummy read to ensure IRQ is cleared prior to ISR completion*/
  IORD_ALTERA_AVALON_DMA_STATUS (priv->base);
 10115f0:	80800017 	ldw	r2,0(r16)
 10115f4:	10800037 	ldwio	r2,0(r2)

  /* launch the next transaction */

  priv->launch (priv);
 10115f8:	80800717 	ldw	r2,28(r16)
 10115fc:	8009883a 	mov	r4,r16
 1011600:	103ee83a 	callr	r2
   * Other interrupts are explicitly disabled if callbacks
   * are registered because there is no guarantee that they are 
   * preemption-safe. This allows the DMA driver to support 
   * interrupt preemption.
   */
  if (!stream_tx && tx_slot->done)
 1011604:	a0000e1e 	bne	r20,zero,1011640 <alt_avalon_dma_irq+0xb4>
 1011608:	8804913a 	slli	r2,r17,4
 101160c:	8085883a 	add	r2,r16,r2
 1011610:	10c00b17 	ldw	r3,44(r2)
 1011614:	18000a26 	beq	r3,zero,1011640 <alt_avalon_dma_irq+0xb4>
static ALT_INLINE alt_irq_context ALT_ALWAYS_INLINE 
       alt_irq_disable_all (void)
{
  alt_irq_context context;

  NIOS2_READ_STATUS (context);
 1011618:	0029303a 	rdctl	r20,status

  NIOS2_WRITE_STATUS (context & ~NIOS2_STATUS_PIE_MSK);
 101161c:	00bfff84 	movi	r2,-2
 1011620:	a084703a 	and	r2,r20,r2
 1011624:	1001703a 	wrctl	status,r2
  {
    cpu_sr = alt_irq_disable_all();
    tx_slot->done (tx_slot->handle);
 1011628:	8c4000c4 	addi	r17,r17,3
 101162c:	8822913a 	slli	r17,r17,4
 1011630:	8463883a 	add	r17,r16,r17
 1011634:	89000017 	ldw	r4,0(r17)
 1011638:	183ee83a 	callr	r3
  status &= ~NIOS2_STATUS_PIE_MSK;
  status |= (context & NIOS2_STATUS_PIE_MSK);
  
  NIOS2_WRITE_STATUS (status);
#else
  NIOS2_WRITE_STATUS (context);
 101163c:	a001703a 	wrctl	status,r20
    alt_irq_enable_all(cpu_sr);
    
  }
  if (!stream_rx && rx_slot->done)
 1011640:	9800171e 	bne	r19,zero,10116a0 <alt_avalon_dma_irq+0x114>
 1011644:	9006913a 	slli	r3,r18,4
 1011648:	80c7883a 	add	r3,r16,r3
 101164c:	19801b17 	ldw	r6,108(r3)
 1011650:	30001326 	beq	r6,zero,10116a0 <alt_avalon_dma_irq+0x114>
static ALT_INLINE alt_irq_context ALT_ALWAYS_INLINE 
       alt_irq_disable_all (void)
{
  alt_irq_context context;

  NIOS2_READ_STATUS (context);
 1011654:	0023303a 	rdctl	r17,status

  NIOS2_WRITE_STATUS (context & ~NIOS2_STATUS_PIE_MSK);
 1011658:	00bfff84 	movi	r2,-2
 101165c:	8884703a 	and	r2,r17,r2
 1011660:	1001703a 	wrctl	status,r2
  {
    cpu_sr = alt_irq_disable_all();
    rx_slot->done (rx_slot->handle, rx_slot->data);
 1011664:	908001c4 	addi	r2,r18,7
 1011668:	1004913a 	slli	r2,r2,4
 101166c:	19401917 	ldw	r5,100(r3)
 1011670:	80a1883a 	add	r16,r16,r2
 1011674:	81000017 	ldw	r4,0(r16)
 1011678:	303ee83a 	callr	r6
  status &= ~NIOS2_STATUS_PIE_MSK;
  status |= (context & NIOS2_STATUS_PIE_MSK);
  
  NIOS2_WRITE_STATUS (status);
#else
  NIOS2_WRITE_STATUS (context);
 101167c:	8801703a 	wrctl	status,r17
 1011680:	00000706 	br	10116a0 <alt_avalon_dma_irq+0x114>
    priv->rx_start = (rx_start + 1) & ALT_AVALON_DMA_NSLOTS_MSK;
  }

  /* clear the interrupt */

  IOWR_ALTERA_AVALON_DMA_STATUS (priv->base, 0);
 1011684:	20800017 	ldw	r2,0(r4)
 1011688:	10000035 	stwio	zero,0(r2)
  
  /* Dummy read to ensure IRQ is cleared prior to ISR completion*/
  IORD_ALTERA_AVALON_DMA_STATUS (priv->base);
 101168c:	20800017 	ldw	r2,0(r4)
 1011690:	10800037 	ldwio	r2,0(r2)

  /* launch the next transaction */

  priv->launch (priv);
 1011694:	20800717 	ldw	r2,28(r4)
 1011698:	103ee83a 	callr	r2
 101169c:	003fda06 	br	1011608 <__alt_data_end+0xffff0e08>
  {
    cpu_sr = alt_irq_disable_all();
    rx_slot->done (rx_slot->handle, rx_slot->data);
    alt_irq_enable_all(cpu_sr);
  }
}
 10116a0:	dfc00517 	ldw	ra,20(sp)
 10116a4:	dd000417 	ldw	r20,16(sp)
 10116a8:	dcc00317 	ldw	r19,12(sp)
 10116ac:	dc800217 	ldw	r18,8(sp)
 10116b0:	dc400117 	ldw	r17,4(sp)
 10116b4:	dc000017 	ldw	r16,0(sp)
 10116b8:	dec00604 	addi	sp,sp,24
 10116bc:	f800283a 	ret

010116c0 <alt_avalon_dma_launch_bidir>:
void alt_avalon_dma_launch_bidir (alt_avalon_dma_priv* priv)
{
  alt_avalon_dma_txslot* tx_slot;
  alt_avalon_dma_rxslot* rx_slot;

  if ((priv->tx_start != priv->tx_end) && (priv->rx_start != priv->rx_end))
 10116c0:	20c00117 	ldw	r3,4(r4)
 10116c4:	20800217 	ldw	r2,8(r4)
 10116c8:	18801926 	beq	r3,r2,1011730 <alt_avalon_dma_launch_bidir+0x70>
 10116cc:	20c00317 	ldw	r3,12(r4)
 10116d0:	20800417 	ldw	r2,16(r4)
 10116d4:	18801626 	beq	r3,r2,1011730 <alt_avalon_dma_launch_bidir+0x70>
  {
    priv->active = 1;

    tx_slot = &priv->tx_buf[priv->tx_start];
 10116d8:	20c00117 	ldw	r3,4(r4)
  alt_avalon_dma_txslot* tx_slot;
  alt_avalon_dma_rxslot* rx_slot;

  if ((priv->tx_start != priv->tx_end) && (priv->rx_start != priv->rx_end))
  {
    priv->active = 1;
 10116dc:	00800044 	movi	r2,1
 10116e0:	20800815 	stw	r2,32(r4)

    tx_slot = &priv->tx_buf[priv->tx_start];
    rx_slot = &priv->rx_buf[priv->rx_start];

    IOWR_ALTERA_AVALON_DMA_RADDRESS (priv->base, (alt_u32) tx_slot->from);
 10116e4:	1806913a 	slli	r3,r3,4
  if ((priv->tx_start != priv->tx_end) && (priv->rx_start != priv->rx_end))
  {
    priv->active = 1;

    tx_slot = &priv->tx_buf[priv->tx_start];
    rx_slot = &priv->rx_buf[priv->rx_start];
 10116e8:	20800317 	ldw	r2,12(r4)

    IOWR_ALTERA_AVALON_DMA_RADDRESS (priv->base, (alt_u32) tx_slot->from);
 10116ec:	21400017 	ldw	r5,0(r4)
 10116f0:	20c7883a 	add	r3,r4,r3
 10116f4:	19800917 	ldw	r6,36(r3)
 10116f8:	29800135 	stwio	r6,4(r5)
    IOWR_ALTERA_AVALON_DMA_WADDRESS (priv->base, (alt_u32) rx_slot->data);
 10116fc:	1004913a 	slli	r2,r2,4
 1011700:	21400017 	ldw	r5,0(r4)
 1011704:	2085883a 	add	r2,r4,r2
 1011708:	11801917 	ldw	r6,100(r2)
 101170c:	29800235 	stwio	r6,8(r5)

    IOWR_ALTERA_AVALON_DMA_LENGTH (priv->base,
 1011710:	21000017 	ldw	r4,0(r4)
 1011714:	18c00a17 	ldw	r3,40(r3)
 1011718:	10801a17 	ldw	r2,104(r2)
 101171c:	21000304 	addi	r4,r4,12
 1011720:	1880012e 	bgeu	r3,r2,1011728 <alt_avalon_dma_launch_bidir+0x68>
 1011724:	1805883a 	mov	r2,r3
 1011728:	20800035 	stwio	r2,0(r4)
 101172c:	f800283a 	ret
       (tx_slot->len > rx_slot->len) ? rx_slot->len : tx_slot->len);
  }
  else
  {
    priv->active = 0;
 1011730:	20000815 	stw	zero,32(r4)
 1011734:	f800283a 	ret

01011738 <alt_avalon_dma_launch_txonly>:

static void alt_avalon_dma_launch_txonly (alt_avalon_dma_priv* priv)
{
  alt_avalon_dma_txslot* tx_slot;

  if (priv->tx_start != priv->tx_end)
 1011738:	20c00117 	ldw	r3,4(r4)
 101173c:	20800217 	ldw	r2,8(r4)
 1011740:	18800c26 	beq	r3,r2,1011774 <alt_avalon_dma_launch_txonly+0x3c>
  {
    priv->active = 1;
 1011744:	00800044 	movi	r2,1
 1011748:	20800815 	stw	r2,32(r4)
    tx_slot      = &priv->tx_buf[priv->tx_start];
 101174c:	20800117 	ldw	r2,4(r4)

    IOWR_ALTERA_AVALON_DMA_RADDRESS (priv->base, (alt_u32) tx_slot->from);
 1011750:	20c00017 	ldw	r3,0(r4)
 1011754:	1004913a 	slli	r2,r2,4
 1011758:	2085883a 	add	r2,r4,r2
 101175c:	11400917 	ldw	r5,36(r2)
 1011760:	19400135 	stwio	r5,4(r3)
    IOWR_ALTERA_AVALON_DMA_LENGTH (priv->base, tx_slot->len);
 1011764:	20c00017 	ldw	r3,0(r4)
 1011768:	10800a17 	ldw	r2,40(r2)
 101176c:	18800335 	stwio	r2,12(r3)
 1011770:	f800283a 	ret
  }
  else
  {
    priv->active = 0;
 1011774:	20000815 	stw	zero,32(r4)
 1011778:	f800283a 	ret

0101177c <alt_avalon_dma_launch_rxonly>:

static void alt_avalon_dma_launch_rxonly (alt_avalon_dma_priv* priv)
{
  alt_avalon_dma_rxslot* rx_slot;

  if (priv->rx_start != priv->rx_end)
 101177c:	20c00317 	ldw	r3,12(r4)
 1011780:	20800417 	ldw	r2,16(r4)
 1011784:	18800c26 	beq	r3,r2,10117b8 <alt_avalon_dma_launch_rxonly+0x3c>
  {
    priv->active = 1;
 1011788:	00800044 	movi	r2,1
 101178c:	20800815 	stw	r2,32(r4)
    rx_slot      = &priv->rx_buf[priv->rx_start];
 1011790:	20800317 	ldw	r2,12(r4)

    IOWR_ALTERA_AVALON_DMA_WADDRESS (priv->base, (alt_u32) rx_slot->data);
 1011794:	20c00017 	ldw	r3,0(r4)
 1011798:	1004913a 	slli	r2,r2,4
 101179c:	2085883a 	add	r2,r4,r2
 10117a0:	11401917 	ldw	r5,100(r2)
 10117a4:	19400235 	stwio	r5,8(r3)
    IOWR_ALTERA_AVALON_DMA_LENGTH (priv->base, rx_slot->len);
 10117a8:	20c00017 	ldw	r3,0(r4)
 10117ac:	10801a17 	ldw	r2,104(r2)
 10117b0:	18800335 	stwio	r2,12(r3)
 10117b4:	f800283a 	ret
  }
  else
  {
    priv->active = 0;
 10117b8:	20000815 	stw	zero,32(r4)
 10117bc:	f800283a 	ret

010117c0 <alt_avalon_dma_ioctl>:
   * since it cannot catch concurrent calls to alt_alavalon_dma_prepare()
   * or alt_avalon_dma_send(), but it should at least catch the most
   * common class of problems.
   */

  if ((priv->tx_start != priv->tx_end) ||
 10117c0:	20c00117 	ldw	r3,4(r4)
 10117c4:	20800217 	ldw	r2,8(r4)
 10117c8:	1880691e 	bne	r3,r2,1011970 <alt_avalon_dma_ioctl+0x1b0>
      (priv->rx_start != priv->rx_end) ||
 10117cc:	20c00317 	ldw	r3,12(r4)
   * since it cannot catch concurrent calls to alt_alavalon_dma_prepare()
   * or alt_avalon_dma_send(), but it should at least catch the most
   * common class of problems.
   */

  if ((priv->tx_start != priv->tx_end) ||
 10117d0:	20800417 	ldw	r2,16(r4)
 10117d4:	1880661e 	bne	r3,r2,1011970 <alt_avalon_dma_ioctl+0x1b0>
      (priv->rx_start != priv->rx_end) ||
      IORD_ALTERA_AVALON_DMA_LENGTH (priv->base))
 10117d8:	20800017 	ldw	r2,0(r4)
 10117dc:	10800337 	ldwio	r2,12(r2)
   * or alt_avalon_dma_send(), but it should at least catch the most
   * common class of problems.
   */

  if ((priv->tx_start != priv->tx_end) ||
      (priv->rx_start != priv->rx_end) ||
 10117e0:	1000631e 	bne	r2,zero,1011970 <alt_avalon_dma_ioctl+0x1b0>
    return -EIO;
  }

  /* Now process the ioctl. */

  switch (req)
 10117e4:	297fffc4 	addi	r5,r5,-1
 10117e8:	00c00204 	movi	r3,8
 10117ec:	19405e36 	bltu	r3,r5,1011968 <alt_avalon_dma_ioctl+0x1a8>
 10117f0:	280a90ba 	slli	r5,r5,2
 10117f4:	00c04074 	movhi	r3,257
 10117f8:	18c60204 	addi	r3,r3,6152
 10117fc:	28cb883a 	add	r5,r5,r3
 1011800:	28c00017 	ldw	r3,0(r5)
 1011804:	1800683a 	jmp	r3
 1011808:	0101182c 	andhi	r4,zero,1120
 101180c:	01011858 	cmpnei	r4,zero,1121
 1011810:	01011864 	muli	r4,zero,1121
 1011814:	01011890 	cmplti	r4,zero,1122
 1011818:	010118b0 	cmpltui	r4,zero,1122
 101181c:	010118c0 	call	10118c <__reset-0xefee74>
 1011820:	010118d4 	movui	r4,1123
 1011824:	010118e8 	cmpgeui	r4,zero,1123
 1011828:	010118fc 	xorhi	r4,zero,1123
  {
  case ALT_DMA_TX_STREAM_ON:
    if (!(priv->flags & ALT_AVALON_DMA_RX_STREAM))
 101182c:	20c00517 	ldw	r3,20(r4)
 1011830:	18c0100c 	andi	r3,r3,64
 1011834:	18004e1e 	bne	r3,zero,1011970 <alt_avalon_dma_ioctl+0x1b0>
    {
      IOWR_ALTERA_AVALON_DMA_RADDRESS (priv->base, (alt_u32) arg);
 1011838:	20c00017 	ldw	r3,0(r4)
 101183c:	19800135 	stwio	r6,4(r3)
      priv->flags |= ALT_AVALON_DMA_TX_STREAM;
 1011840:	20c00517 	ldw	r3,20(r4)
 1011844:	18c00814 	ori	r3,r3,32
 1011848:	20c00515 	stw	r3,20(r4)
      priv->launch = alt_avalon_dma_launch_rxonly;
 101184c:	00c04074 	movhi	r3,257
 1011850:	18c5df04 	addi	r3,r3,6012
 1011854:	00001406 	br	10118a8 <alt_avalon_dma_ioctl+0xe8>
    {
      status = -EIO;
    }
    break;
  case ALT_DMA_TX_STREAM_OFF:
    priv->flags &= ~ALT_AVALON_DMA_TX_STREAM;
 1011858:	21400517 	ldw	r5,20(r4)
 101185c:	00fff7c4 	movi	r3,-33
 1011860:	00000d06 	br	1011898 <alt_avalon_dma_ioctl+0xd8>
    priv->launch = alt_avalon_dma_launch_bidir;
    break;
  case ALT_DMA_RX_STREAM_ON:
    if (!(priv->flags & ALT_AVALON_DMA_TX_STREAM))
 1011864:	20c00517 	ldw	r3,20(r4)
 1011868:	18c0080c 	andi	r3,r3,32
 101186c:	1800401e 	bne	r3,zero,1011970 <alt_avalon_dma_ioctl+0x1b0>
    {
      IOWR_ALTERA_AVALON_DMA_WADDRESS (priv->base, (alt_u32) arg);
 1011870:	20c00017 	ldw	r3,0(r4)
 1011874:	19800235 	stwio	r6,8(r3)
      priv->flags |= ALT_AVALON_DMA_RX_STREAM;
 1011878:	20c00517 	ldw	r3,20(r4)
 101187c:	18c01014 	ori	r3,r3,64
 1011880:	20c00515 	stw	r3,20(r4)
      priv->launch = alt_avalon_dma_launch_txonly;
 1011884:	00c04074 	movhi	r3,257
 1011888:	18c5ce04 	addi	r3,r3,5944
 101188c:	00000606 	br	10118a8 <alt_avalon_dma_ioctl+0xe8>
    {
      status = -EIO;
    }
    break;
  case ALT_DMA_RX_STREAM_OFF:
    priv->flags &= ~ALT_AVALON_DMA_RX_STREAM;
 1011890:	21400517 	ldw	r5,20(r4)
 1011894:	00ffefc4 	movi	r3,-65
 1011898:	28c6703a 	and	r3,r5,r3
 101189c:	20c00515 	stw	r3,20(r4)
    priv->launch = alt_avalon_dma_launch_bidir;
 10118a0:	00c04074 	movhi	r3,257
 10118a4:	18c5b004 	addi	r3,r3,5824
 10118a8:	20c00715 	stw	r3,28(r4)
 10118ac:	00001606 	br	1011908 <alt_avalon_dma_ioctl+0x148>
    break;
  case ALT_DMA_SET_MODE_8:
    priv->flags = (priv->flags & ~ALT_AVALON_DMA_MODE_MSK) |
 10118b0:	21400517 	ldw	r5,20(r4)
 10118b4:	00fffc04 	movi	r3,-16
 10118b8:	28c6703a 	and	r3,r5,r3
 10118bc:	00001106 	br	1011904 <alt_avalon_dma_ioctl+0x144>
      ALT_AVALON_DMA_MODE_8;
    break;
  case ALT_DMA_SET_MODE_16:
    priv->flags = (priv->flags & ~ALT_AVALON_DMA_MODE_MSK) |
 10118c0:	21400517 	ldw	r5,20(r4)
 10118c4:	00fffc04 	movi	r3,-16
 10118c8:	28c6703a 	and	r3,r5,r3
 10118cc:	18c00054 	ori	r3,r3,1
 10118d0:	00000c06 	br	1011904 <alt_avalon_dma_ioctl+0x144>
      ALT_AVALON_DMA_MODE_16;
    break;
  case ALT_DMA_SET_MODE_32:
    priv->flags = (priv->flags & ~ALT_AVALON_DMA_MODE_MSK) |
 10118d4:	21400517 	ldw	r5,20(r4)
 10118d8:	00fffc04 	movi	r3,-16
 10118dc:	28c6703a 	and	r3,r5,r3
 10118e0:	18c000d4 	ori	r3,r3,3
 10118e4:	00000706 	br	1011904 <alt_avalon_dma_ioctl+0x144>
      ALT_AVALON_DMA_MODE_32;
    break;
  case ALT_DMA_SET_MODE_64:
    priv->flags = (priv->flags & ~ALT_AVALON_DMA_MODE_MSK) |
 10118e8:	21400517 	ldw	r5,20(r4)
 10118ec:	00fffc04 	movi	r3,-16
 10118f0:	28c6703a 	and	r3,r5,r3
 10118f4:	18c001d4 	ori	r3,r3,7
 10118f8:	00000206 	br	1011904 <alt_avalon_dma_ioctl+0x144>
      ALT_AVALON_DMA_MODE_64;
    break;
  case ALT_DMA_SET_MODE_128:
    priv->flags = (priv->flags & ~ALT_AVALON_DMA_MODE_MSK) |
 10118fc:	20c00517 	ldw	r3,20(r4)
 1011900:	18c003d4 	ori	r3,r3,15
 1011904:	20c00515 	stw	r3,20(r4)
    status = -ENOTTY;
  }

  if (!status)
  {
     switch (priv->flags & ALT_AVALON_DMA_MODE_MSK)
 1011908:	21400517 	ldw	r5,20(r4)
 101190c:	018001c4 	movi	r6,7
 1011910:	28c003cc 	andi	r3,r5,15
 1011914:	30c01236 	bltu	r6,r3,1011960 <alt_avalon_dma_ioctl+0x1a0>
 1011918:	01804074 	movhi	r6,257
 101191c:	18c7883a 	add	r3,r3,r3
 1011920:	318ac504 	addi	r6,r6,11028
 1011924:	30c7883a 	add	r3,r6,r3
 1011928:	18c0000b 	ldhu	r3,0(r3)
       break;
     default:
       mode = ALTERA_AVALON_DMA_CONTROL_QWORD_MSK;
     }

    if (priv->flags & ALT_AVALON_DMA_TX_STREAM)
 101192c:	2980080c 	andi	r6,r5,32
 1011930:	30000326 	beq	r6,zero,1011940 <alt_avalon_dma_ioctl+0x180>
    {
      IOWR_ALTERA_AVALON_DMA_CONTROL (priv->base,
 1011934:	21000017 	ldw	r4,0(r4)
 1011938:	18c07e14 	ori	r3,r3,504
 101193c:	00000606 	br	1011958 <alt_avalon_dma_ioctl+0x198>
        ALTERA_AVALON_DMA_CONTROL_REEN_MSK |
        ALTERA_AVALON_DMA_CONTROL_WEEN_MSK |
        ALTERA_AVALON_DMA_CONTROL_LEEN_MSK |
        ALTERA_AVALON_DMA_CONTROL_RCON_MSK);
    }
    else if (priv->flags & ALT_AVALON_DMA_RX_STREAM)
 1011940:	2940100c 	andi	r5,r5,64
    {
      IOWR_ALTERA_AVALON_DMA_CONTROL (priv->base,
 1011944:	21000017 	ldw	r4,0(r4)
        ALTERA_AVALON_DMA_CONTROL_REEN_MSK |
        ALTERA_AVALON_DMA_CONTROL_WEEN_MSK |
        ALTERA_AVALON_DMA_CONTROL_LEEN_MSK |
        ALTERA_AVALON_DMA_CONTROL_RCON_MSK);
    }
    else if (priv->flags & ALT_AVALON_DMA_RX_STREAM)
 1011948:	28000226 	beq	r5,zero,1011954 <alt_avalon_dma_ioctl+0x194>
    {
      IOWR_ALTERA_AVALON_DMA_CONTROL (priv->base,
 101194c:	18c0be14 	ori	r3,r3,760
 1011950:	00000106 	br	1011958 <alt_avalon_dma_ioctl+0x198>
        ALTERA_AVALON_DMA_CONTROL_LEEN_MSK |
        ALTERA_AVALON_DMA_CONTROL_WCON_MSK);
    }
    else
    {
      IOWR_ALTERA_AVALON_DMA_CONTROL (priv->base,
 1011954:	18c03e14 	ori	r3,r3,248
 1011958:	20c00635 	stwio	r3,24(r4)
 101195c:	f800283a 	ret
    status = -ENOTTY;
  }

  if (!status)
  {
     switch (priv->flags & ALT_AVALON_DMA_MODE_MSK)
 1011960:	00c20004 	movi	r3,2048
 1011964:	003ff106 	br	101192c <__alt_data_end+0xffff112c>
  case ALT_DMA_SET_MODE_128:
    priv->flags = (priv->flags & ~ALT_AVALON_DMA_MODE_MSK) |
      ALT_AVALON_DMA_MODE_128;
    break;
  default:
    status = -ENOTTY;
 1011968:	00bff9c4 	movi	r2,-25
 101196c:	f800283a 	ret
      priv->flags |= ALT_AVALON_DMA_TX_STREAM;
      priv->launch = alt_avalon_dma_launch_rxonly;
    }
    else
    {
      status = -EIO;
 1011970:	00bffec4 	movi	r2,-5
        ALTERA_AVALON_DMA_CONTROL_LEEN_MSK);
    }
  }

  return status;
}
 1011974:	f800283a 	ret

01011978 <alt_avalon_dma_tx_ioctl>:

int alt_avalon_dma_tx_ioctl (alt_dma_txchan dma,
           int req,
           void* arg)
{
  return alt_avalon_dma_ioctl (((alt_avalon_dma_txchan*) dma)->priv,
 1011978:	21000617 	ldw	r4,24(r4)
 101197c:	10117c01 	jmpi	10117c0 <alt_avalon_dma_ioctl>

01011980 <alt_avalon_dma_rx_ioctl>:

int alt_avalon_dma_rx_ioctl (alt_dma_rxchan dma,
           int req,
           void* arg)
{
  return alt_avalon_dma_ioctl (((alt_avalon_dma_rxchan*) dma)->priv,
 1011980:	21000617 	ldw	r4,24(r4)
 1011984:	10117c01 	jmpi	10117c0 <alt_avalon_dma_ioctl>

01011988 <alt_avalon_dma_prepare>:
  alt_u32                end;
  alt_u32                next;
  alt_u32                align_mask;
  alt_avalon_dma_priv*   priv;

  priv = ((alt_avalon_dma_rxchan*) dma)->priv;
 1011988:	21000617 	ldw	r4,24(r4)
int alt_avalon_dma_prepare (alt_dma_rxchan   dma,
                            void*            data,
                            alt_u32          len,
                            alt_rxchan_done* done,
                            void*            handle)
{
 101198c:	defffe04 	addi	sp,sp,-8
 1011990:	dfc00115 	stw	ra,4(sp)
  /*
   * Ensure that the data is correctly aligned, and that it's not too
   * big for the device.
   */

  align_mask = priv->flags & ALT_AVALON_DMA_MODE_MSK;
 1011994:	20800517 	ldw	r2,20(r4)
int alt_avalon_dma_prepare (alt_dma_rxchan   dma,
                            void*            data,
                            alt_u32          len,
                            alt_rxchan_done* done,
                            void*            handle)
{
 1011998:	dc000015 	stw	r16,0(sp)
  /*
   * Ensure that the data is correctly aligned, and that it's not too
   * big for the device.
   */

  align_mask = priv->flags & ALT_AVALON_DMA_MODE_MSK;
 101199c:	10c003cc 	andi	r3,r2,15
 10119a0:	2984b03a 	or	r2,r5,r6
 10119a4:	1884703a 	and	r2,r3,r2

  if ((((alt_u32) data) & align_mask) || (len & align_mask) ||
 10119a8:	1000171e 	bne	r2,zero,1011a08 <alt_avalon_dma_prepare+0x80>
 10119ac:	20800617 	ldw	r2,24(r4)
 10119b0:	11801536 	bltu	r2,r6,1011a08 <alt_avalon_dma_prepare+0x80>
  {
    return -EINVAL;
  }

  start = priv->rx_start;
  end   = priv->rx_end;
 10119b4:	20800417 	ldw	r2,16(r4)
     (len > priv->max_length))
  {
    return -EINVAL;
  }

  start = priv->rx_start;
 10119b8:	20c00317 	ldw	r3,12(r4)
  end   = priv->rx_end;
  slot  = &priv->rx_buf[end];

  next  = (end + 1) & ALT_AVALON_DMA_NSLOTS_MSK;
 10119bc:	12000044 	addi	r8,r2,1
 10119c0:	420000cc 	andi	r8,r8,3

  if (next == start)
 10119c4:	40c01226 	beq	r8,r3,1011a10 <alt_avalon_dma_prepare+0x88>
  {
    return -ENOSPC;
  }

  slot->data   = data;
 10119c8:	1006913a 	slli	r3,r2,4
  slot->len    = len;
  slot->done   = done;
  slot->handle = handle;
 10119cc:	108001c4 	addi	r2,r2,7
 10119d0:	1004913a 	slli	r2,r2,4
  if (next == start)
  {
    return -ENOSPC;
  }

  slot->data   = data;
 10119d4:	20c7883a 	add	r3,r4,r3
 10119d8:	19401915 	stw	r5,100(r3)
  slot->len    = len;
 10119dc:	19801a15 	stw	r6,104(r3)
  slot->done   = done;
 10119e0:	19c01b15 	stw	r7,108(r3)
  slot->handle = handle;
 10119e4:	d8c00217 	ldw	r3,8(sp)
 10119e8:	2085883a 	add	r2,r4,r2

  priv->rx_end = next;

  if (!priv->active)
 10119ec:	24000817 	ldw	r16,32(r4)
  }

  slot->data   = data;
  slot->len    = len;
  slot->done   = done;
  slot->handle = handle;
 10119f0:	10c00015 	stw	r3,0(r2)

  priv->rx_end = next;
 10119f4:	22000415 	stw	r8,16(r4)

  if (!priv->active)
 10119f8:	8000071e 	bne	r16,zero,1011a18 <alt_avalon_dma_prepare+0x90>
  {
    priv->launch (priv);
 10119fc:	20800717 	ldw	r2,28(r4)
 1011a00:	103ee83a 	callr	r2
 1011a04:	00000506 	br	1011a1c <alt_avalon_dma_prepare+0x94>
  align_mask = priv->flags & ALT_AVALON_DMA_MODE_MSK;

  if ((((alt_u32) data) & align_mask) || (len & align_mask) ||
     (len > priv->max_length))
  {
    return -EINVAL;
 1011a08:	043ffa84 	movi	r16,-22
 1011a0c:	00000306 	br	1011a1c <alt_avalon_dma_prepare+0x94>

  next  = (end + 1) & ALT_AVALON_DMA_NSLOTS_MSK;

  if (next == start)
  {
    return -ENOSPC;
 1011a10:	043ff904 	movi	r16,-28
 1011a14:	00000106 	br	1011a1c <alt_avalon_dma_prepare+0x94>
  if (!priv->active)
  {
    priv->launch (priv);
  }

  return 0;
 1011a18:	0021883a 	mov	r16,zero
}
 1011a1c:	8005883a 	mov	r2,r16
 1011a20:	dfc00117 	ldw	ra,4(sp)
 1011a24:	dc000017 	ldw	r16,0(sp)
 1011a28:	dec00204 	addi	sp,sp,8
 1011a2c:	f800283a 	ret

01011a30 <alt_avalon_dma_space>:
  alt_avalon_dma_priv* priv;

  alt_u32 start;
  alt_u32 end;

  priv = ((alt_avalon_dma_txchan*) dma)->priv;
 1011a30:	20800617 	ldw	r2,24(r4)

  start = priv->tx_start;
 1011a34:	10c00117 	ldw	r3,4(r2)
  end   = priv->tx_end;
 1011a38:	10800217 	ldw	r2,8(r2)

  return (start > end) ? start - end - 1 :
 1011a3c:	10c0022e 	bgeu	r2,r3,1011a48 <alt_avalon_dma_space+0x18>
 1011a40:	18ffffc4 	addi	r3,r3,-1
 1011a44:	00000106 	br	1011a4c <alt_avalon_dma_space+0x1c>
 1011a48:	18c000c4 	addi	r3,r3,3
    ALT_AVALON_DMA_NSLOTS + start - end - 1;
 1011a4c:	1885c83a 	sub	r2,r3,r2
}
 1011a50:	f800283a 	ret

01011a54 <alt_avalon_dma_send>:
  alt_u32                end;
  alt_u32                align_mask;
  alt_u32                next;
  alt_avalon_dma_priv*   priv;

  priv = ((alt_avalon_dma_txchan*) dma)->priv;
 1011a54:	21000617 	ldw	r4,24(r4)
int alt_avalon_dma_send (alt_dma_txchan   dma,
                         const void*      from,
                         alt_u32          len,
                         alt_txchan_done* done,
                         void*            handle)
{
 1011a58:	defffe04 	addi	sp,sp,-8
 1011a5c:	dfc00115 	stw	ra,4(sp)
  /*
   * Ensure that the data is correctly aligned, and not too large
   * for the device
   */

  align_mask = priv->flags & ALT_AVALON_DMA_MODE_MSK;
 1011a60:	20800517 	ldw	r2,20(r4)
int alt_avalon_dma_send (alt_dma_txchan   dma,
                         const void*      from,
                         alt_u32          len,
                         alt_txchan_done* done,
                         void*            handle)
{
 1011a64:	dc000015 	stw	r16,0(sp)
  /*
   * Ensure that the data is correctly aligned, and not too large
   * for the device
   */

  align_mask = priv->flags & ALT_AVALON_DMA_MODE_MSK;
 1011a68:	10c003cc 	andi	r3,r2,15
 1011a6c:	2984b03a 	or	r2,r5,r6
 1011a70:	1884703a 	and	r2,r3,r2

  if ((((alt_u32) from) & align_mask) ||
 1011a74:	1000171e 	bne	r2,zero,1011ad4 <alt_avalon_dma_send+0x80>
        (len & align_mask)            ||
 1011a78:	20800617 	ldw	r2,24(r4)
 1011a7c:	11801536 	bltu	r2,r6,1011ad4 <alt_avalon_dma_send+0x80>
  {
    return -EINVAL;
  }

  start = priv->tx_start;
  end   = priv->tx_end;
 1011a80:	20800217 	ldw	r2,8(r4)
        (len > priv->max_length))
  {
    return -EINVAL;
  }

  start = priv->tx_start;
 1011a84:	20c00117 	ldw	r3,4(r4)
  end   = priv->tx_end;
  slot  = &priv->tx_buf[end];
  next  = (end + 1) & ALT_AVALON_DMA_NSLOTS_MSK;
 1011a88:	12000044 	addi	r8,r2,1
 1011a8c:	420000cc 	andi	r8,r8,3

  if (next == start)
 1011a90:	40c01226 	beq	r8,r3,1011adc <alt_avalon_dma_send+0x88>
    return -ENOSPC;
  }

  /* Fill in the descriptor */

  slot->from   = from;
 1011a94:	1006913a 	slli	r3,r2,4
  slot->len    = len;
  slot->done   = done;
  slot->handle = handle;
 1011a98:	108000c4 	addi	r2,r2,3
 1011a9c:	1004913a 	slli	r2,r2,4
    return -ENOSPC;
  }

  /* Fill in the descriptor */

  slot->from   = from;
 1011aa0:	20c7883a 	add	r3,r4,r3
 1011aa4:	19400915 	stw	r5,36(r3)
  slot->len    = len;
 1011aa8:	19800a15 	stw	r6,40(r3)
  slot->done   = done;
 1011aac:	19c00b15 	stw	r7,44(r3)
  slot->handle = handle;
 1011ab0:	d8c00217 	ldw	r3,8(sp)
 1011ab4:	2085883a 	add	r2,r4,r2

  priv->tx_end = next;

  if (!priv->active)
 1011ab8:	24000817 	ldw	r16,32(r4)
  /* Fill in the descriptor */

  slot->from   = from;
  slot->len    = len;
  slot->done   = done;
  slot->handle = handle;
 1011abc:	10c00015 	stw	r3,0(r2)

  priv->tx_end = next;
 1011ac0:	22000215 	stw	r8,8(r4)

  if (!priv->active)
 1011ac4:	8000071e 	bne	r16,zero,1011ae4 <alt_avalon_dma_send+0x90>
  {
    priv->launch (priv);
 1011ac8:	20800717 	ldw	r2,28(r4)
 1011acc:	103ee83a 	callr	r2
 1011ad0:	00000506 	br	1011ae8 <alt_avalon_dma_send+0x94>

  if ((((alt_u32) from) & align_mask) ||
        (len & align_mask)            ||
        (len > priv->max_length))
  {
    return -EINVAL;
 1011ad4:	043ffa84 	movi	r16,-22
 1011ad8:	00000306 	br	1011ae8 <alt_avalon_dma_send+0x94>
  slot  = &priv->tx_buf[end];
  next  = (end + 1) & ALT_AVALON_DMA_NSLOTS_MSK;

  if (next == start)
  {
    return -ENOSPC;
 1011adc:	043ff904 	movi	r16,-28
 1011ae0:	00000106 	br	1011ae8 <alt_avalon_dma_send+0x94>
  if (!priv->active)
  {
    priv->launch (priv);
  }

  return 0;
 1011ae4:	0021883a 	mov	r16,zero
}
 1011ae8:	8005883a 	mov	r2,r16
 1011aec:	dfc00117 	ldw	ra,4(sp)
 1011af0:	dc000017 	ldw	r16,0(sp)
 1011af4:	dec00204 	addi	sp,sp,8
 1011af8:	f800283a 	ret

01011afc <alt_avalon_dma_init>:
void alt_avalon_dma_init (alt_avalon_dma_txchan* tx,
                          alt_avalon_dma_rxchan* rx,
                          void*                  base,
                          alt_u32                ic_id,
                          alt_u32                irq)
{
 1011afc:	defffc04 	addi	sp,sp,-16
 1011b00:	dc400215 	stw	r17,8(sp)
 1011b04:	dc000115 	stw	r16,4(sp)
 1011b08:	dfc00315 	stw	ra,12(sp)
 1011b0c:	2021883a 	mov	r16,r4
 1011b10:	2823883a 	mov	r17,r5
 1011b14:	3809883a 	mov	r4,r7

  /* Halt any current transactions (reset the device) */
  IOWR_ALTERA_AVALON_DMA_CONTROL (base, ALTERA_AVALON_DMA_CONTROL_SOFTWARERESET_MSK);
 1011b18:	30800604 	addi	r2,r6,24
 1011b1c:	00c40004 	movi	r3,4096
 1011b20:	10c00035 	stwio	r3,0(r2)
  IOWR_ALTERA_AVALON_DMA_CONTROL (base, ALTERA_AVALON_DMA_CONTROL_SOFTWARERESET_MSK);
 1011b24:	10c00035 	stwio	r3,0(r2)

  /* Set the default mode of the device (32 bit block reads and writes from/to memory). */
  IOWR_ALTERA_AVALON_DMA_CONTROL (base,
 1011b28:	00c03f04 	movi	r3,252
 1011b2c:	10c00035 	stwio	r3,0(r2)
                          ALTERA_AVALON_DMA_CONTROL_REEN_MSK      |
                          ALTERA_AVALON_DMA_CONTROL_WEEN_MSK      |
                          ALTERA_AVALON_DMA_CONTROL_LEEN_MSK);

  /* Clear any pending interrupts and the DONE flag */
  IOWR_ALTERA_AVALON_DMA_STATUS (base, 0);
 1011b30:	30000035 	stwio	zero,0(r6)
  /*
   * Register the interrupt handler, and make the device available to the
   * system.
   */
#ifdef ALT_ENHANCED_INTERRUPT_API_PRESENT
  if (alt_ic_isr_register(ic_id, irq, alt_avalon_dma_irq, tx->priv, 0x0) >= 0)
 1011b34:	d9400417 	ldw	r5,16(sp)
 1011b38:	81c00617 	ldw	r7,24(r16)
 1011b3c:	01804074 	movhi	r6,257
 1011b40:	d8000015 	stw	zero,0(sp)
 1011b44:	31856304 	addi	r6,r6,5516
 1011b48:	1011e000 	call	1011e00 <alt_ic_isr_register>
 1011b4c:	10000c16 	blt	r2,zero,1011b80 <alt_avalon_dma_init+0x84>

static ALT_INLINE int alt_dma_txchan_reg (alt_dma_txchan_dev* dev)
{
  extern alt_llist alt_dma_txchan_list;

  return alt_dev_llist_insert((alt_dev_llist*) dev, &alt_dma_txchan_list);
 1011b50:	01404074 	movhi	r5,257
 1011b54:	8009883a 	mov	r4,r16
 1011b58:	294c3f04 	addi	r5,r5,12540
 1011b5c:	1011c580 	call	1011c58 <alt_dev_llist_insert>

static ALT_INLINE int alt_dma_rxchan_reg (alt_dma_rxchan_dev* dev)
{
  extern alt_llist alt_dma_rxchan_list;

  return alt_dev_llist_insert((alt_dev_llist*) dev, &alt_dma_rxchan_list);
 1011b60:	01404074 	movhi	r5,257
 1011b64:	8809883a 	mov	r4,r17
 1011b68:	294c3d04 	addi	r5,r5,12532
#endif  
  {
    alt_dma_txchan_reg (&tx->dev);
    alt_dma_rxchan_reg (&rx->dev);
  }
}
 1011b6c:	dfc00317 	ldw	ra,12(sp)
 1011b70:	dc400217 	ldw	r17,8(sp)
 1011b74:	dc000117 	ldw	r16,4(sp)
 1011b78:	dec00404 	addi	sp,sp,16
 1011b7c:	1011c581 	jmpi	1011c58 <alt_dev_llist_insert>
 1011b80:	dfc00317 	ldw	ra,12(sp)
 1011b84:	dc400217 	ldw	r17,8(sp)
 1011b88:	dc000117 	ldw	r16,4(sp)
 1011b8c:	dec00404 	addi	sp,sp,16
 1011b90:	f800283a 	ret

01011b94 <altera_avalon_jtag_uart_write>:
 */

int altera_avalon_jtag_uart_write(altera_avalon_jtag_uart_state* sp, 
  const char * ptr, int count, int flags)
{
  unsigned int base = sp->base;
 1011b94:	21000017 	ldw	r4,0(r4)
 * one FIFOs worth of data.  But you said you didn't want to use interrupts :-)
 */

int altera_avalon_jtag_uart_write(altera_avalon_jtag_uart_state* sp, 
  const char * ptr, int count, int flags)
{
 1011b98:	3005883a 	mov	r2,r6
  unsigned int base = sp->base;

  const char * end = ptr + count;
 1011b9c:	298d883a 	add	r6,r5,r6

  while (ptr < end)
    if ((IORD_ALTERA_AVALON_JTAG_UART_CONTROL(base) & ALTERA_AVALON_JTAG_UART_CONTROL_WSPACE_MSK) != 0)
 1011ba0:	21c00104 	addi	r7,r4,4
{
  unsigned int base = sp->base;

  const char * end = ptr + count;

  while (ptr < end)
 1011ba4:	2980072e 	bgeu	r5,r6,1011bc4 <altera_avalon_jtag_uart_write+0x30>
    if ((IORD_ALTERA_AVALON_JTAG_UART_CONTROL(base) & ALTERA_AVALON_JTAG_UART_CONTROL_WSPACE_MSK) != 0)
 1011ba8:	38c00037 	ldwio	r3,0(r7)
 1011bac:	18ffffec 	andhi	r3,r3,65535
 1011bb0:	183ffc26 	beq	r3,zero,1011ba4 <__alt_data_end+0xffff13a4>
      IOWR_ALTERA_AVALON_JTAG_UART_DATA(base, *ptr++);
 1011bb4:	28c00007 	ldb	r3,0(r5)
 1011bb8:	20c00035 	stwio	r3,0(r4)
 1011bbc:	29400044 	addi	r5,r5,1
 1011bc0:	003ff806 	br	1011ba4 <__alt_data_end+0xffff13a4>

  return count;
}
 1011bc4:	f800283a 	ret

01011bc8 <alt_busy_sleep>:
  {
    cycles_per_loop = 3;
  }
  

  big_loops = us / (INT_MAX/
 1011bc8:	0140f874 	movhi	r5,993
#include "alt_types.h"

#include "priv/alt_busy_sleep.h"

unsigned int alt_busy_sleep (unsigned int us)
{
 1011bcc:	defffe04 	addi	sp,sp,-8
  {
    cycles_per_loop = 3;
  }
  

  big_loops = us / (INT_MAX/
 1011bd0:	297e0f84 	addi	r5,r5,-1986
#include "alt_types.h"

#include "priv/alt_busy_sleep.h"

unsigned int alt_busy_sleep (unsigned int us)
{
 1011bd4:	dc000015 	stw	r16,0(sp)
 1011bd8:	dfc00115 	stw	ra,4(sp)
 1011bdc:	2021883a 	mov	r16,r4
  {
    cycles_per_loop = 3;
  }
  

  big_loops = us / (INT_MAX/
 1011be0:	100f7c40 	call	100f7c4 <__udivsi3>
  (ALT_CPU_FREQ/(cycles_per_loop * 1000000)));

  if (big_loops)
 1011be4:	10000e26 	beq	r2,zero,1011c20 <alt_busy_sleep+0x58>
      /*
      * Do NOT Try to single step the asm statement below 
      * (single step will never return)
      * Step out of this function or set a breakpoint after the asm statements
      */
      __asm__ volatile (
 1011be8:	01600034 	movhi	r5,32768
        "\n1:"
        "\n\t.pushsection .debug_alt_sim_info"
        "\n\t.int 4, 0, 0b, 1b"
        "\n\t.popsection"
        :: "r" (INT_MAX));
      us -= (INT_MAX/(ALT_CPU_FREQ/
 1011bec:	013f07f4 	movhi	r4,64543
  

  big_loops = us / (INT_MAX/
  (ALT_CPU_FREQ/(cycles_per_loop * 1000000)));

  if (big_loops)
 1011bf0:	0007883a 	mov	r3,zero
      /*
      * Do NOT Try to single step the asm statement below 
      * (single step will never return)
      * Step out of this function or set a breakpoint after the asm statements
      */
      __asm__ volatile (
 1011bf4:	297fffc4 	addi	r5,r5,-1
        "\n1:"
        "\n\t.pushsection .debug_alt_sim_info"
        "\n\t.int 4, 0, 0b, 1b"
        "\n\t.popsection"
        :: "r" (INT_MAX));
      us -= (INT_MAX/(ALT_CPU_FREQ/
 1011bf8:	2101f084 	addi	r4,r4,1986
      /*
      * Do NOT Try to single step the asm statement below 
      * (single step will never return)
      * Step out of this function or set a breakpoint after the asm statements
      */
      __asm__ volatile (
 1011bfc:	297fffc4 	addi	r5,r5,-1
 1011c00:	283ffe1e 	bne	r5,zero,1011bfc <__alt_data_end+0xffff13fc>
  big_loops = us / (INT_MAX/
  (ALT_CPU_FREQ/(cycles_per_loop * 1000000)));

  if (big_loops)
  {
    for(i=0;i<big_loops;i++)
 1011c04:	18c00044 	addi	r3,r3,1
        "\n1:"
        "\n\t.pushsection .debug_alt_sim_info"
        "\n\t.int 4, 0, 0b, 1b"
        "\n\t.popsection"
        :: "r" (INT_MAX));
      us -= (INT_MAX/(ALT_CPU_FREQ/
 1011c08:	8121883a 	add	r16,r16,r4
  big_loops = us / (INT_MAX/
  (ALT_CPU_FREQ/(cycles_per_loop * 1000000)));

  if (big_loops)
  {
    for(i=0;i<big_loops;i++)
 1011c0c:	18bffb16 	blt	r3,r2,1011bfc <__alt_data_end+0xffff13fc>
      "\n\tbne %0,zero,0b"
      "\n1:"
      "\n\t.pushsection .debug_alt_sim_info"
      "\n\t.int 4, 0, 0b, 1b"
      "\n\t.popsection"
      :: "r" (us*(ALT_CPU_FREQ/(cycles_per_loop * 1000000))));
 1011c10:	84000864 	muli	r16,r16,33
    /*
    * Do NOT Try to single step the asm statement below 
    * (single step will never return)
    * Step out of this function or set a breakpoint after the asm statements
    */
    __asm__ volatile (
 1011c14:	843fffc4 	addi	r16,r16,-1
 1011c18:	803ffe1e 	bne	r16,zero,1011c14 <__alt_data_end+0xffff1414>
 1011c1c:	00000306 	br	1011c2c <alt_busy_sleep+0x64>
      "\n\tbgt %0,zero,0b"
      "\n1:"
      "\n\t.pushsection .debug_alt_sim_info"
      "\n\t.int 4, 0, 0b, 1b"
      "\n\t.popsection"
      :: "r" (us*(ALT_CPU_FREQ/(cycles_per_loop * 1000000))));
 1011c20:	84000864 	muli	r16,r16,33
    /*
    * Do NOT Try to single step the asm statement below 
    * (single step will never return)
    * Step out of this function or set a breakpoint after the asm statements
    */
    __asm__ volatile (
 1011c24:	843fffc4 	addi	r16,r16,-1
 1011c28:	043ffe16 	blt	zero,r16,1011c24 <__alt_data_end+0xffff1424>
      "\n\t.popsection"
      :: "r" (us*(ALT_CPU_FREQ/(cycles_per_loop * 1000000))));
  }
#endif /* #ifndef ALT_SIM_OPTIMIZE */
  return 0;
}
 1011c2c:	0005883a 	mov	r2,zero
 1011c30:	dfc00117 	ldw	ra,4(sp)
 1011c34:	dc000017 	ldw	r16,0(sp)
 1011c38:	dec00204 	addi	sp,sp,8
 1011c3c:	f800283a 	ret

01011c40 <alt_dcache_flush_all>:
void alt_dcache_flush_all (void)
{
#if NIOS2_DCACHE_SIZE > 0
  char* i;
  
  for (i = (char*) 0; i < (char*) NIOS2_DCACHE_SIZE; i+= NIOS2_DCACHE_LINE_SIZE)
 1011c40:	0005883a 	mov	r2,zero
 1011c44:	00c80004 	movi	r3,8192
  { 
    __asm__ volatile ("flushd (%0)" :: "r" (i));
 1011c48:	1000003b 	flushd	0(r2)
void alt_dcache_flush_all (void)
{
#if NIOS2_DCACHE_SIZE > 0
  char* i;
  
  for (i = (char*) 0; i < (char*) NIOS2_DCACHE_SIZE; i+= NIOS2_DCACHE_LINE_SIZE)
 1011c4c:	10800804 	addi	r2,r2,32
 1011c50:	10fffd1e 	bne	r2,r3,1011c48 <__alt_data_end+0xffff1448>
  { 
    __asm__ volatile ("flushd (%0)" :: "r" (i));
  }
#endif /* NIOS2_DCACHE_SIZE > 0 */
}
 1011c54:	f800283a 	ret

01011c58 <alt_dev_llist_insert>:
{
  /*
   * check that the device exists, and that it has a valid name.
   */

  if (!dev || !dev->name)
 1011c58:	20000226 	beq	r4,zero,1011c64 <alt_dev_llist_insert+0xc>
 1011c5c:	20800217 	ldw	r2,8(r4)
 1011c60:	1000131e 	bne	r2,zero,1011cb0 <alt_dev_llist_insert+0x58>

extern int errno;

static ALT_INLINE int* alt_get_errno(void)
{
  return ((alt_errno) ? alt_errno() : &errno);
 1011c64:	00804074 	movhi	r2,257
 1011c68:	108c4104 	addi	r2,r2,12548
 1011c6c:	10800017 	ldw	r2,0(r2)
 1011c70:	10000926 	beq	r2,zero,1011c98 <alt_dev_llist_insert+0x40>
/*
 *
 */

int alt_dev_llist_insert (alt_dev_llist* dev, alt_llist* list)
{
 1011c74:	deffff04 	addi	sp,sp,-4
 1011c78:	dfc00015 	stw	ra,0(sp)
 1011c7c:	103ee83a 	callr	r2
   * check that the device exists, and that it has a valid name.
   */

  if (!dev || !dev->name)
  {
    ALT_ERRNO = EINVAL;
 1011c80:	00c00584 	movi	r3,22
 1011c84:	10c00015 	stw	r3,0(r2)
    return -EINVAL;
 1011c88:	00bffa84 	movi	r2,-22
   */
  
  alt_llist_insert(list, &dev->llist);

  return 0;  
}
 1011c8c:	dfc00017 	ldw	ra,0(sp)
 1011c90:	dec00104 	addi	sp,sp,4
 1011c94:	f800283a 	ret
 1011c98:	00804074 	movhi	r2,257
 1011c9c:	108dc204 	addi	r2,r2,14088
   * check that the device exists, and that it has a valid name.
   */

  if (!dev || !dev->name)
  {
    ALT_ERRNO = EINVAL;
 1011ca0:	00c00584 	movi	r3,22
 1011ca4:	10c00015 	stw	r3,0(r2)
    return -EINVAL;
 1011ca8:	00bffa84 	movi	r2,-22
   */
  
  alt_llist_insert(list, &dev->llist);

  return 0;  
}
 1011cac:	f800283a 	ret

static ALT_INLINE void ALT_ALWAYS_INLINE alt_llist_insert(alt_llist* list, 
                alt_llist* entry)
{
  entry->previous = list;
  entry->next     = list->next;
 1011cb0:	28800017 	ldw	r2,0(r5)
 */

static ALT_INLINE void ALT_ALWAYS_INLINE alt_llist_insert(alt_llist* list, 
                alt_llist* entry)
{
  entry->previous = list;
 1011cb4:	21400115 	stw	r5,4(r4)
  entry->next     = list->next;
 1011cb8:	20800015 	stw	r2,0(r4)

  list->next->previous = entry;
 1011cbc:	28800017 	ldw	r2,0(r5)
 1011cc0:	11000115 	stw	r4,4(r2)
  list->next           = entry;
 1011cc4:	29000015 	stw	r4,0(r5)
   * register the device.
   */
  
  alt_llist_insert(list, &dev->llist);

  return 0;  
 1011cc8:	0005883a 	mov	r2,zero
 1011ccc:	f800283a 	ret

01011cd0 <alt_dma_rxchan_open>:
 *
 * The return value will be NULL on failure, and non-NULL otherwise. 
 */

alt_dma_rxchan alt_dma_rxchan_open (const char* name)
{
 1011cd0:	defffe04 	addi	sp,sp,-8
  alt_dma_rxchan dev;

  dev = (alt_dma_rxchan) alt_find_dev (name, &alt_dma_rxchan_list);
 1011cd4:	d1600704 	addi	r5,gp,-32740
 *
 * The return value will be NULL on failure, and non-NULL otherwise. 
 */

alt_dma_rxchan alt_dma_rxchan_open (const char* name)
{
 1011cd8:	dc000015 	stw	r16,0(sp)
 1011cdc:	dfc00115 	stw	ra,4(sp)
  alt_dma_rxchan dev;

  dev = (alt_dma_rxchan) alt_find_dev (name, &alt_dma_rxchan_list);
 1011ce0:	1011d800 	call	1011d80 <alt_find_dev>
 1011ce4:	1021883a 	mov	r16,r2

  if (!dev)
 1011ce8:	10000a1e 	bne	r2,zero,1011d14 <alt_dma_rxchan_open+0x44>
 1011cec:	00804074 	movhi	r2,257
 1011cf0:	108c4104 	addi	r2,r2,12548
 1011cf4:	10800017 	ldw	r2,0(r2)
 1011cf8:	10000226 	beq	r2,zero,1011d04 <alt_dma_rxchan_open+0x34>
 1011cfc:	103ee83a 	callr	r2
 1011d00:	00000206 	br	1011d0c <alt_dma_rxchan_open+0x3c>
 1011d04:	00804074 	movhi	r2,257
 1011d08:	108dc204 	addi	r2,r2,14088
  {
    ALT_ERRNO = ENODEV;
 1011d0c:	00c004c4 	movi	r3,19
 1011d10:	10c00015 	stw	r3,0(r2)
  }

  return dev;
}
 1011d14:	8005883a 	mov	r2,r16
 1011d18:	dfc00117 	ldw	ra,4(sp)
 1011d1c:	dc000017 	ldw	r16,0(sp)
 1011d20:	dec00204 	addi	sp,sp,8
 1011d24:	f800283a 	ret

01011d28 <alt_dma_txchan_open>:
 *
 * The return value will be NULL on failure, and non-NULL otherwise. 
 */

alt_dma_txchan alt_dma_txchan_open (const char* name)
{
 1011d28:	defffe04 	addi	sp,sp,-8
  alt_dma_txchan dev;

  dev = (alt_dma_txchan) alt_find_dev (name, &alt_dma_txchan_list);
 1011d2c:	d1600904 	addi	r5,gp,-32732
 *
 * The return value will be NULL on failure, and non-NULL otherwise. 
 */

alt_dma_txchan alt_dma_txchan_open (const char* name)
{
 1011d30:	dc000015 	stw	r16,0(sp)
 1011d34:	dfc00115 	stw	ra,4(sp)
  alt_dma_txchan dev;

  dev = (alt_dma_txchan) alt_find_dev (name, &alt_dma_txchan_list);
 1011d38:	1011d800 	call	1011d80 <alt_find_dev>
 1011d3c:	1021883a 	mov	r16,r2

  if (!dev)
 1011d40:	10000a1e 	bne	r2,zero,1011d6c <alt_dma_txchan_open+0x44>
 1011d44:	00804074 	movhi	r2,257
 1011d48:	108c4104 	addi	r2,r2,12548
 1011d4c:	10800017 	ldw	r2,0(r2)
 1011d50:	10000226 	beq	r2,zero,1011d5c <alt_dma_txchan_open+0x34>
 1011d54:	103ee83a 	callr	r2
 1011d58:	00000206 	br	1011d64 <alt_dma_txchan_open+0x3c>
 1011d5c:	00804074 	movhi	r2,257
 1011d60:	108dc204 	addi	r2,r2,14088
  {
    ALT_ERRNO = ENODEV;
 1011d64:	00c004c4 	movi	r3,19
 1011d68:	10c00015 	stw	r3,0(r2)
  }

  return dev;
}
 1011d6c:	8005883a 	mov	r2,r16
 1011d70:	dfc00117 	ldw	ra,4(sp)
 1011d74:	dc000017 	ldw	r16,0(sp)
 1011d78:	dec00204 	addi	sp,sp,8
 1011d7c:	f800283a 	ret

01011d80 <alt_find_dev>:
 * "name" must be an exact match for the devices registered name for a match to
 * be found.
 */
 
alt_dev* alt_find_dev(const char* name, alt_llist* llist)
{
 1011d80:	defffb04 	addi	sp,sp,-20
 1011d84:	dcc00315 	stw	r19,12(sp)
 1011d88:	dc800215 	stw	r18,8(sp)
 1011d8c:	dc400115 	stw	r17,4(sp)
 1011d90:	dc000015 	stw	r16,0(sp)
 1011d94:	dfc00415 	stw	ra,16(sp)
 1011d98:	2027883a 	mov	r19,r4
 1011d9c:	2823883a 	mov	r17,r5
  alt_dev* next = (alt_dev*) llist->next;
 1011da0:	2c000017 	ldw	r16,0(r5)
  alt_32 len;

  len  = strlen(name) + 1;
 1011da4:	1010b380 	call	1010b38 <strlen>
 1011da8:	14800044 	addi	r18,r2,1
  /*
   * Check each list entry in turn, until a match is found, or we reach the
   * end of the list (i.e. next winds up pointing back to the list head).
   */ 

  while (next != (alt_dev*) llist)
 1011dac:	84400726 	beq	r16,r17,1011dcc <alt_find_dev+0x4c>
    /* 
     * memcmp() is used here rather than strcmp() in order to reduce the size
     * of the executable.
     */

    if (!memcmp (next->name, name, len))
 1011db0:	81000217 	ldw	r4,8(r16)
 1011db4:	980b883a 	mov	r5,r19
 1011db8:	900d883a 	mov	r6,r18
 1011dbc:	1011fb80 	call	1011fb8 <memcmp>
 1011dc0:	10000426 	beq	r2,zero,1011dd4 <alt_find_dev+0x54>
    {
      /* match found */

      return next;
    }
    next = (alt_dev*) next->llist.next;
 1011dc4:	84000017 	ldw	r16,0(r16)
 1011dc8:	003ff806 	br	1011dac <__alt_data_end+0xffff15ac>
  }
  
  /* No match found */
  
  return NULL;
 1011dcc:	0005883a 	mov	r2,zero
 1011dd0:	00000106 	br	1011dd8 <alt_find_dev+0x58>
 1011dd4:	8005883a 	mov	r2,r16
}
 1011dd8:	dfc00417 	ldw	ra,16(sp)
 1011ddc:	dcc00317 	ldw	r19,12(sp)
 1011de0:	dc800217 	ldw	r18,8(sp)
 1011de4:	dc400117 	ldw	r17,4(sp)
 1011de8:	dc000017 	ldw	r16,0(sp)
 1011dec:	dec00504 	addi	sp,sp,20
 1011df0:	f800283a 	ret

01011df4 <alt_icache_flush_all>:
 */

void alt_icache_flush_all (void)
{
#if NIOS2_ICACHE_SIZE > 0
  alt_icache_flush (0, NIOS2_ICACHE_SIZE);
 1011df4:	0009883a 	mov	r4,zero
 1011df8:	01420004 	movi	r5,2048
 1011dfc:	1011f0c1 	jmpi	1011f0c <alt_icache_flush>

01011e00 <alt_ic_isr_register>:
  * @return                 0 if successful, else error (-1)
  */
int alt_ic_isr_register(alt_u32 ic_id, alt_u32 irq, alt_isr_func isr, 
  void *isr_context, void *flags)
{
    return alt_iic_isr_register(ic_id, irq, isr, isr_context, flags);
 1011e00:	1011e9c1 	jmpi	1011e9c <alt_iic_isr_register>

01011e04 <alt_ic_irq_enable>:
static ALT_INLINE alt_irq_context ALT_ALWAYS_INLINE 
       alt_irq_disable_all (void)
{
  alt_irq_context context;

  NIOS2_READ_STATUS (context);
 1011e04:	000d303a 	rdctl	r6,status

  NIOS2_WRITE_STATUS (context & ~NIOS2_STATUS_PIE_MSK);
 1011e08:	00bfff84 	movi	r2,-2
 1011e0c:	3084703a 	and	r2,r6,r2
 1011e10:	1001703a 	wrctl	status,r2
  alt_irq_context  status;
  extern volatile alt_u32 alt_irq_active;

  status = alt_irq_disable_all ();

  alt_irq_active |= (1 << id);
 1011e14:	00804074 	movhi	r2,257
 1011e18:	108dc304 	addi	r2,r2,14092
 1011e1c:	01000044 	movi	r4,1
 1011e20:	10c00017 	ldw	r3,0(r2)
 1011e24:	214a983a 	sll	r5,r4,r5
 1011e28:	28cab03a 	or	r5,r5,r3
 1011e2c:	11400015 	stw	r5,0(r2)
  NIOS2_WRITE_IENABLE (alt_irq_active);
 1011e30:	10800017 	ldw	r2,0(r2)
 1011e34:	100170fa 	wrctl	ienable,r2
  status &= ~NIOS2_STATUS_PIE_MSK;
  status |= (context & NIOS2_STATUS_PIE_MSK);
  
  NIOS2_WRITE_STATUS (status);
#else
  NIOS2_WRITE_STATUS (context);
 1011e38:	3001703a 	wrctl	status,r6
  * @return                 0 if successful, else error (-1)
  */
int alt_ic_irq_enable (alt_u32 ic_id, alt_u32 irq)
{
    return alt_irq_enable(irq);
}
 1011e3c:	0005883a 	mov	r2,zero
 1011e40:	f800283a 	ret

01011e44 <alt_ic_irq_disable>:
static ALT_INLINE alt_irq_context ALT_ALWAYS_INLINE 
       alt_irq_disable_all (void)
{
  alt_irq_context context;

  NIOS2_READ_STATUS (context);
 1011e44:	000d303a 	rdctl	r6,status

  NIOS2_WRITE_STATUS (context & ~NIOS2_STATUS_PIE_MSK);
 1011e48:	00bfff84 	movi	r2,-2
 1011e4c:	3084703a 	and	r2,r6,r2
 1011e50:	1001703a 	wrctl	status,r2
  alt_irq_context  status;
  extern volatile alt_u32 alt_irq_active;

  status = alt_irq_disable_all ();

  alt_irq_active &= ~(1 << id);
 1011e54:	00804074 	movhi	r2,257
 1011e58:	108dc304 	addi	r2,r2,14092
 1011e5c:	013fff84 	movi	r4,-2
 1011e60:	10c00017 	ldw	r3,0(r2)
 1011e64:	214a183a 	rol	r5,r4,r5
 1011e68:	28ca703a 	and	r5,r5,r3
 1011e6c:	11400015 	stw	r5,0(r2)
  NIOS2_WRITE_IENABLE (alt_irq_active);
 1011e70:	10800017 	ldw	r2,0(r2)
 1011e74:	100170fa 	wrctl	ienable,r2
  status &= ~NIOS2_STATUS_PIE_MSK;
  status |= (context & NIOS2_STATUS_PIE_MSK);
  
  NIOS2_WRITE_STATUS (status);
#else
  NIOS2_WRITE_STATUS (context);
 1011e78:	3001703a 	wrctl	status,r6
  * @return                 0 if successful, else error (-1)
  */
int alt_ic_irq_disable(alt_u32 ic_id, alt_u32 irq)
{
    return alt_irq_disable(irq);
}
 1011e7c:	0005883a 	mov	r2,zero
 1011e80:	f800283a 	ret

01011e84 <alt_ic_irq_enabled>:
  */
alt_u32 alt_ic_irq_enabled(alt_u32 ic_id, alt_u32 irq)
{
    alt_u32 irq_enabled;

    NIOS2_READ_IENABLE(irq_enabled);
 1011e84:	000530fa 	rdctl	r2,ienable

    return (irq_enabled & (1 << irq)) ? 1: 0;
 1011e88:	00c00044 	movi	r3,1
 1011e8c:	194a983a 	sll	r5,r3,r5
 1011e90:	1144703a 	and	r2,r2,r5
}
 1011e94:	1004c03a 	cmpne	r2,r2,zero
 1011e98:	f800283a 	ret

01011e9c <alt_iic_isr_register>:
{
  int rc = -EINVAL;  
  int id = irq;             /* IRQ interpreted as the interrupt ID. */
  alt_irq_context status;

  if (id < ALT_NIRQ)
 1011e9c:	00c007c4 	movi	r3,31
 1011ea0:	19401616 	blt	r3,r5,1011efc <alt_iic_isr_register+0x60>
  * @param flags            
  * @return                 0 if successful, else error (-1)
  */
int alt_iic_isr_register(alt_u32 ic_id, alt_u32 irq, alt_isr_func isr, 
  void *isr_context, void *flags)
{
 1011ea4:	defffe04 	addi	sp,sp,-8
 1011ea8:	dfc00115 	stw	ra,4(sp)
 1011eac:	dc000015 	stw	r16,0(sp)
static ALT_INLINE alt_irq_context ALT_ALWAYS_INLINE 
       alt_irq_disable_all (void)
{
  alt_irq_context context;

  NIOS2_READ_STATUS (context);
 1011eb0:	0021303a 	rdctl	r16,status

  NIOS2_WRITE_STATUS (context & ~NIOS2_STATUS_PIE_MSK);
 1011eb4:	00ffff84 	movi	r3,-2
 1011eb8:	80c6703a 	and	r3,r16,r3
 1011ebc:	1801703a 	wrctl	status,r3
     * state.
     */

    status = alt_irq_disable_all();

    alt_irq[id].handler = isr;
 1011ec0:	280490fa 	slli	r2,r5,3
 1011ec4:	00c04074 	movhi	r3,257
 1011ec8:	18cfbd04 	addi	r3,r3,16116
 1011ecc:	1885883a 	add	r2,r3,r2
 1011ed0:	11800015 	stw	r6,0(r2)
    alt_irq[id].context = isr_context;
 1011ed4:	11c00115 	stw	r7,4(r2)

    rc = (isr) ? alt_ic_irq_enable(ic_id, id) : alt_ic_irq_disable(ic_id, id);
 1011ed8:	30000226 	beq	r6,zero,1011ee4 <alt_iic_isr_register+0x48>
 1011edc:	1011e040 	call	1011e04 <alt_ic_irq_enable>
 1011ee0:	00000106 	br	1011ee8 <alt_iic_isr_register+0x4c>
 1011ee4:	1011e440 	call	1011e44 <alt_ic_irq_disable>
  status &= ~NIOS2_STATUS_PIE_MSK;
  status |= (context & NIOS2_STATUS_PIE_MSK);
  
  NIOS2_WRITE_STATUS (status);
#else
  NIOS2_WRITE_STATUS (context);
 1011ee8:	8001703a 	wrctl	status,r16

    alt_irq_enable_all(status);
  }

  return rc; 
}
 1011eec:	dfc00117 	ldw	ra,4(sp)
 1011ef0:	dc000017 	ldw	r16,0(sp)
 1011ef4:	dec00204 	addi	sp,sp,8
 1011ef8:	f800283a 	ret
  * @return                 0 if successful, else error (-1)
  */
int alt_iic_isr_register(alt_u32 ic_id, alt_u32 irq, alt_isr_func isr, 
  void *isr_context, void *flags)
{
  int rc = -EINVAL;  
 1011efc:	00bffa84 	movi	r2,-22
 1011f00:	f800283a 	ret

01011f04 <altera_nios2_gen2_irq_init>:
 * To initialize the internal interrupt controller, just clear the IENABLE
 * register so that all possible IRQs are disabled.
 */
void altera_nios2_gen2_irq_init(void) 
{
    NIOS2_WRITE_IENABLE(0);
 1011f04:	000170fa 	wrctl	ienable,zero
 1011f08:	f800283a 	ret

01011f0c <alt_icache_flush>:
 * alt_icache_flush() is called to flush the instruction cache for a memory
 * region of length "len" bytes, starting at address "start".
 */

void alt_icache_flush (void* start, alt_u32 len)
{
 1011f0c:	00820004 	movi	r2,2048
 1011f10:	1140012e 	bgeu	r2,r5,1011f18 <alt_icache_flush+0xc>
 1011f14:	100b883a 	mov	r5,r2
  if (len > NIOS2_ICACHE_SIZE)
  {
    len = NIOS2_ICACHE_SIZE;
  }

  end = ((char*) start) + len;
 1011f18:	214b883a 	add	r5,r4,r5

  for (i = start; i < end; i+= NIOS2_ICACHE_LINE_SIZE)
 1011f1c:	2005883a 	mov	r2,r4
 1011f20:	1140032e 	bgeu	r2,r5,1011f30 <alt_icache_flush+0x24>
  { 
    __asm__ volatile ("flushi %0" :: "r" (i)); 
 1011f24:	1000603a 	flushi	r2
    len = NIOS2_ICACHE_SIZE;
  }

  end = ((char*) start) + len;

  for (i = start; i < end; i+= NIOS2_ICACHE_LINE_SIZE)
 1011f28:	10800804 	addi	r2,r2,32
 1011f2c:	003ffc06 	br	1011f20 <__alt_data_end+0xffff1720>
   * For an unaligned flush request, we've got one more line left.
   * Note that this is dependent on NIOS2_ICACHE_LINE_SIZE to be a 
   * multiple of 2 (which it always is).
   */

  if (((alt_u32) start) & (NIOS2_ICACHE_LINE_SIZE - 1))
 1011f30:	210007cc 	andi	r4,r4,31
 1011f34:	20000126 	beq	r4,zero,1011f3c <alt_icache_flush+0x30>
  {
    __asm__ volatile ("flushi %0" :: "r" (i));
 1011f38:	1000603a 	flushi	r2
  /* 
   * Having flushed the cache, flush any stale instructions in the 
   * pipeline 
   */

  __asm__ volatile ("flushp");
 1011f3c:	0000203a 	flushp
 1011f40:	f800283a 	ret

01011f44 <alt_exception_cause_generated_bad_addr>:
 *         0: BADADDR is not valid
 */
int 
alt_exception_cause_generated_bad_addr(alt_exception_cause cause)
{
  switch (cause) {
 1011f44:	213ffe84 	addi	r4,r4,-6
 1011f48:	008003c4 	movi	r2,15
 1011f4c:	11001636 	bltu	r2,r4,1011fa8 <alt_exception_cause_generated_bad_addr+0x64>
 1011f50:	200890ba 	slli	r4,r4,2
 1011f54:	00804074 	movhi	r2,257
 1011f58:	1087da04 	addi	r2,r2,8040
 1011f5c:	2089883a 	add	r4,r4,r2
 1011f60:	20800017 	ldw	r2,0(r4)
 1011f64:	1000683a 	jmp	r2
 1011f68:	01011fb0 	cmpltui	r4,zero,1150
 1011f6c:	01011fb0 	cmpltui	r4,zero,1150
 1011f70:	01011fa8 	cmpgeui	r4,zero,1150
 1011f74:	01011fa8 	cmpgeui	r4,zero,1150
 1011f78:	01011fa8 	cmpgeui	r4,zero,1150
 1011f7c:	01011fb0 	cmpltui	r4,zero,1150
 1011f80:	01011fa8 	cmpgeui	r4,zero,1150
 1011f84:	01011fa8 	cmpgeui	r4,zero,1150
 1011f88:	01011fb0 	cmpltui	r4,zero,1150
 1011f8c:	01011fb0 	cmpltui	r4,zero,1150
 1011f90:	01011fa8 	cmpgeui	r4,zero,1150
 1011f94:	01011fb0 	cmpltui	r4,zero,1150
 1011f98:	01011fa8 	cmpgeui	r4,zero,1150
 1011f9c:	01011fa8 	cmpgeui	r4,zero,1150
 1011fa0:	01011fa8 	cmpgeui	r4,zero,1150
 1011fa4:	01011fb0 	cmpltui	r4,zero,1150
  case NIOS2_EXCEPTION_ECC_DATA_ERR:
    return 1;

  case NIOS2_EXCEPTION_TLB_MISS:
  case NIOS2_EXCEPTION_ECC_TLB_ERR:
    return 0;
 1011fa8:	0005883a 	mov	r2,zero
 1011fac:	f800283a 	ret
  case NIOS2_EXCEPTION_MISALIGNED_TARGET_PC:
  case NIOS2_EXCEPTION_TLB_READ_PERM_VIOLATION:
  case NIOS2_EXCEPTION_TLB_WRITE_PERM_VIOLATION:
  case NIOS2_EXCEPTION_MPU_DATA_REGION_VIOLATION:
  case NIOS2_EXCEPTION_ECC_DATA_ERR:
    return 1;
 1011fb0:	00800044 	movi	r2,1
    return 0;

  default:
    return 0;
  }
}
 1011fb4:	f800283a 	ret

01011fb8 <memcmp>:
 1011fb8:	218d883a 	add	r6,r4,r6
 1011fbc:	21800826 	beq	r4,r6,1011fe0 <memcmp+0x28>
 1011fc0:	20800003 	ldbu	r2,0(r4)
 1011fc4:	28c00003 	ldbu	r3,0(r5)
 1011fc8:	10c00226 	beq	r2,r3,1011fd4 <memcmp+0x1c>
 1011fcc:	10c5c83a 	sub	r2,r2,r3
 1011fd0:	f800283a 	ret
 1011fd4:	21000044 	addi	r4,r4,1
 1011fd8:	29400044 	addi	r5,r5,1
 1011fdc:	003ff706 	br	1011fbc <__alt_data_end+0xffff17bc>
 1011fe0:	0005883a 	mov	r2,zero
 1011fe4:	f800283a 	ret
