
usb_sdhc.elf:     file format elf32-littlenios2
usb_sdhc.elf
architecture: nios2:r1, flags 0x00000112:
EXEC_P, HAS_SYMS, D_PAGED
start address 0x01000188

Program Header:
    LOAD off    0x00001000 vaddr 0x01000000 paddr 0x01000000 align 2**12
         filesz 0x00000020 memsz 0x00000020 flags r-x
    LOAD off    0x00001020 vaddr 0x01000020 paddr 0x01000020 align 2**12
         filesz 0x00012b04 memsz 0x00012b04 flags r-x
    LOAD off    0x00013b24 vaddr 0x01012b24 paddr 0x01013108 align 2**12
         filesz 0x000005e4 memsz 0x000005e4 flags rw-
    LOAD off    0x000146ec vaddr 0x010136ec paddr 0x010136ec align 2**12
         filesz 0x00000000 memsz 0x00000908 flags rw-

Sections:
Idx Name          Size      VMA       LMA       File off  Algn
  0 .entry        00000020  01000000  01000000  00001000  2**5
                  CONTENTS, ALLOC, LOAD, READONLY, CODE
  1 .exceptions   00000168  01000020  01000020  00001020  2**2
                  CONTENTS, ALLOC, LOAD, READONLY, CODE
  2 .text         00011e60  01000188  01000188  00001188  2**2
                  CONTENTS, ALLOC, LOAD, READONLY, CODE
  3 .rodata       00000b3c  01011fe8  01011fe8  00012fe8  2**2
                  CONTENTS, ALLOC, LOAD, READONLY, DATA
  4 .rwdata       000005e4  01012b24  01013108  00013b24  2**2
                  CONTENTS, ALLOC, LOAD, DATA, SMALL_DATA
  5 .bss          00000908  010136ec  010136ec  000146ec  2**2
                  ALLOC, SMALL_DATA
  6 .onchip_memory 00000000  01013ff4  01013ff4  00014108  2**0
                  CONTENTS
  7 .comment      00000023  00000000  00000000  00014108  2**0
                  CONTENTS, READONLY
  8 .debug_aranges 00000758  00000000  00000000  00014130  2**3
                  CONTENTS, READONLY, DEBUGGING
  9 .debug_info   0000f974  00000000  00000000  00014888  2**0
                  CONTENTS, READONLY, DEBUGGING
 10 .debug_abbrev 00004232  00000000  00000000  000241fc  2**0
                  CONTENTS, READONLY, DEBUGGING
 11 .debug_line   00005e6d  00000000  00000000  0002842e  2**0
                  CONTENTS, READONLY, DEBUGGING
 12 .debug_frame  0000158c  00000000  00000000  0002e29c  2**2
                  CONTENTS, READONLY, DEBUGGING
 13 .debug_str    0000378c  00000000  00000000  0002f828  2**0
                  CONTENTS, READONLY, DEBUGGING
 14 .debug_loc    00004f82  00000000  00000000  00032fb4  2**0
                  CONTENTS, READONLY, DEBUGGING
 15 .debug_alt_sim_info 00000060  00000000  00000000  00037f38  2**2
                  CONTENTS, READONLY, DEBUGGING
 16 .debug_ranges 000006d0  00000000  00000000  00037f98  2**3
                  CONTENTS, READONLY, DEBUGGING
 17 .thread_model 00000003  00000000  00000000  0003b259  2**0
                  CONTENTS, READONLY
 18 .cpu          0000000d  00000000  00000000  0003b25c  2**0
                  CONTENTS, READONLY
 19 .qsys         00000001  00000000  00000000  0003b269  2**0
                  CONTENTS, READONLY
 20 .simulation_enabled 00000001  00000000  00000000  0003b26a  2**0
                  CONTENTS, READONLY
 21 .sysid_hash   00000004  00000000  00000000  0003b26b  2**0
                  CONTENTS, READONLY
 22 .sysid_base   00000004  00000000  00000000  0003b26f  2**0
                  CONTENTS, READONLY
 23 .sysid_time   00000004  00000000  00000000  0003b273  2**0
                  CONTENTS, READONLY
 24 .stderr_dev   0000000b  00000000  00000000  0003b277  2**0
                  CONTENTS, READONLY
 25 .stdin_dev    0000000b  00000000  00000000  0003b282  2**0
                  CONTENTS, READONLY
 26 .stdout_dev   0000000b  00000000  00000000  0003b28d  2**0
                  CONTENTS, READONLY
 27 .sopc_system_name 0000000e  00000000  00000000  0003b298  2**0
                  CONTENTS, READONLY
 28 .quartus_project_dir 0000003a  00000000  00000000  0003b2a6  2**0
                  CONTENTS, READONLY
 29 .jdi          000045e9  00000000  00000000  0003b2e0  2**0
                  CONTENTS, READONLY
 30 .sopcinfo     0008225a  00000000  00000000  0003f8c9  2**0
                  CONTENTS, READONLY
SYMBOL TABLE:
01000000 l    d  .entry	00000000 .entry
01000020 l    d  .exceptions	00000000 .exceptions
01000188 l    d  .text	00000000 .text
01011fe8 l    d  .rodata	00000000 .rodata
01012b24 l    d  .rwdata	00000000 .rwdata
010136ec l    d  .bss	00000000 .bss
01013ff4 l    d  .onchip_memory	00000000 .onchip_memory
00000000 l    d  .comment	00000000 .comment
00000000 l    d  .debug_aranges	00000000 .debug_aranges
00000000 l    d  .debug_info	00000000 .debug_info
00000000 l    d  .debug_abbrev	00000000 .debug_abbrev
00000000 l    d  .debug_line	00000000 .debug_line
00000000 l    d  .debug_frame	00000000 .debug_frame
00000000 l    d  .debug_str	00000000 .debug_str
00000000 l    d  .debug_loc	00000000 .debug_loc
00000000 l    d  .debug_alt_sim_info	00000000 .debug_alt_sim_info
00000000 l    d  .debug_ranges	00000000 .debug_ranges
00000000 l    df *ABS*	00000000 ../usb_sdhc_bsp//obj/HAL/src/crt0.o
010001d0 l       .text	00000000 alt_after_alt_main
00000000 l    df *ABS*	00000000 alt_irq_handler.c
00000000 l    df *ABS*	00000000 alt_instruction_exception_entry.c
00000000 l    df *ABS*	00000000 Main.c
00000000 l    df *ABS*	00000000 SD_Interface.c
00000000 l    df *ABS*	00000000 USBMassStore.c
00000000 l    df *ABS*	00000000 sdhc_hal.c
01002ad0 l     F .text	00000204 sls_sdhc_irq
00000000 l    df *ABS*	00000000 sdhc_stack.c
010136fc l     O .bss	00000004 MemPresent
01013700 l     O .bss	00000004 ioready
010123d4 l     O .rodata	00000020 tran_exp
010123f4 l     O .rodata	00000010 tran_mant
01012404 l     O .rodata	00000010 emmc_tran_mant
01012414 l     O .rodata	00000020 tacc_exp
01012434 l     O .rodata	00000040 tacc_mant
00000000 l    df *ABS*	00000000 sls_avalon_usb20.c
01009de8 l     F .text	00002e34 sls_avalon_usb20_irq
010130e0 l     O .rwdata	00000004 speed_changed.3554
00000000 l    df *ABS*	00000000 SCSI_TO_ATA.c
0100f494 l     F .text	000001b4 request_sense
0100f040 l     F .text	00000248 inquairy
0100f348 l     F .text	00000050 mode_sense
0100f288 l     F .text	000000c0 read_capacity
0100f398 l     F .text	000000fc read_format_capacity
00000000 l    df *ABS*	00000000 libgcc2.c
00000000 l    df *ABS*	00000000 lib2-divmod.c
0100f6a8 l     F .text	0000006c udivmodsi4
00000000 l    df *ABS*	00000000 addsf3.c
00000000 l    df *ABS*	00000000 divsf3.c
00000000 l    df *ABS*	00000000 gesf2.c
00000000 l    df *ABS*	00000000 subsf3.c
00000000 l    df *ABS*	00000000 fixsfsi.c
00000000 l    df *ABS*	00000000 floatunsisf.c
00000000 l    df *ABS*	00000000 extendsfdf2.c
00000000 l    df *ABS*	00000000 libgcc2.c
00000000 l    df *ABS*	00000000 libgcc2.c
00000000 l    df *ABS*	00000000 memcpy.c
00000000 l    df *ABS*	00000000 memset.c
00000000 l    df *ABS*	00000000 printf.c
00000000 l    df *ABS*	00000000 putchar.c
00000000 l    df *ABS*	00000000 puts.c
00000000 l    df *ABS*	00000000 strlen.c
00000000 l    df *ABS*	00000000 vfprintf.c
01010b54 l     F .text	0000006c print_repeat
00000000 l    df *ABS*	00000000 fvwrite_small_dev.c
00000000 l    df *ABS*	00000000 impure.c
01012f1c l     O .rwdata	000000e0 impure_data
00000000 l    df *ABS*	00000000 putc.c
00000000 l    df *ABS*	00000000 writer.c
00000000 l    df *ABS*	00000000 int_errno.c
00000000 l    df *ABS*	00000000 alt_dcache_flush.c
00000000 l    df *ABS*	00000000 alt_irq_register.c
00000000 l    df *ABS*	00000000 alt_irq_vars.c
00000000 l    df *ABS*	00000000 alt_load.c
00000000 l    df *ABS*	00000000 alt_main.c
00000000 l    df *ABS*	00000000 alt_usleep.c
00000000 l    df *ABS*	00000000 alt_write.c
00000000 l    df *ABS*	00000000 alt_sys_init.c
01013018 l     O .rwdata	0000001c dma_0_tx
01012ffc l     O .rwdata	0000001c dma_0_rx
01013034 l     O .rwdata	000000a4 dma_0_priv
00000000 l    df *ABS*	00000000 altera_avalon_dma.c
0101158c l     F .text	00000134 alt_avalon_dma_irq
01011738 l     F .text	00000044 alt_avalon_dma_launch_txonly
0101177c l     F .text	00000044 alt_avalon_dma_launch_rxonly
010117c0 l     F .text	000001b8 alt_avalon_dma_ioctl
01012b14 l     O .rodata	00000010 CSWTCH.10
00000000 l    df *ABS*	00000000 altera_avalon_jtag_uart_write.c
00000000 l    df *ABS*	00000000 alt_busy_sleep.c
00000000 l    df *ABS*	00000000 alt_dcache_flush_all.c
00000000 l    df *ABS*	00000000 alt_dev_llist_insert.c
00000000 l    df *ABS*	00000000 alt_dma_rxchan_open.c
00000000 l    df *ABS*	00000000 alt_dma_txchan_open.c
00000000 l    df *ABS*	00000000 alt_errno.c
00000000 l    df *ABS*	00000000 alt_find_dev.c
00000000 l    df *ABS*	00000000 alt_icache_flush_all.c
00000000 l    df *ABS*	00000000 alt_iic.c
00000000 l    df *ABS*	00000000 alt_iic_isr_register.c
00000000 l    df *ABS*	00000000 altera_nios2_gen2_irq.c
00000000 l    df *ABS*	00000000 alt_icache_flush.c
00000000 l    df *ABS*	00000000 memcmp.c
010009d4 g     F .text	0000007c MassStorage_Main
0101371c g     O .bss	00000004 alt_instruction_exception_handler
01013704 g     O .bss	00000004 Eject_Flag
01010a8c g     F .text	00000018 putchar
0100e05c g     F .text	00000778 usb20sr_with_dma_read
010136f8 g     O .bss	00000004 csr
01011494 g     F .text	0000002c alt_main
01010aa4 g     F .text	00000080 _puts_r
01013ef4 g     O .bss	00000100 alt_irq
01013108 g       *ABS*	00000000 __flash_rwdata_start
010137f0 g     O .bss	00000010 m_csw
01012b9c g     O .rwdata	0000003c ep_ip_int_hs
01012b24 g     O .rwdata	0000003c ep_ip_int_ls
01010a38 g     F .text	0000004c printf
01011afc g     F .text	00000098 alt_avalon_dma_init
0100e7d4 g     F .text	00000168 usb20sr_check_bo_ready
01001ee0 g     F .text	000000a0 sdhc_sd_write_protected
01008e38 g     F .text	00000028 get_current_config
0100fcb4 g     F .text	00000450 .hidden __divsf3
01013720 g     O .bss	000000b0 sd_0_info
01000860 g     F .text	00000048 sd_read
010130dc g     O .rwdata	00000004 debug_level
0100d4e8 g     F .text	00000508 usb20sr_without_dma_write
010106b8 g     F .text	00000078 .hidden __fixsfsi
010021bc g     F .text	0000018c sdhc_send_command
01011f04 g     F .text	00000008 altera_nios2_gen2_irq_init
00000000  w      *UND*	00000000 __errno
01000000 g     F .entry	0000001c __reset
01008bc4 g     F .text	00000034 usb20sr_phy_register_disable
01000798 g     F .text	00000080 SD_card_init
01012d40 g     O .rwdata	0000003c ep_ip_csr_ls_
01000020 g       *ABS*	00000000 __flash_exceptions_start
01013708 g     O .bss	00000004 errno
01001e88 g     F .text	00000058 sdhc_sd_present
01013714 g     O .bss	00000004 alt_argv
0101b0d8 g       *ABS*	00000000 _gp
010114c0 g     F .text	00000004 usleep
010008a8 g     F .text	0000012c InitSD
010101bc g     F .text	000004fc .hidden __subsf3
01008e88 g     F .text	00000028 get_current_alt_settings
01011d28 g     F .text	00000058 alt_dma_txchan_open
01010a84 g     F .text	00000008 _putchar_r
0100e93c g     F .text	000000b8 usb20sr_check_bi_ready
01000230 g     F .text	0000016c HandleClassSpecificControlRequests
01011d80 g     F .text	00000074 alt_find_dev
010109b4 g     F .text	00000028 memcpy
01010b24 g     F .text	00000014 puts
01011f44 g     F .text	00000074 alt_exception_cause_generated_bad_addr
01007cfc g     F .text	00000090 emmc_write_bus_test
010109fc g     F .text	0000003c _printf_r
01002f20 g     F .text	00001a80 sdhc_decode_cid
0100f7c4 g     F .text	00000008 .hidden __udivsi3
01011f0c g     F .text	00000038 alt_icache_flush
010001d4 g     F .text	00000004 USB_WakeUpCfg_Event
01009bd0 g     F .text	00000170 USB_DisableEP
010112d8 g     F .text	00000028 alt_dcache_flush
01000510 g     F .text	000001e4 configure_usb20sr
01011300 g     F .text	0000009c alt_irq_register
01009d40 g     F .text	00000068 usb20sr_connect
01010840 g     F .text	00000110 .hidden __extendsfdf2
01008f20 g     F .text	0000007c USB_SetStallEP
01008d98 g     F .text	00000034 get_current_micro_frame_no
010116c0 g     F .text	00000078 alt_avalon_dma_launch_bidir
01011cd0 g     F .text	00000058 alt_dma_rxchan_open
0100cc1c g     F .text	0000013c usb20sr_config
01001b80 g     F .text	00000308 StatusTransport
010130e4 g     O .rwdata	00000004 _global_impure_ptr
01007a6c g     F .text	00000100 sdhc_read
01013ff4 g       *ABS*	00000000 __bss_end
01011e9c g     F .text	00000068 alt_iic_isr_register
010136ec g     O .bss	00000001 DataToBeSent
01012db8 g     O .rwdata	0000003c ep_ip_csr_hs_
0100e9f4 g     F .text	0000064c SCSI_To_ATA_Translation
01011e84 g     F .text	00000018 alt_ic_irq_enabled
01012e34 g     O .rwdata	0000000a device_quali_desc_
0101370c g     O .bss	00000004 alt_irq_active
0100cdcc g     F .text	0000071c usb20sr_with_dma_write
010000fc g     F .exceptions	00000060 alt_irq_handler
01009da8 g     F .text	00000040 usb20sr_disconnect
01011c40 g     F .text	00000018 alt_dcache_flush_all
01001f80 g     F .text	0000023c sdhc_set_freq
01013108 g       *ABS*	00000000 __ram_rwdata_end
010026f4 g     F .text	000001e0 sdhc_sdio_read
01000000 g       *ABS*	00000000 __alt_mem_onchip_memory
01008bf8 g     F .text	0000003c usb20sr_set_dev_speed
01011a30 g     F .text	00000024 alt_avalon_dma_space
010114c4 g     F .text	0000006c write
01011228 g     F .text	00000058 _putc_r
01008b8c g     F .text	00000038 usb20sr_phy_register_enable
0100d9f0 g     F .text	00000124 slsmemcpy
01010104 g     F .text	000000b8 .hidden __gtsf2
01012b24 g       *ABS*	00000000 __ram_rodata_end
010130f0 g     O .rwdata	00000004 jtag_uart_0
01000200 g     F .text	0000000c USB_Detached_Event
0100f7cc g     F .text	00000008 .hidden __umodsi3
01008dcc g     F .text	00000038 get_current_frame_no
01008cd8 g     F .text	00000084 usb20sr_phy_register_read
01013ff4 g       *ABS*	00000000 end
01008d5c g     F .text	0000003c usb20sr_set_low_power_mode
01007d8c g     F .text	00000e00 sdhc_card_init
0100015c g     F .exceptions	0000002c alt_instruction_exception_entry
01020800 g       *ABS*	00000000 __alt_stack_pointer
01010950 g     F .text	00000064 .hidden __clzsi2
01011b94 g     F .text	00000034 altera_avalon_jtag_uart_write
01002ef8 g     F .text	00000028 sdhc_set_debug_level
01012d04 g     O .rwdata	0000003c ep_buf0_sz_hs_
01010bc0 g     F .text	00000544 ___vfprintf_internal_r
0100020c g     F .text	0000000c USB_Reset_Event
01011a54 g     F .text	000000a8 alt_avalon_dma_send
010130fc g     O .rwdata	00000008 alt_dma_txchan_list
010012f0 g     F .text	00000890 Data_In
0100039c g     F .text	00000174 usb20sr_error_event
01000188 g     F .text	0000004c _start
01011550 g     F .text	0000003c alt_sys_init
01008e60 g     F .text	00000028 get_current_interface
01012c14 g     O .rwdata	0000003c ep_buf0_sz_ls_
01012b24 g       *ABS*	00000000 __ram_rwdata_start
01011fe8 g       *ABS*	00000000 __ram_rodata_start
01012f08 g     O .rwdata	00000012 device_desc_
010130d8 g     O .rwdata	00000004 supported_ep_
01011bc8 g     F .text	00000078 alt_busy_sleep
01009118 g     F .text	000000d4 usb_ep_config
01012df4 g     O .rwdata	00000020 other_speed_conf_desc_fs_
01011fb8 g     F .text	00000030 memcmp
01013ff4 g       *ABS*	00000000 __alt_stack_base
0100cd58 g     F .text	00000074 usb20_event_isr
010001f4 g     F .text	0000000c USB_Attached_Event
01012e3e g     O .rwdata	00000050 str_desc_
01012c8c g     O .rwdata	0000003c ep_buf0_sz_fs_
0100db14 g     F .text	00000548 usb20sr_without_dma_read
01011c58 g     F .text	00000078 alt_dev_llist_insert
01007b6c g     F .text	00000090 emmc_read_bus_test
01011128 g     F .text	000000ac __sfvwrite_small_dev
01012bd8 g     O .rwdata	0000003c ep_buf1_sz_ls_
010136ec g       *ABS*	00000000 __bss_start
010109dc g     F .text	00000020 memset
01002cd4 g     F .text	00000224 sdhc_init
010006f8 g     F .text	000000a0 main
01011980 g     F .text	00000008 alt_avalon_dma_rx_ioctl
01013710 g     O .bss	00000004 alt_envp
01012e90 g     O .rwdata	00000018 str_desc_indexes_
01012ea8 g     O .rwdata	00000020 conf_desc_ls_
010136f4 g     O .bss	00000001 g_nxtBuf
01012e14 g     O .rwdata	00000020 other_speed_conf_desc_hs_
01007bfc g     F .text	00000100 sdhc_write
01008c5c g     F .text	0000007c usb20sr_phy_register_write
01013104 g     O .rwdata	00000004 alt_errno
01000818 g     F .text	00000048 sd_write
01012b60 g     O .rwdata	0000003c ep_ip_int_fs
010111d4 g     F .text	00000054 putc
0100f714 g     F .text	00000054 .hidden __divsi3
01011fe8 g       *ABS*	00000000 __flash_rodata_start
010006f4 g     F .text	00000004 USB_SOFRecved_Event
010136f0 g     O .bss	00000004 pUsb20srDev
01011530 g     F .text	00000020 alt_irq_init
01008c34 g     F .text	00000028 usb20sr_get_dev_speed
01012a10 g     O .rodata	00000100 .hidden __clz_tab
010137d0 g     O .bss	00000020 m_cbw
01010104 g     F .text	000000b8 .hidden __gesf2
01011280 g     F .text	00000058 _write_r
01000224 g     F .text	0000000c USB_Suspend_Event
01002348 g     F .text	000003ac sdhc_get_response
010130e8 g     O .rwdata	00000004 _impure_ptr
01013718 g     O .bss	00000004 alt_argc
01000020 g       .exceptions	00000000 alt_irq_entry
01012ee8 g     O .rwdata	00000020 conf_desc_hs_
01000020 g       *ABS*	00000000 __ram_exceptions_start
01000d00 g     F .text	000005f0 Data_Out
01011e00 g     F .text	00000004 alt_ic_isr_register
01000218 g     F .text	0000000c USB_Resume_Event
01013108 g       *ABS*	00000000 _edata
01013ff4 g       *ABS*	00000000 _end
01000188 g       *ABS*	00000000 __ram_exceptions_end
010072a0 g     F .text	00000438 sdhc_set_high_speed_mode
01012d7c g     O .rwdata	0000003c ep_ip_csr_fs_
01012cc8 g     O .rwdata	0000003c ep_buf1_sz_hs_
01009020 g     F .text	000000f8 usb_initialize_descriptor
01011e44 g     F .text	00000040 alt_ic_irq_disable
01000a50 g     F .text	000002b0 CommandTransport
010028d4 g     F .text	000001fc sdhc_sdio_write
01010730 g     F .text	00000110 .hidden __floatunsisf
0100f768 g     F .text	0000005c .hidden __modsi3
01020800 g       *ABS*	00000000 __alt_data_end
01000020 g     F .exceptions	00000000 alt_exception
010076d8 g     F .text	00000394 sdhc_mode_select
01012c50 g     O .rwdata	0000003c ep_buf1_sz_fs_
0100f648 g     F .text	00000060 .hidden __fixunssfsi
0100001c g       .entry	00000000 _exit
010049a0 g     F .text	000027c8 sdhc_decode_csd
010091ec g     F .text	00000080 dma_config
01010b38 g     F .text	0000001c strlen
01008ed8 g     F .text	00000048 SetRemoteWakeUp
01011df4 g     F .text	0000000c alt_icache_flush_all
010130ec g     O .rwdata	00000004 alt_priority_mask
01013800 g     O .bss	000006f4 usb20srdev
01011e04 g     F .text	00000040 alt_ic_irq_enable
01011104 g     F .text	00000024 __vfprintf_internal
01008eb0 g     F .text	00000028 ifConfigured
01008f9c g     F .text	00000084 USB_ClrStallEP
010001d8 g     F .text	0000001c HandleClassSpecificDescriptorRequests
01011988 g     F .text	000000a8 alt_avalon_dma_prepare
010130f4 g     O .rwdata	00000008 alt_dma_rxchan_list
01007168 g     F .text	00000138 emmc_decode_ext_csd
0100f7d4 g     F .text	000004e0 .hidden __addsf3
0101139c g     F .text	000000f8 alt_load
01011978 g     F .text	00000008 alt_avalon_dma_tx_ioctl
01008e04 g     F .text	00000034 get_sof_time
0100926c g     F .text	00000964 USB_EnableEP
01012ec8 g     O .rwdata	00000020 conf_desc_fs_



Disassembly of section .entry:

01000000 <__reset>:
#if NIOS2_ICACHE_SIZE > 0 && defined(ALT_ALLOW_CODE_AT_RESET) && (!defined(ALT_SIM_OPTIMIZE) || defined(NIOS2_ECC_PRESENT))
    /* Assume the instruction cache size is always a power of two. */
#if NIOS2_ICACHE_SIZE > 0x8000
    movhi r2, %hi(NIOS2_ICACHE_SIZE)
#else
    movui r2, NIOS2_ICACHE_SIZE
 1000000:	00820014 	movui	r2,2048
#endif

0:
    initi r2
 1000004:	1001483a 	initi	r2
    addi r2, r2, -NIOS2_ICACHE_LINE_SIZE
 1000008:	10bff804 	addi	r2,r2,-32
    bgt r2, zero, 0b
 100000c:	00bffd16 	blt	zero,r2,1000004 <__alt_data_end+0xfffdf804>
 * Jump to the _start entry point in the .text section if reset code
 * is allowed or if optimizing for RTL simulation.
 */
#if defined(ALT_ALLOW_CODE_AT_RESET) || defined(ALT_SIM_OPTIMIZE)
    /* Jump to the _start entry point in the .text section. */
    movhi r1, %hi(_start)
 1000010:	00404034 	movhi	at,256
    ori r1, r1, %lo(_start)
 1000014:	08406214 	ori	at,at,392
    jmp r1
 1000018:	0800683a 	jmp	at

0100001c <_exit>:
 100001c:	00000000 	call	0 <__reset-0x1000000>

Disassembly of section .exceptions:

01000020 <alt_exception>:

#else /* ALT_EXCEPTION_STACK disabled */
        /* 
         * Reserve space on normal stack for registers about to be pushed.
         */
        addi  sp, sp, -76
 1000020:	deffed04 	addi	sp,sp,-76
         * documentation for details).
         *
         * Leave a gap in the stack frame at 4(sp) for the muldiv handler to
         * store zero into.
         */
        stw   ra,  0(sp)
 1000024:	dfc00015 	stw	ra,0(sp)
        stw   r1,   8(sp)
 1000028:	d8400215 	stw	at,8(sp)
        stw   r2,  12(sp)
 100002c:	d8800315 	stw	r2,12(sp)
        stw   r3,  16(sp)
 1000030:	d8c00415 	stw	r3,16(sp)
        stw   r4,  20(sp)
 1000034:	d9000515 	stw	r4,20(sp)
        stw   r5,  24(sp)
 1000038:	d9400615 	stw	r5,24(sp)
        stw   r6,  28(sp)
 100003c:	d9800715 	stw	r6,28(sp)
        stw   r7,  32(sp)
 1000040:	d9c00815 	stw	r7,32(sp)
        rdctl r5, estatus   /* Read early to avoid usage stall */
 1000044:	000b307a 	rdctl	r5,estatus
        stw   r8,  36(sp)
 1000048:	da000915 	stw	r8,36(sp)
        stw   r9,  40(sp)
 100004c:	da400a15 	stw	r9,40(sp)
        stw   r10, 44(sp)
 1000050:	da800b15 	stw	r10,44(sp)
        stw   r11, 48(sp)
 1000054:	dac00c15 	stw	r11,48(sp)
        stw   r12, 52(sp)
 1000058:	db000d15 	stw	r12,52(sp)
        stw   r13, 56(sp)
 100005c:	db400e15 	stw	r13,56(sp)
        stw   r14, 60(sp)
 1000060:	db800f15 	stw	r14,60(sp)
        stw   r15, 64(sp)
 1000064:	dbc01015 	stw	r15,64(sp)
        /*
         * ea-4 contains the address of the instruction being executed
         * when the exception occured. For interrupt exceptions, we will
         * will be re-issue the isntruction. Store it in 72(sp)
         */
        stw   r5,  68(sp)  /* estatus */
 1000068:	d9401115 	stw	r5,68(sp)
        addi  r15, ea, -4  /* instruction that caused exception */
 100006c:	ebffff04 	addi	r15,ea,-4
        stw   r15,  72(sp)
 1000070:	dbc01215 	stw	r15,72(sp)
#else
        /*
         * Test to see if the exception was a software exception or caused 
         * by an external interrupt, and vector accordingly.
         */
        rdctl r4, ipending
 1000074:	0009313a 	rdctl	r4,ipending
        andi  r2, r5, 1
 1000078:	2880004c 	andi	r2,r5,1
        beq   r2, zero, .Lnot_irq
 100007c:	10000326 	beq	r2,zero,100008c <alt_exception+0x6c>
        beq   r4, zero, .Lnot_irq
 1000080:	20000226 	beq	r4,zero,100008c <alt_exception+0x6c>
        /*
         * Now that all necessary registers have been preserved, call 
         * alt_irq_handler() to process the interrupts.
         */

        call alt_irq_handler
 1000084:	10000fc0 	call	10000fc <alt_irq_handler>

        .section .exceptions.irqreturn, "xa"

        br    .Lexception_exit
 1000088:	00000706 	br	10000a8 <alt_exception+0x88>
         * upon completion, so we write ea (address of instruction *after*
         * the one where the exception occured) into 72(sp). The actual
         * instruction that caused the exception is written in r2, which these
         * handlers will utilize.
         */
        stw   ea,  72(sp)  /* Don't re-issue */
 100008c:	df401215 	stw	ea,72(sp)
        ldhu.n  r2, 0(r4)
        ldhu.n  r3, 2(r4)
        slli.n  r3, r3, 16
        or.n    r2, r2, r3 /* Instruction that caused exception */
#else
        ldw   r2, -4(ea)   /* Instruction that caused exception */
 1000090:	e8bfff17 	ldw	r2,-4(ea)
         * debugger is present) or go into an infinite loop since the
         * handling behavior is undefined; in that case we will not return here.
         */

        /* Load exception-causing address as first argument (r4) */
        addi   r4, ea, -4
 1000094:	e93fff04 	addi	r4,ea,-4

        /* Call the instruction-exception entry */
        call   alt_instruction_exception_entry
 1000098:	100015c0 	call	100015c <alt_instruction_exception_entry>
         * instruction
         *
         * Return code was 0: Skip. The instruction after the exception is
         * already stored in 72(sp).
         */
        bne   r2, r0, .Lexception_exit
 100009c:	1000021e 	bne	r2,zero,10000a8 <alt_exception+0x88>

        /*
         * Otherwise, modify 72(sp) to re-issue the instruction that caused the
         * exception.
         */
        addi  r15, ea, -4  /* instruction that caused exception */
 10000a0:	ebffff04 	addi	r15,ea,-4
        stw   r15,  72(sp)
 10000a4:	dbc01215 	stw	r15,72(sp)
        /* 
         * Restore the saved registers, so that all general purpose registers 
         * have been restored to their state at the time the interrupt occured.
         */

        ldw   r5,  68(sp)
 10000a8:	d9401117 	ldw	r5,68(sp)
        ldw   ea,  72(sp)  /* This becomes the PC once eret is executed */
 10000ac:	df401217 	ldw	ea,72(sp)
        ldw   ra,   0(sp)
 10000b0:	dfc00017 	ldw	ra,0(sp)

        wrctl estatus, r5
 10000b4:	2801707a 	wrctl	estatus,r5

        ldw   r1,   8(sp)
 10000b8:	d8400217 	ldw	at,8(sp)
        ldw   r2,  12(sp)
 10000bc:	d8800317 	ldw	r2,12(sp)
        ldw   r3,  16(sp)
 10000c0:	d8c00417 	ldw	r3,16(sp)
        ldw   r4,  20(sp)
 10000c4:	d9000517 	ldw	r4,20(sp)
        ldw   r5,  24(sp)
 10000c8:	d9400617 	ldw	r5,24(sp)
        ldw   r6,  28(sp)
 10000cc:	d9800717 	ldw	r6,28(sp)
        ldw   r7,  32(sp)
 10000d0:	d9c00817 	ldw	r7,32(sp)

#if defined(ALT_EXCEPTION_STACK) && defined(ALT_STACK_CHECK)
        ldw   et, %gprel(alt_exception_old_stack_limit)(gp)
#endif

        ldw   r8,  36(sp)
 10000d4:	da000917 	ldw	r8,36(sp)
        ldw   r9,  40(sp)
 10000d8:	da400a17 	ldw	r9,40(sp)
        ldw   r10, 44(sp)
 10000dc:	da800b17 	ldw	r10,44(sp)
        ldw   r11, 48(sp)
 10000e0:	dac00c17 	ldw	r11,48(sp)
        ldw   r12, 52(sp)
 10000e4:	db000d17 	ldw	r12,52(sp)
        ldw   r13, 56(sp)
 10000e8:	db400e17 	ldw	r13,56(sp)
        ldw   r14, 60(sp)
 10000ec:	db800f17 	ldw	r14,60(sp)
        ldw   r15, 64(sp)
 10000f0:	dbc01017 	ldw	r15,64(sp)
        stw   et, %gprel(alt_stack_limit_value)(gp)
        stw   zero, %gprel(alt_exception_old_stack_limit)(gp)
#endif /* ALT_STACK_CHECK */
        ldw   sp,  76(sp)
#else /* ALT_EXCEPTION_STACK disabled */
        addi  sp, sp, 76
 10000f4:	dec01304 	addi	sp,sp,76

        /*
         * Return to the interrupted instruction.
         */

        eret
 10000f8:	ef80083a 	eret

010000fc <alt_irq_handler>:
 * instruction is present if the macro ALT_CI_INTERRUPT_VECTOR defined.
 */

void alt_irq_handler (void) __attribute__ ((section (".exceptions")));
void alt_irq_handler (void)
{
 10000fc:	defffe04 	addi	sp,sp,-8
 1000100:	dfc00115 	stw	ra,4(sp)
 1000104:	dc000015 	stw	r16,0(sp)
#ifndef NIOS2_EIC_PRESENT
static ALT_INLINE alt_u32 ALT_ALWAYS_INLINE alt_irq_pending (void)
{
  alt_u32 active;

  NIOS2_READ_IPENDING (active);
 1000108:	0009313a 	rdctl	r4,ipending
    do
    {
      if (active & mask)
      { 
#ifdef ALT_ENHANCED_INTERRUPT_API_PRESENT
        alt_irq[i].handler(alt_irq[i].context); 
 100010c:	04004074 	movhi	r16,257
 1000110:	840fbd04 	addi	r16,r16,16116

  active = alt_irq_pending ();

  do
  {
    i = 0;
 1000114:	0005883a 	mov	r2,zero
    mask = 1;
 1000118:	00c00044 	movi	r3,1
     * called to clear the interrupt condition.
     */

    do
    {
      if (active & mask)
 100011c:	190a703a 	and	r5,r3,r4
 1000120:	28000b26 	beq	r5,zero,1000150 <alt_irq_handler+0x54>
      { 
#ifdef ALT_ENHANCED_INTERRUPT_API_PRESENT
        alt_irq[i].handler(alt_irq[i].context); 
 1000124:	100490fa 	slli	r2,r2,3
 1000128:	8085883a 	add	r2,r16,r2
 100012c:	10c00017 	ldw	r3,0(r2)
 1000130:	11000117 	ldw	r4,4(r2)
 1000134:	183ee83a 	callr	r3
 1000138:	0009313a 	rdctl	r4,ipending

    } while (1);

    active = alt_irq_pending ();
    
  } while (active);
 100013c:	203ff51e 	bne	r4,zero,1000114 <__alt_data_end+0xfffdf914>
  /*
   * Notify the operating system that interrupt processing is complete.
   */ 

  ALT_OS_INT_EXIT();
}
 1000140:	dfc00117 	ldw	ra,4(sp)
 1000144:	dc000017 	ldw	r16,0(sp)
 1000148:	dec00204 	addi	sp,sp,8
 100014c:	f800283a 	ret
#else
        alt_irq[i].handler(alt_irq[i].context, i); 
#endif
        break;
      }
      mask <<= 1;
 1000150:	18c7883a 	add	r3,r3,r3
      i++;
 1000154:	10800044 	addi	r2,r2,1

    } while (1);
 1000158:	003ff006 	br	100011c <__alt_data_end+0xfffdf91c>

0100015c <alt_instruction_exception_entry>:
 * that handler if it has been registered. Absent a handler, it will
 * break break or hang as discussed below.
 */
int 
alt_instruction_exception_entry (alt_u32 exception_pc)
{
 100015c:	200b883a 	mov	r5,r4
 * NIOS2_EXCEPTION_CAUSE_NOT_PRESENT. Your handling routine should
 * check the validity of the cause argument before proceeding.
 */
#ifdef NIOS2_HAS_EXTRA_EXCEPTION_INFO
  /* Get exception cause & "badaddr" */
  NIOS2_READ_EXCEPTION(cause);
 1000160:	000531fa 	rdctl	r2,exception
  cause = ( (cause & NIOS2_EXCEPTION_REG_CAUSE_MASK) >>
              NIOS2_EXCEPTION_REG_CAUSE_OFST );

  NIOS2_READ_BADADDR(badaddr);
 1000164:	000d333a 	rdctl	r6,badaddr
#else
  cause = NIOS2_EXCEPTION_CAUSE_NOT_PRESENT;
  badaddr = 0;
#endif /* NIOS2_HAS_EXTRA_EXCEPTION_INFO */

  if(alt_instruction_exception_handler) {
 1000168:	d0e19117 	ldw	r3,-31164(gp)
 100016c:	18000326 	beq	r3,zero,100017c <alt_instruction_exception_entry+0x20>
 * check the validity of the cause argument before proceeding.
 */
#ifdef NIOS2_HAS_EXTRA_EXCEPTION_INFO
  /* Get exception cause & "badaddr" */
  NIOS2_READ_EXCEPTION(cause);
  cause = ( (cause & NIOS2_EXCEPTION_REG_CAUSE_MASK) >>
 1000170:	11001f0c 	andi	r4,r2,124
     * Call handler. Its return value indicates whether the exception-causing
     * instruction should be re-issued. The code that called us,
     * alt_eceptions_entry.S, will look at this value and adjust the ea
     * register as necessary
     */
    return alt_instruction_exception_handler(cause, exception_pc, badaddr);
 1000174:	2008d0ba 	srli	r4,r4,2
 1000178:	1800683a 	jmp	r3
   *    (a peripheral which negates its interrupt output before its
   *    interrupt handler has been executed will cause spurious interrupts)
   */
  else {
#ifdef NIOS2_HAS_DEBUG_STUB
    NIOS2_BREAK();
 100017c:	003da03a 	break	0
#endif /* NIOS2_HAS_DEBUG_STUB */
  }

  /* We should not get here. Remove compiler warning. */
  return NIOS2_EXCEPTION_RETURN_REISSUE_INST;
}
 1000180:	0005883a 	mov	r2,zero
 1000184:	f800283a 	ret

Disassembly of section .text:

01000188 <_start>:

    /* Assume the data cache size is always a power of two. */
#if NIOS2_DCACHE_SIZE > 0x8000
    movhi r2, %hi(NIOS2_DCACHE_SIZE)
#else
    movui r2, NIOS2_DCACHE_SIZE
 1000188:	00880014 	movui	r2,8192
#endif

0:
    initd 0(r2)
 100018c:	10000033 	initd	0(r2)
#ifdef NIOS2_ECC_PRESENT
    addi r2, r2, -4
#else
    addi r2, r2, -NIOS2_DCACHE_LINE_SIZE
 1000190:	10bff804 	addi	r2,r2,-32
#endif
    bgt r2, zero, 0b
 1000194:	00bffd16 	blt	zero,r2,100018c <__alt_data_end+0xfffdf98c>

    /*
     * Now that the caches are initialized, set up the stack pointer and global pointer.
     * The values provided by the linker are assumed to be correctly aligned.
     */
    movhi sp, %hi(__alt_stack_pointer)
 1000198:	06c040b4 	movhi	sp,258
    ori sp, sp, %lo(__alt_stack_pointer)
 100019c:	dec20014 	ori	sp,sp,2048
    movhi gp, %hi(_gp)
 10001a0:	06804074 	movhi	gp,257
    ori gp, gp, %lo(_gp)
 10001a4:	d6ac3614 	ori	gp,gp,45272
 */
#ifndef ALT_SIM_OPTIMIZE
    /* Log that the BSS is about to be cleared. */
    ALT_LOG_PUTS(alt_log_msg_bss)

    movhi r2, %hi(__bss_start)
 10001a8:	00804074 	movhi	r2,257
    ori r2, r2, %lo(__bss_start)
 10001ac:	108dbb14 	ori	r2,r2,14060

    movhi r3, %hi(__bss_end)
 10001b0:	00c04074 	movhi	r3,257
    ori r3, r3, %lo(__bss_end)
 10001b4:	18cffd14 	ori	r3,r3,16372

    beq r2, r3, 1f
 10001b8:	10c00326 	beq	r2,r3,10001c8 <_start+0x40>

0:
    stw zero, (r2)
 10001bc:	10000015 	stw	zero,0(r2)
    addi r2, r2, 4
 10001c0:	10800104 	addi	r2,r2,4
    bltu r2, r3, 0b
 10001c4:	10fffd36 	bltu	r2,r3,10001bc <__alt_data_end+0xfffdf9bc>
     * section aren't defined until alt_load() has been called).
     */
    mov   et, zero
#endif

    call alt_load
 10001c8:	101139c0 	call	101139c <alt_load>

    /* Log that alt_main is about to be called. */
    ALT_LOG_PUTS(alt_log_msg_alt_main)

    /* Call the C entry point. It should never return. */
    call alt_main
 10001cc:	10114940 	call	1011494 <alt_main>

010001d0 <alt_after_alt_main>:

    /* Wait in infinite loop in case alt_main does return. */
alt_after_alt_main:
    br alt_after_alt_main
 10001d0:	003fff06 	br	10001d0 <__alt_data_end+0xfffdf9d0>

010001d4 <USB_WakeUpCfg_Event>:
{
    printf("\nSuspend\n");
}

void USB_WakeUpCfg_Event(sls_avalon_usb20sr_dev *usb20dev, unsigned char cfg)
{
 10001d4:	f800283a 	ret

010001d8 <HandleClassSpecificDescriptorRequests>:
{

}
void HandleClassSpecificDescriptorRequests(volatile __CONTROL_REQUEST_STATUS *CONTROL_REQUEST_STATUS,
										volatile unsigned int base, char stage)
{
 10001d8:	defff204 	addi	sp,sp,-56
 10001dc:	d9400d15 	stw	r5,52(sp)
				0x09, 0x31, 0x15, 0x81,\
				0x25, 0x7f, 0x75, 0x08,\
				0x95, 0x02, 0x81, 0x06,\
				0xc0, 0xc0			};

	CONTROL_REQUEST_STATUS->sizeOfDataStageData = sizeof(Buffer);
 10001e0:	00800c84 	movi	r2,50
 10001e4:	20800415 	stw	r2,16(r4)
	CONTROL_REQUEST_STATUS->PDataStageData = Buffer;
 10001e8:	26c00115 	stw	sp,4(r4)

}
 10001ec:	dec00e04 	addi	sp,sp,56
 10001f0:	f800283a 	ret

010001f4 <USB_Attached_Event>:
    return 0;
}

void USB_Attached_Event(sls_avalon_usb20sr_dev *usb20dev)
{
    printf("\nAttEvent\n");
 10001f4:	01004074 	movhi	r4,257
 10001f8:	2107fa04 	addi	r4,r4,8168
 10001fc:	1010b241 	jmpi	1010b24 <puts>

01000200 <USB_Detached_Event>:
}

void USB_Detached_Event(sls_avalon_usb20sr_dev *usb20dev)
{
    printf("\nDetaEvent\n");
 1000200:	01004074 	movhi	r4,257
 1000204:	2107fd04 	addi	r4,r4,8180
 1000208:	1010b241 	jmpi	1010b24 <puts>

0100020c <USB_Reset_Event>:
}

void USB_Reset_Event(sls_avalon_usb20sr_dev *usb20dev)
{
    printf("\nResetEvent\n");
 100020c:	01004074 	movhi	r4,257
 1000210:	21080004 	addi	r4,r4,8192
 1000214:	1010b241 	jmpi	1010b24 <puts>

01000218 <USB_Resume_Event>:
}

void USB_Resume_Event(sls_avalon_usb20sr_dev *usb20dev)
{
    printf("\nResume\n");
 1000218:	01004074 	movhi	r4,257
 100021c:	21080304 	addi	r4,r4,8204
 1000220:	1010b241 	jmpi	1010b24 <puts>

01000224 <USB_Suspend_Event>:
}

void USB_Suspend_Event(sls_avalon_usb20sr_dev *usb20dev)
{
    printf("\nSuspend\n");
 1000224:	01004074 	movhi	r4,257
 1000228:	21080504 	addi	r4,r4,8212
 100022c:	1010b241 	jmpi	1010b24 <puts>

01000230 <HandleClassSpecificControlRequests>:
	CONTROL_REQUEST_STATUS->PDataStageData = Buffer;

}
void HandleClassSpecificControlRequests(volatile __CONTROL_REQUEST_STATUS *PCtrlReqStatus,
										volatile unsigned int base, char stage)
{
 1000230:	deffff04 	addi	sp,sp,-4
 1000234:	d9400015 	stw	r5,0(sp)
    if(PCtrlReqStatus->PUsbCtrlReq->bmRequestType.RequestType == 0x01)
 1000238:	20800617 	ldw	r2,24(r4)
 100023c:	00c00804 	movi	r3,32
 1000240:	10800003 	ldbu	r2,0(r2)
 1000244:	1080180c 	andi	r2,r2,96
 1000248:	10c0521e 	bne	r2,r3,1000394 <HandleClassSpecificControlRequests+0x164>
    {
        //if Class specific request is there
    
        //printf("Class Req\n");
        if(     (PCtrlReqStatus->PUsbCtrlReq->bRequest == 0xFE)                &&
 100024c:	20c00617 	ldw	r3,24(r4)
 1000250:	19400043 	ldbu	r5,1(r3)
 1000254:	00c03f84 	movi	r3,254
 1000258:	28c01f1e 	bne	r5,r3,10002d8 <HandleClassSpecificControlRequests+0xa8>
            (PCtrlReqStatus->PUsbCtrlReq->bmRequestType.Direction == 1)    &&
 100025c:	20c00617 	ldw	r3,24(r4)
 1000260:	18c00003 	ldbu	r3,0(r3)
    if(PCtrlReqStatus->PUsbCtrlReq->bmRequestType.RequestType == 0x01)
    {
        //if Class specific request is there
    
        //printf("Class Req\n");
        if(     (PCtrlReqStatus->PUsbCtrlReq->bRequest == 0xFE)                &&
 1000264:	18c0200c 	andi	r3,r3,128
 1000268:	18001b26 	beq	r3,zero,10002d8 <HandleClassSpecificControlRequests+0xa8>
            (PCtrlReqStatus->PUsbCtrlReq->bmRequestType.Direction == 1)    &&
            (PCtrlReqStatus->PUsbCtrlReq->bmRequestType.RequestType == 1)  &&
 100026c:	20c00617 	ldw	r3,24(r4)
 1000270:	18c00003 	ldbu	r3,0(r3)
    {
        //if Class specific request is there
    
        //printf("Class Req\n");
        if(     (PCtrlReqStatus->PUsbCtrlReq->bRequest == 0xFE)                &&
            (PCtrlReqStatus->PUsbCtrlReq->bmRequestType.Direction == 1)    &&
 1000274:	18c0180c 	andi	r3,r3,96
 1000278:	1880171e 	bne	r3,r2,10002d8 <HandleClassSpecificControlRequests+0xa8>
            (PCtrlReqStatus->PUsbCtrlReq->bmRequestType.RequestType == 1)  &&
            (PCtrlReqStatus->PUsbCtrlReq->wIndex.Value == 0)               &&
 100027c:	20800617 	ldw	r2,24(r4)
 1000280:	10c00083 	ldbu	r3,2(r2)
 1000284:	108000c3 	ldbu	r2,3(r2)
 1000288:	1004923a 	slli	r2,r2,8
        //if Class specific request is there
    
        //printf("Class Req\n");
        if(     (PCtrlReqStatus->PUsbCtrlReq->bRequest == 0xFE)                &&
            (PCtrlReqStatus->PUsbCtrlReq->bmRequestType.Direction == 1)    &&
            (PCtrlReqStatus->PUsbCtrlReq->bmRequestType.RequestType == 1)  &&
 100028c:	10c4b03a 	or	r2,r2,r3
 1000290:	1000111e 	bne	r2,zero,10002d8 <HandleClassSpecificControlRequests+0xa8>
            (PCtrlReqStatus->PUsbCtrlReq->wIndex.Value == 0)               &&
            (PCtrlReqStatus->PUsbCtrlReq->wValue.Value == 0)               &&
 1000294:	20800617 	ldw	r2,24(r4)
 1000298:	10c00103 	ldbu	r3,4(r2)
 100029c:	10800143 	ldbu	r2,5(r2)
 10002a0:	1004923a 	slli	r2,r2,8
    
        //printf("Class Req\n");
        if(     (PCtrlReqStatus->PUsbCtrlReq->bRequest == 0xFE)                &&
            (PCtrlReqStatus->PUsbCtrlReq->bmRequestType.Direction == 1)    &&
            (PCtrlReqStatus->PUsbCtrlReq->bmRequestType.RequestType == 1)  &&
            (PCtrlReqStatus->PUsbCtrlReq->wIndex.Value == 0)               &&
 10002a4:	10c4b03a 	or	r2,r2,r3
 10002a8:	10000b1e 	bne	r2,zero,10002d8 <HandleClassSpecificControlRequests+0xa8>
            (PCtrlReqStatus->PUsbCtrlReq->wValue.Value == 0)               &&
            (PCtrlReqStatus->PUsbCtrlReq->wLength == 1)         )
 10002ac:	20800617 	ldw	r2,24(r4)
 10002b0:	10c00183 	ldbu	r3,6(r2)
 10002b4:	108001c3 	ldbu	r2,7(r2)
 10002b8:	1004923a 	slli	r2,r2,8
        //printf("Class Req\n");
        if(     (PCtrlReqStatus->PUsbCtrlReq->bRequest == 0xFE)                &&
            (PCtrlReqStatus->PUsbCtrlReq->bmRequestType.Direction == 1)    &&
            (PCtrlReqStatus->PUsbCtrlReq->bmRequestType.RequestType == 1)  &&
            (PCtrlReqStatus->PUsbCtrlReq->wIndex.Value == 0)               &&
            (PCtrlReqStatus->PUsbCtrlReq->wValue.Value == 0)               &&
 10002bc:	10c4b03a 	or	r2,r2,r3
 10002c0:	00c00044 	movi	r3,1
 10002c4:	10c0041e 	bne	r2,r3,10002d8 <HandleClassSpecificControlRequests+0xa8>
            (PCtrlReqStatus->PUsbCtrlReq->wLength == 1)         )
        {
            //printf("GetMaxLUN\n");
            PCtrlReqStatus->sizeOfDataStageData = 1;
 10002c8:	20800415 	stw	r2,16(r4)
            PCtrlReqStatus->PDataStageData = &DataToBeSent;
 10002cc:	d0a18504 	addi	r2,gp,-31212
 10002d0:	20800115 	stw	r2,4(r4)
 10002d4:	00002f06 	br	1000394 <HandleClassSpecificControlRequests+0x164>
        }
        else if(    (PCtrlReqStatus->PUsbCtrlReq->bRequest == 0xFF)                   &&
 10002d8:	20800617 	ldw	r2,24(r4)
 10002dc:	10c00043 	ldbu	r3,1(r2)
 10002e0:	00803fc4 	movi	r2,255
 10002e4:	1880261e 	bne	r3,r2,1000380 <HandleClassSpecificControlRequests+0x150>
                    (PCtrlReqStatus->PUsbCtrlReq->bmRequestType.Direction == 0)       &&
 10002e8:	20800617 	ldw	r2,24(r4)
 10002ec:	10800003 	ldbu	r2,0(r2)
        {
            //printf("GetMaxLUN\n");
            PCtrlReqStatus->sizeOfDataStageData = 1;
            PCtrlReqStatus->PDataStageData = &DataToBeSent;
        }
        else if(    (PCtrlReqStatus->PUsbCtrlReq->bRequest == 0xFF)                   &&
 10002f0:	1080200c 	andi	r2,r2,128
 10002f4:	1000221e 	bne	r2,zero,1000380 <HandleClassSpecificControlRequests+0x150>
                    (PCtrlReqStatus->PUsbCtrlReq->bmRequestType.Direction == 0)       &&
                    (PCtrlReqStatus->PUsbCtrlReq->bmRequestType.RequestType == 1)     &&
 10002f8:	20800617 	ldw	r2,24(r4)
            //printf("GetMaxLUN\n");
            PCtrlReqStatus->sizeOfDataStageData = 1;
            PCtrlReqStatus->PDataStageData = &DataToBeSent;
        }
        else if(    (PCtrlReqStatus->PUsbCtrlReq->bRequest == 0xFF)                   &&
                    (PCtrlReqStatus->PUsbCtrlReq->bmRequestType.Direction == 0)       &&
 10002fc:	00c00804 	movi	r3,32
                    (PCtrlReqStatus->PUsbCtrlReq->bmRequestType.RequestType == 1)     &&
 1000300:	10800003 	ldbu	r2,0(r2)
            //printf("GetMaxLUN\n");
            PCtrlReqStatus->sizeOfDataStageData = 1;
            PCtrlReqStatus->PDataStageData = &DataToBeSent;
        }
        else if(    (PCtrlReqStatus->PUsbCtrlReq->bRequest == 0xFF)                   &&
                    (PCtrlReqStatus->PUsbCtrlReq->bmRequestType.Direction == 0)       &&
 1000304:	1080180c 	andi	r2,r2,96
 1000308:	10c01d1e 	bne	r2,r3,1000380 <HandleClassSpecificControlRequests+0x150>
                    (PCtrlReqStatus->PUsbCtrlReq->bmRequestType.RequestType == 1)     &&
                    (PCtrlReqStatus->PUsbCtrlReq->wIndex.Value == 0)                  &&
 100030c:	20800617 	ldw	r2,24(r4)
 1000310:	10c00083 	ldbu	r3,2(r2)
 1000314:	108000c3 	ldbu	r2,3(r2)
 1000318:	1004923a 	slli	r2,r2,8
            PCtrlReqStatus->sizeOfDataStageData = 1;
            PCtrlReqStatus->PDataStageData = &DataToBeSent;
        }
        else if(    (PCtrlReqStatus->PUsbCtrlReq->bRequest == 0xFF)                   &&
                    (PCtrlReqStatus->PUsbCtrlReq->bmRequestType.Direction == 0)       &&
                    (PCtrlReqStatus->PUsbCtrlReq->bmRequestType.RequestType == 1)     &&
 100031c:	10c4b03a 	or	r2,r2,r3
 1000320:	1000171e 	bne	r2,zero,1000380 <HandleClassSpecificControlRequests+0x150>
                    (PCtrlReqStatus->PUsbCtrlReq->wIndex.Value == 0)                  &&
                    (PCtrlReqStatus->PUsbCtrlReq->wValue.Value == 0)                  &&
 1000324:	20800617 	ldw	r2,24(r4)
 1000328:	10c00103 	ldbu	r3,4(r2)
 100032c:	10800143 	ldbu	r2,5(r2)
 1000330:	1004923a 	slli	r2,r2,8
            PCtrlReqStatus->PDataStageData = &DataToBeSent;
        }
        else if(    (PCtrlReqStatus->PUsbCtrlReq->bRequest == 0xFF)                   &&
                    (PCtrlReqStatus->PUsbCtrlReq->bmRequestType.Direction == 0)       &&
                    (PCtrlReqStatus->PUsbCtrlReq->bmRequestType.RequestType == 1)     &&
                    (PCtrlReqStatus->PUsbCtrlReq->wIndex.Value == 0)                  &&
 1000334:	10c4b03a 	or	r2,r2,r3
 1000338:	1000111e 	bne	r2,zero,1000380 <HandleClassSpecificControlRequests+0x150>
                    (PCtrlReqStatus->PUsbCtrlReq->wValue.Value == 0)                  &&
                    (PCtrlReqStatus->PUsbCtrlReq->wLength == 0))
 100033c:	20800617 	ldw	r2,24(r4)
 1000340:	10c00183 	ldbu	r3,6(r2)
 1000344:	108001c3 	ldbu	r2,7(r2)
 1000348:	1004923a 	slli	r2,r2,8
        }
        else if(    (PCtrlReqStatus->PUsbCtrlReq->bRequest == 0xFF)                   &&
                    (PCtrlReqStatus->PUsbCtrlReq->bmRequestType.Direction == 0)       &&
                    (PCtrlReqStatus->PUsbCtrlReq->bmRequestType.RequestType == 1)     &&
                    (PCtrlReqStatus->PUsbCtrlReq->wIndex.Value == 0)                  &&
                    (PCtrlReqStatus->PUsbCtrlReq->wValue.Value == 0)                  &&
 100034c:	10c4b03a 	or	r2,r2,r3
 1000350:	10000b1e 	bne	r2,zero,1000380 <HandleClassSpecificControlRequests+0x150>
                    (PCtrlReqStatus->PUsbCtrlReq->wLength == 0))
        {
            int csr = IORD_32DIRECT(base, 0x50);
 1000354:	d8800017 	ldw	r2,0(sp)
 1000358:	10801437 	ldwio	r2,80(r2)
            IOWR_32DIRECT(base, 0x50, csr | 0x00800000);
 100035c:	d8c00017 	ldw	r3,0(sp)
 1000360:	10802034 	orhi	r2,r2,128
 1000364:	18801435 	stwio	r2,80(r3)
			csr = IORD_32DIRECT(base, 0x60);
 1000368:	d8800017 	ldw	r2,0(sp)
 100036c:	10801837 	ldwio	r2,96(r2)
            IOWR_32DIRECT(base, 0x60, csr | 0x00800000);
 1000370:	d8c00017 	ldw	r3,0(sp)
 1000374:	10802034 	orhi	r2,r2,128
 1000378:	18801835 	stwio	r2,96(r3)
                    (PCtrlReqStatus->PUsbCtrlReq->bmRequestType.Direction == 0)       &&
                    (PCtrlReqStatus->PUsbCtrlReq->bmRequestType.RequestType == 1)     &&
                    (PCtrlReqStatus->PUsbCtrlReq->wIndex.Value == 0)                  &&
                    (PCtrlReqStatus->PUsbCtrlReq->wValue.Value == 0)                  &&
                    (PCtrlReqStatus->PUsbCtrlReq->wLength == 0))
        {
 100037c:	00000506 	br	1000394 <HandleClassSpecificControlRequests+0x164>
            IOWR_32DIRECT(base, 0x60, csr | 0x00800000);
        }
        else
        {
//            printf("Bad control request\n");
            int csr = IORD_32DIRECT(base, 0x40);
 1000380:	d8800017 	ldw	r2,0(sp)
 1000384:	10801037 	ldwio	r2,64(r2)
            IOWR_32DIRECT(base, 0x40, csr | 0x00800000);
 1000388:	d8c00017 	ldw	r3,0(sp)
 100038c:	10802034 	orhi	r2,r2,128
 1000390:	18801035 	stwio	r2,64(r3)
        }
    }
}
 1000394:	dec00104 	addi	sp,sp,4
 1000398:	f800283a 	ret

0100039c <usb20sr_error_event>:

#define PRINTF_USB_EVENT(str,...) printf(str,##__VA_ARGS__)

void usb20sr_error_event(int event)
{
	volatile int data = event & ERROR_CODE_MASK;
 100039c:	00800834 	movhi	r2,32
 10003a0:	10a3ffc4 	addi	r2,r2,-28673
}

#define PRINTF_USB_EVENT(str,...) printf(str,##__VA_ARGS__)

void usb20sr_error_event(int event)
{
 10003a4:	defffd04 	addi	sp,sp,-12
	volatile int data = event & ERROR_CODE_MASK;
 10003a8:	2084703a 	and	r2,r4,r2
}

#define PRINTF_USB_EVENT(str,...) printf(str,##__VA_ARGS__)

void usb20sr_error_event(int event)
{
 10003ac:	dc000115 	stw	r16,4(sp)
	volatile int data = event & ERROR_CODE_MASK;
 10003b0:	d8800015 	stw	r2,0(sp)
}

#define PRINTF_USB_EVENT(str,...) printf(str,##__VA_ARGS__)

void usb20sr_error_event(int event)
{
 10003b4:	dfc00215 	stw	ra,8(sp)
	volatile int data = event & ERROR_CODE_MASK;

	if(event & EP_NO_FROM_GENERATED_ERROR_MASK)
 10003b8:	20b3c02c 	andhi	r2,r4,52992
}

#define PRINTF_USB_EVENT(str,...) printf(str,##__VA_ARGS__)

void usb20sr_error_event(int event)
{
 10003bc:	2021883a 	mov	r16,r4
	volatile int data = event & ERROR_CODE_MASK;

	if(event & EP_NO_FROM_GENERATED_ERROR_MASK)
 10003c0:	10001626 	beq	r2,zero,100041c <usb20sr_error_event+0x80>
	{
		if(((event & EP_TYPE_MASK) >> 30) == IN_EP_TYPE)
 10003c4:	2004d7ba 	srli	r2,r4,30
 10003c8:	00c00044 	movi	r3,1
 10003cc:	10c0031e 	bne	r2,r3,10003dc <usb20sr_error_event+0x40>
			PRINTF_USB_EVENT("IN ");
 10003d0:	01004074 	movhi	r4,257
 10003d4:	21080804 	addi	r4,r4,8224
 10003d8:	00000906 	br	1000400 <usb20sr_error_event+0x64>
		else if(((event & EP_TYPE_MASK) >> 30) == OUT_EP_TYPE)
 10003dc:	00c00084 	movi	r3,2
 10003e0:	10c0031e 	bne	r2,r3,10003f0 <usb20sr_error_event+0x54>
			PRINTF_USB_EVENT("OUT ");
 10003e4:	01004074 	movhi	r4,257
 10003e8:	21080904 	addi	r4,r4,8228
 10003ec:	00000406 	br	1000400 <usb20sr_error_event+0x64>
		else if(((event & EP_TYPE_MASK) >> 30) == CONTROL_EP_TYPE)
 10003f0:	00c000c4 	movi	r3,3
 10003f4:	10c0031e 	bne	r2,r3,1000404 <usb20sr_error_event+0x68>
			PRINTF_USB_EVENT("CONTROL ");
 10003f8:	01004074 	movhi	r4,257
 10003fc:	21080b04 	addi	r4,r4,8236
 1000400:	1010a380 	call	1010a38 <printf>

		PRINTF_USB_EVENT("Endpoint %d cause ", (event & EP_NO_MASK) >> 24);
 1000404:	8143c02c 	andhi	r5,r16,3840
 1000408:	280ad63a 	srli	r5,r5,24
 100040c:	01004074 	movhi	r4,257
 1000410:	21080e04 	addi	r4,r4,8248
 1000414:	1010a380 	call	1010a38 <printf>
 1000418:	00000306 	br	1000428 <usb20sr_error_event+0x8c>
	}
	else
		PRINTF_USB_EVENT("\nUSB cause ");
 100041c:	01004074 	movhi	r4,257
 1000420:	21081304 	addi	r4,r4,8268
 1000424:	1010a380 	call	1010a38 <printf>

	if(data & TIME_OUT_ERROR)
 1000428:	d8800017 	ldw	r2,0(sp)
 100042c:	1080004c 	andi	r2,r2,1
 1000430:	10000326 	beq	r2,zero,1000440 <usb20sr_error_event+0xa4>
		PRINTF_USB_EVENT("TIME_OUT_ERROR\n");
 1000434:	01004074 	movhi	r4,257
 1000438:	21081604 	addi	r4,r4,8280
 100043c:	1010b240 	call	1010b24 <puts>

	if(data & BAD_PCK_ERROR)
 1000440:	d8800017 	ldw	r2,0(sp)
 1000444:	1080008c 	andi	r2,r2,2
 1000448:	10000326 	beq	r2,zero,1000458 <usb20sr_error_event+0xbc>
		PRINTF_USB_EVENT("BAD_PCK_ERROR\n");
 100044c:	01004074 	movhi	r4,257
 1000450:	21081a04 	addi	r4,r4,8296
 1000454:	1010b240 	call	1010b24 <puts>

	if(data & UNEXPTED_PID_ERROR)
 1000458:	d8800017 	ldw	r2,0(sp)
 100045c:	1080010c 	andi	r2,r2,4
 1000460:	10000326 	beq	r2,zero,1000470 <usb20sr_error_event+0xd4>
		PRINTF_USB_EVENT("UNEXPECTED_PID_ERROR\n");
 1000464:	01004074 	movhi	r4,257
 1000468:	21081e04 	addi	r4,r4,8312
 100046c:	1010b240 	call	1010b24 <puts>

	if(data & PID_SEQ_ERROR)
 1000470:	d8800017 	ldw	r2,0(sp)
 1000474:	1080080c 	andi	r2,r2,32
 1000478:	10000326 	beq	r2,zero,1000488 <usb20sr_error_event+0xec>
		PRINTF_USB_EVENT("PID_SEQ_ERROR\n");
 100047c:	01004074 	movhi	r4,257
 1000480:	21082404 	addi	r4,r4,8336
 1000484:	1010b240 	call	1010b24 <puts>

	if(data & BAD_TCKN_ERROR)
 1000488:	d8800017 	ldw	r2,0(sp)
 100048c:	1080400c 	andi	r2,r2,256
 1000490:	10000326 	beq	r2,zero,10004a0 <usb20sr_error_event+0x104>
		PRINTF_USB_EVENT("BAD_TCKN_ERROR\n");
 1000494:	01004074 	movhi	r4,257
 1000498:	21082804 	addi	r4,r4,8352
 100049c:	1010b240 	call	1010b24 <puts>

	if(data & PID_ERROR)
 10004a0:	d8800017 	ldw	r2,0(sp)
 10004a4:	1080800c 	andi	r2,r2,512
 10004a8:	10000326 	beq	r2,zero,10004b8 <usb20sr_error_event+0x11c>
		PRINTF_USB_EVENT("PID_ERROR\n");
 10004ac:	01004074 	movhi	r4,257
 10004b0:	21082c04 	addi	r4,r4,8368
 10004b4:	1010b240 	call	1010b24 <puts>

	if(data & NO_EP_ERROR)
 10004b8:	d8800017 	ldw	r2,0(sp)
 10004bc:	1081000c 	andi	r2,r2,1024
 10004c0:	10000326 	beq	r2,zero,10004d0 <usb20sr_error_event+0x134>
		PRINTF_USB_EVENT("NO_EP_ERROR\n");
 10004c4:	01004074 	movhi	r4,257
 10004c8:	21082f04 	addi	r4,r4,8380
 10004cc:	1010b240 	call	1010b24 <puts>

	if(data & UTMI_RX_ERROR)
 10004d0:	d8800017 	ldw	r2,0(sp)
 10004d4:	10a0000c 	andi	r2,r2,32768
 10004d8:	10000326 	beq	r2,zero,10004e8 <usb20sr_error_event+0x14c>
		PRINTF_USB_EVENT("UTMI_RX_ERROR\n");
 10004dc:	01004074 	movhi	r4,257
 10004e0:	21083204 	addi	r4,r4,8392
 10004e4:	1010b240 	call	1010b24 <puts>

	if(data & ISO_PKT_LOSS)
 10004e8:	d8800017 	ldw	r2,0(sp)
 10004ec:	1080200c 	andi	r2,r2,128
 10004f0:	10000326 	beq	r2,zero,1000500 <usb20sr_error_event+0x164>
		PRINTF_USB_EVENT("ISO_PKT_LOSS\n");
 10004f4:	01004074 	movhi	r4,257
 10004f8:	21083604 	addi	r4,r4,8408
 10004fc:	1010b240 	call	1010b24 <puts>
}
 1000500:	dfc00217 	ldw	ra,8(sp)
 1000504:	dc000117 	ldw	r16,4(sp)
 1000508:	dec00304 	addi	sp,sp,12
 100050c:	f800283a 	ret

01000510 <configure_usb20sr>:
sls_avalon_usb20sr_dev *pUsb20srDev;
sls_avalon_usb20sr_dev usb20srdev;

void configure_usb20sr(sls_avalon_usb20sr_dev *pUsb20srDev)
{
	usb_initialize_descriptor(pUsb20srDev,(unsigned char*)device_desc_,
 1000510:	00804074 	movhi	r2,257

sls_avalon_usb20sr_dev *pUsb20srDev;
sls_avalon_usb20sr_dev usb20srdev;

void configure_usb20sr(sls_avalon_usb20sr_dev *pUsb20srDev)
{
 1000514:	defff204 	addi	sp,sp,-56
	usb_initialize_descriptor(pUsb20srDev,(unsigned char*)device_desc_,
 1000518:	108baa04 	addi	r2,r2,11944
 100051c:	d8800015 	stw	r2,0(sp)
 1000520:	00800804 	movi	r2,32
 1000524:	d8800115 	stw	r2,4(sp)
 1000528:	d8800215 	stw	r2,8(sp)
 100052c:	d8800315 	stw	r2,12(sp)
 1000530:	00804074 	movhi	r2,257
 1000534:	108ba404 	addi	r2,r2,11920
 1000538:	d8800415 	stw	r2,16(sp)
 100053c:	00804074 	movhi	r2,257
 1000540:	108b8f84 	addi	r2,r2,11838
 1000544:	d8800515 	stw	r2,20(sp)
 1000548:	00800604 	movi	r2,24
 100054c:	d8800615 	stw	r2,24(sp)
 1000550:	00804074 	movhi	r2,257
 1000554:	108b8d04 	addi	r2,r2,11828
 1000558:	d8800715 	stw	r2,28(sp)
 100055c:	00804074 	movhi	r2,257
 1000560:	108b8504 	addi	r2,r2,11796
 1000564:	d8800815 	stw	r2,32(sp)
 1000568:	00804074 	movhi	r2,257
 100056c:	108b7d04 	addi	r2,r2,11764
 1000570:	01404074 	movhi	r5,257
 1000574:	01804074 	movhi	r6,257
 1000578:	01c04074 	movhi	r7,257
 100057c:	d8800915 	stw	r2,36(sp)
 1000580:	294bc204 	addi	r5,r5,12040
 1000584:	318bba04 	addi	r6,r6,12008
 1000588:	39cbb204 	addi	r7,r7,11976

sls_avalon_usb20sr_dev *pUsb20srDev;
sls_avalon_usb20sr_dev usb20srdev;

void configure_usb20sr(sls_avalon_usb20sr_dev *pUsb20srDev)
{
 100058c:	dfc00d15 	stw	ra,52(sp)
 1000590:	dc400c15 	stw	r17,48(sp)
 1000594:	dc000b15 	stw	r16,44(sp)
 1000598:	2021883a 	mov	r16,r4
	usb_initialize_descriptor(pUsb20srDev,(unsigned char*)device_desc_,
 100059c:	10090200 	call	1009020 <usb_initialize_descriptor>
										  sizeof(str_desc_indexes_),
										  (unsigned char*)device_quali_desc_,
										  (unsigned char*)other_speed_conf_desc_hs_,
										  (unsigned char*)other_speed_conf_desc_fs_);

	usb_ep_config(      pUsb20srDev,    SUPPORTED_CONF,     supported_ep_,      ep_ip_csr_hs_,      ep_ip_csr_fs_,		ep_ip_csr_ls_,
 10005a0:	00804074 	movhi	r2,257
 10005a4:	108b5f04 	addi	r2,r2,11644
 10005a8:	d8800015 	stw	r2,0(sp)
 10005ac:	00804074 	movhi	r2,257
 10005b0:	108b5004 	addi	r2,r2,11584
 10005b4:	d8800115 	stw	r2,4(sp)
 10005b8:	00804074 	movhi	r2,257
 10005bc:	108b4104 	addi	r2,r2,11524
 10005c0:	d8800215 	stw	r2,8(sp)
 10005c4:	00804074 	movhi	r2,257
 10005c8:	108b3204 	addi	r2,r2,11464
 10005cc:	d8800315 	stw	r2,12(sp)
 10005d0:	00804074 	movhi	r2,257
 10005d4:	108b2304 	addi	r2,r2,11404
 10005d8:	d8800415 	stw	r2,16(sp)
 10005dc:	00804074 	movhi	r2,257
 10005e0:	108b1404 	addi	r2,r2,11344
 10005e4:	d8800515 	stw	r2,20(sp)
 10005e8:	00804074 	movhi	r2,257
 10005ec:	108b0504 	addi	r2,r2,11284
 10005f0:	d8800615 	stw	r2,24(sp)
 10005f4:	00804074 	movhi	r2,257
 10005f8:	108af604 	addi	r2,r2,11224
 10005fc:	d8800715 	stw	r2,28(sp)
 1000600:	00804074 	movhi	r2,257
 1000604:	108ae704 	addi	r2,r2,11164
 1000608:	d8800815 	stw	r2,32(sp)
 100060c:	00804074 	movhi	r2,257
 1000610:	108ad804 	addi	r2,r2,11104
 1000614:	d8800915 	stw	r2,36(sp)
 1000618:	00804074 	movhi	r2,257
 100061c:	108ac904 	addi	r2,r2,11044
 1000620:	04400044 	movi	r17,1
 1000624:	01c04074 	movhi	r7,257
 1000628:	d8800a15 	stw	r2,40(sp)
 100062c:	8009883a 	mov	r4,r16
 1000630:	880b883a 	mov	r5,r17
 1000634:	d1a00004 	addi	r6,gp,-32768
 1000638:	39cb6e04 	addi	r7,r7,11704
 100063c:	10091180 	call	1009118 <usb_ep_config>
						ep_buf0_sz_hs_, ep_buf1_sz_hs_,     ep_buf0_sz_fs_,     ep_buf1_sz_fs_, 	ep_buf0_sz_ls_, 	ep_buf1_sz_ls_,
						ep_ip_int_hs,	ep_ip_int_fs,		ep_ip_int_ls     );
	
    //Use DMA/UDSC's BASE, IRQ & NAME from system.h file
	dma_config(pUsb20srDev, DMA_0_BASE, DMA_0_IRQ, DMA_0_NAME, DMA_FLAG);		     //set DMA_FLAG as 1 while using DMA
 1000640:	01400134 	movhi	r5,4
 1000644:	01c04074 	movhi	r7,257
 1000648:	8009883a 	mov	r4,r16
 100064c:	dc400015 	stw	r17,0(sp)
 1000650:	29442004 	addi	r5,r5,4224
 1000654:	018000c4 	movi	r6,3
 1000658:	39c83a04 	addi	r7,r7,8424
 100065c:	10091ec0 	call	10091ec <dma_config>
	//dma_config(pUsb20srDev, UDSC_0_BASE, UDSC_0_IRQ, UDSC_0_NAME, DMA_FLAG);	 //set DMA_FLAG as 0 while using UDSC

	usb20_event_isr(pUsb20srDev, USB_Attached_Event, USB_Detached_Event, USB_Reset_Event, USB_Resume_Event, USB_Suspend_Event, USB_WakeUpCfg_Event);
 1000660:	00804034 	movhi	r2,256
 1000664:	10808604 	addi	r2,r2,536
 1000668:	d8800015 	stw	r2,0(sp)
 100066c:	00804034 	movhi	r2,256
 1000670:	10808904 	addi	r2,r2,548
 1000674:	d8800115 	stw	r2,4(sp)
 1000678:	00804034 	movhi	r2,256
 100067c:	10807504 	addi	r2,r2,468
 1000680:	01404034 	movhi	r5,256
 1000684:	01804034 	movhi	r6,256
 1000688:	01c04034 	movhi	r7,256
 100068c:	d8800215 	stw	r2,8(sp)
 1000690:	8009883a 	mov	r4,r16
 1000694:	29407d04 	addi	r5,r5,500
 1000698:	31808004 	addi	r6,r6,512
 100069c:	39c08304 	addi	r7,r7,524
 10006a0:	100cd580 	call	100cd58 <usb20_event_isr>

	if(usb20sr_config(pUsb20srDev, USB20SR_BASE, USB20SR_IRQ, USB20SR_NAME, usb20sr_error_event, HandleClassSpecificControlRequests, HandleClassSpecificDescriptorRequests))
 10006a4:	00804034 	movhi	r2,256
 10006a8:	1080e704 	addi	r2,r2,924
 10006ac:	d8800015 	stw	r2,0(sp)
 10006b0:	00804034 	movhi	r2,256
 10006b4:	10808c04 	addi	r2,r2,560
 10006b8:	d8800115 	stw	r2,4(sp)
 10006bc:	00804034 	movhi	r2,256
 10006c0:	10807604 	addi	r2,r2,472
 10006c4:	01c04074 	movhi	r7,257
 10006c8:	d8800215 	stw	r2,8(sp)
 10006cc:	8009883a 	mov	r4,r16
 10006d0:	01400834 	movhi	r5,32
 10006d4:	01800084 	movi	r6,2
 10006d8:	39c83d04 	addi	r7,r7,8436
 10006dc:	100cc1c0 	call	100cc1c <usb20sr_config>
	{}
}
 10006e0:	dfc00d17 	ldw	ra,52(sp)
 10006e4:	dc400c17 	ldw	r17,48(sp)
 10006e8:	dc000b17 	ldw	r16,44(sp)
 10006ec:	dec00e04 	addi	sp,sp,56
 10006f0:	f800283a 	ret

010006f4 <USB_SOFRecved_Event>:
void USB_WakeUpCfg_Event(sls_avalon_usb20sr_dev *usb20dev, unsigned char cfg)
{
    //printf("\nWakeUpCfgEvent\n");
}
void USB_SOFRecved_Event(sls_avalon_usb20sr_dev *usb20dev)
{
 10006f4:	f800283a 	ret

010006f8 <main>:
	if(usb20sr_config(pUsb20srDev, USB20SR_BASE, USB20SR_IRQ, USB20SR_NAME, usb20sr_error_event, HandleClassSpecificControlRequests, HandleClassSpecificDescriptorRequests))
	{}
}

int main()
{
 10006f8:	023ffff4 	movhi	r8,65535
 10006fc:	421ffa04 	addi	r8,r8,32744
 1000700:	deffff04 	addi	sp,sp,-4
   	pUsb20srDev = &usb20srdev;
 1000704:	01004074 	movhi	r4,257
	if(usb20sr_config(pUsb20srDev, USB20SR_BASE, USB20SR_IRQ, USB20SR_NAME, usb20sr_error_event, HandleClassSpecificControlRequests, HandleClassSpecificDescriptorRequests))
	{}
}

int main()
{
 1000708:	dfc00015 	stw	ra,0(sp)
   	pUsb20srDev = &usb20srdev;
 100070c:	210e0004 	addi	r4,r4,14336
	if(usb20sr_config(pUsb20srDev, USB20SR_BASE, USB20SR_IRQ, USB20SR_NAME, usb20sr_error_event, HandleClassSpecificControlRequests, HandleClassSpecificDescriptorRequests))
	{}
}

int main()
{
 1000710:	da37883a 	add	sp,sp,r8
   	pUsb20srDev = &usb20srdev;
 1000714:	d1218615 	stw	r4,-31208(gp)

	configure_usb20sr(pUsb20srDev);
 1000718:	10005100 	call	1000510 <configure_usb20sr>

	usb20sr_disconnect(pUsb20srDev);
 100071c:	d1218617 	ldw	r4,-31208(gp)
 1000720:	1009da80 	call	1009da8 <usb20sr_disconnect>

	//usb20sr_set_dev_speed(pUsb20srDev, 0);     //Connect device in the full speed(0)/high speed(1) mode

	usb20sr_connect(pUsb20srDev);
 1000724:	d1218617 	ldw	r4,-31208(gp)
 1000728:	1009d400 	call	1009d40 <usb20sr_connect>

    printf("Connect USB Device..! \n");
 100072c:	01004074 	movhi	r4,257
 1000730:	21084104 	addi	r4,r4,8452
 1000734:	1010b240 	call	1010b24 <puts>
	while(!(ifConfigured(pUsb20srDev)));//Check whether device is Configured or not
 1000738:	d1218617 	ldw	r4,-31208(gp)
 100073c:	1008eb00 	call	1008eb0 <ifConfigured>
 1000740:	10803fcc 	andi	r2,r2,255
 1000744:	1080201c 	xori	r2,r2,128
 1000748:	10bfe004 	addi	r2,r2,-128
 100074c:	103ffa26 	beq	r2,zero,1000738 <__alt_data_end+0xfffdff38>
	printf("Device Configured \n");
 1000750:	01004074 	movhi	r4,257
 1000754:	21084704 	addi	r4,r4,8476
 1000758:	1010b240 	call	1010b24 <puts>

	SD_INFO MemInterfaceInfo = {0};
 100075c:	01a00614 	movui	r6,32792
 1000760:	d809883a 	mov	r4,sp
 1000764:	000b883a 	mov	r5,zero
 1000768:	10109dc0 	call	10109dc <memset>
    InitSD((SD_INFO *)&MemInterfaceInfo);
 100076c:	d809883a 	mov	r4,sp
 1000770:	10008a80 	call	10008a8 <InitSD>
    
    MassStorage_Main((SD_INFO *)&MemInterfaceInfo, pUsb20srDev);
 1000774:	d1618617 	ldw	r5,-31208(gp)
 1000778:	d809883a 	mov	r4,sp
 100077c:	10009d40 	call	10009d4 <MassStorage_Main>

    return 0;
}
 1000780:	0005883a 	mov	r2,zero
 1000784:	02200614 	movui	r8,32792
 1000788:	da37883a 	add	sp,sp,r8
 100078c:	dfc00017 	ldw	ra,0(sp)
 1000790:	dec00104 	addi	sp,sp,4
 1000794:	f800283a 	ret

01000798 <SD_card_init>:
 1000798:	defffe04 	addi	sp,sp,-8
 100079c:	df000115 	stw	fp,4(sp)
 10007a0:	df000104 	addi	fp,sp,4
 10007a4:	e13fff15 	stw	r4,-4(fp)
 10007a8:	00804074 	movhi	r2,257
 10007ac:	108dc804 	addi	r2,r2,14112
 10007b0:	10800017 	ldw	r2,0(r2)
 10007b4:	10800704 	addi	r2,r2,28
 10007b8:	10800037 	ldwio	r2,0(r2)
 10007bc:	1090000c 	andi	r2,r2,16384
 10007c0:	10001026 	beq	r2,zero,1000804 <SD_card_init+0x6c>
 10007c4:	00804074 	movhi	r2,257
 10007c8:	108dc804 	addi	r2,r2,14112
 10007cc:	10801c17 	ldw	r2,112(r2)
 10007d0:	1007883a 	mov	r3,r2
 10007d4:	00800044 	movi	r2,1
 10007d8:	10c4983a 	sll	r2,r2,r3
 10007dc:	1007883a 	mov	r3,r2
 10007e0:	e0bfff17 	ldw	r2,-4(fp)
 10007e4:	10c00215 	stw	r3,8(r2)
 10007e8:	00804074 	movhi	r2,257
 10007ec:	108dc804 	addi	r2,r2,14112
 10007f0:	10c01e17 	ldw	r3,120(r2)
 10007f4:	e0bfff17 	ldw	r2,-4(fp)
 10007f8:	10c00015 	stw	r3,0(r2)
 10007fc:	0005883a 	mov	r2,zero
 1000800:	00000106 	br	1000808 <SD_card_init+0x70>
 1000804:	00800044 	movi	r2,1
 1000808:	e037883a 	mov	sp,fp
 100080c:	df000017 	ldw	fp,0(sp)
 1000810:	dec00104 	addi	sp,sp,4
 1000814:	f800283a 	ret

01000818 <sd_write>:
 1000818:	defffb04 	addi	sp,sp,-20
 100081c:	dfc00415 	stw	ra,16(sp)
 1000820:	df000315 	stw	fp,12(sp)
 1000824:	df000304 	addi	fp,sp,12
 1000828:	e13ffd15 	stw	r4,-12(fp)
 100082c:	e17ffe15 	stw	r5,-8(fp)
 1000830:	e1bfff15 	stw	r6,-4(fp)
 1000834:	01004074 	movhi	r4,257
 1000838:	210dc804 	addi	r4,r4,14112
 100083c:	e17ffd17 	ldw	r5,-12(fp)
 1000840:	e1bffe17 	ldw	r6,-8(fp)
 1000844:	e1ffff17 	ldw	r7,-4(fp)
 1000848:	1007bfc0 	call	1007bfc <sdhc_write>
 100084c:	e037883a 	mov	sp,fp
 1000850:	dfc00117 	ldw	ra,4(sp)
 1000854:	df000017 	ldw	fp,0(sp)
 1000858:	dec00204 	addi	sp,sp,8
 100085c:	f800283a 	ret

01000860 <sd_read>:
 1000860:	defffb04 	addi	sp,sp,-20
 1000864:	dfc00415 	stw	ra,16(sp)
 1000868:	df000315 	stw	fp,12(sp)
 100086c:	df000304 	addi	fp,sp,12
 1000870:	e13ffd15 	stw	r4,-12(fp)
 1000874:	e17ffe15 	stw	r5,-8(fp)
 1000878:	e1bfff15 	stw	r6,-4(fp)
 100087c:	01004074 	movhi	r4,257
 1000880:	210dc804 	addi	r4,r4,14112
 1000884:	e17ffd17 	ldw	r5,-12(fp)
 1000888:	e1bffe17 	ldw	r6,-8(fp)
 100088c:	e1ffff17 	ldw	r7,-4(fp)
 1000890:	1007a6c0 	call	1007a6c <sdhc_read>
 1000894:	e037883a 	mov	sp,fp
 1000898:	dfc00117 	ldw	ra,4(sp)
 100089c:	df000017 	ldw	fp,0(sp)
 10008a0:	dec00204 	addi	sp,sp,8
 10008a4:	f800283a 	ret

010008a8 <InitSD>:
 10008a8:	defffd04 	addi	sp,sp,-12
 10008ac:	dfc00215 	stw	ra,8(sp)
 10008b0:	df000115 	stw	fp,4(sp)
 10008b4:	df000104 	addi	fp,sp,4
 10008b8:	e13fff15 	stw	r4,-4(fp)
 10008bc:	00804074 	movhi	r2,257
 10008c0:	108dc804 	addi	r2,r2,14112
 10008c4:	00c04034 	movhi	r3,256
 10008c8:	18fffc04 	addi	r3,r3,-16
 10008cc:	10c02115 	stw	r3,132(r2)
 10008d0:	00804074 	movhi	r2,257
 10008d4:	108dc804 	addi	r2,r2,14112
 10008d8:	00c40034 	movhi	r3,4096
 10008dc:	18fffc04 	addi	r3,r3,-16
 10008e0:	10c02215 	stw	r3,136(r2)
 10008e4:	00804074 	movhi	r2,257
 10008e8:	108dc804 	addi	r2,r2,14112
 10008ec:	00c04034 	movhi	r3,256
 10008f0:	18fffc04 	addi	r3,r3,-16
 10008f4:	10c02315 	stw	r3,140(r2)
 10008f8:	00804074 	movhi	r2,257
 10008fc:	108dc804 	addi	r2,r2,14112
 1000900:	00c04034 	movhi	r3,256
 1000904:	18e00004 	addi	r3,r3,-32768
 1000908:	10c02015 	stw	r3,128(r2)
 100090c:	00804074 	movhi	r2,257
 1000910:	108dc804 	addi	r2,r2,14112
 1000914:	00c17db4 	movhi	r3,1526
 1000918:	18f84004 	addi	r3,r3,-7936
 100091c:	10c02415 	stw	r3,144(r2)
 1000920:	01004074 	movhi	r4,257
 1000924:	210dc804 	addi	r4,r4,14112
 1000928:	01400134 	movhi	r5,4
 100092c:	29440004 	addi	r5,r5,4096
 1000930:	01800104 	movi	r6,4
 1000934:	1002cd40 	call	1002cd4 <sdhc_init>
 1000938:	1000050e 	bge	r2,zero,1000950 <InitSD+0xa8>
 100093c:	01004074 	movhi	r4,257
 1000940:	21084c04 	addi	r4,r4,8496
 1000944:	1010b240 	call	1010b24 <puts>
 1000948:	00bffd84 	movi	r2,-10
 100094c:	00001c06 	br	10009c0 <InitSD+0x118>
 1000950:	01004074 	movhi	r4,257
 1000954:	210dc804 	addi	r4,r4,14112
 1000958:	01400044 	movi	r5,1
 100095c:	10076d80 	call	10076d8 <sdhc_mode_select>
 1000960:	1000050e 	bge	r2,zero,1000978 <InitSD+0xd0>
 1000964:	01004074 	movhi	r4,257
 1000968:	21085104 	addi	r4,r4,8516
 100096c:	1010b240 	call	1010b24 <puts>
 1000970:	00bffd84 	movi	r2,-10
 1000974:	00001206 	br	10009c0 <InitSD+0x118>
 1000978:	01004074 	movhi	r4,257
 100097c:	210dc804 	addi	r4,r4,14112
 1000980:	10072a00 	call	10072a0 <sdhc_set_high_speed_mode>
 1000984:	00804074 	movhi	r2,257
 1000988:	108dc804 	addi	r2,r2,14112
 100098c:	10801c17 	ldw	r2,112(r2)
 1000990:	1007883a 	mov	r3,r2
 1000994:	00800044 	movi	r2,1
 1000998:	10c4983a 	sll	r2,r2,r3
 100099c:	1007883a 	mov	r3,r2
 10009a0:	e0bfff17 	ldw	r2,-4(fp)
 10009a4:	10c00215 	stw	r3,8(r2)
 10009a8:	00804074 	movhi	r2,257
 10009ac:	108dc804 	addi	r2,r2,14112
 10009b0:	10c01e17 	ldw	r3,120(r2)
 10009b4:	e0bfff17 	ldw	r2,-4(fp)
 10009b8:	10c00015 	stw	r3,0(r2)
 10009bc:	0005883a 	mov	r2,zero
 10009c0:	e037883a 	mov	sp,fp
 10009c4:	dfc00117 	ldw	ra,4(sp)
 10009c8:	df000017 	ldw	fp,0(sp)
 10009cc:	dec00204 	addi	sp,sp,8
 10009d0:	f800283a 	ret

010009d4 <MassStorage_Main>:
 10009d4:	defffc04 	addi	sp,sp,-16
 10009d8:	dfc00315 	stw	ra,12(sp)
 10009dc:	df000215 	stw	fp,8(sp)
 10009e0:	df000204 	addi	fp,sp,8
 10009e4:	e13ffe15 	stw	r4,-8(fp)
 10009e8:	e17fff15 	stw	r5,-4(fp)
 10009ec:	e13fff17 	ldw	r4,-4(fp)
 10009f0:	1000a500 	call	1000a50 <CommandTransport>
 10009f4:	1000011e 	bne	r2,zero,10009fc <MassStorage_Main+0x28>
 10009f8:	003ffc06 	br	10009ec <__alt_data_end+0xfffe01ec>
 10009fc:	00804074 	movhi	r2,257
 1000a00:	108df404 	addi	r2,r2,14288
 1000a04:	10800283 	ldbu	r2,10(r2)
 1000a08:	10803fcc 	andi	r2,r2,255
 1000a0c:	10000c26 	beq	r2,zero,1000a40 <MassStorage_Main+0x6c>
 1000a10:	00804074 	movhi	r2,257
 1000a14:	108df404 	addi	r2,r2,14288
 1000a18:	10800203 	ldbu	r2,8(r2)
 1000a1c:	10803fcc 	andi	r2,r2,255
 1000a20:	1000041e 	bne	r2,zero,1000a34 <MassStorage_Main+0x60>
 1000a24:	e13ffe17 	ldw	r4,-8(fp)
 1000a28:	e17fff17 	ldw	r5,-4(fp)
 1000a2c:	1000d000 	call	1000d00 <Data_Out>
 1000a30:	00000306 	br	1000a40 <MassStorage_Main+0x6c>
 1000a34:	e13ffe17 	ldw	r4,-8(fp)
 1000a38:	e17fff17 	ldw	r5,-4(fp)
 1000a3c:	10012f00 	call	10012f0 <Data_In>
 1000a40:	e13ffe17 	ldw	r4,-8(fp)
 1000a44:	e17fff17 	ldw	r5,-4(fp)
 1000a48:	1001b800 	call	1001b80 <StatusTransport>
 1000a4c:	003fe706 	br	10009ec <__alt_data_end+0xfffe01ec>

01000a50 <CommandTransport>:
 1000a50:	defff204 	addi	sp,sp,-56
 1000a54:	dfc00d15 	stw	ra,52(sp)
 1000a58:	df000c15 	stw	fp,48(sp)
 1000a5c:	df000c04 	addi	fp,sp,48
 1000a60:	e13fff15 	stw	r4,-4(fp)
 1000a64:	e0bfff17 	ldw	r2,-4(fp)
 1000a68:	10801517 	ldw	r2,84(r2)
 1000a6c:	e0bff515 	stw	r2,-44(fp)
 1000a70:	e03ff615 	stw	zero,-40(fp)
 1000a74:	0001883a 	nop
 1000a78:	e0bfff17 	ldw	r2,-4(fp)
 1000a7c:	10800e17 	ldw	r2,56(r2)
 1000a80:	103ffd1e 	bne	r2,zero,1000a78 <__alt_data_end+0xfffe0278>
 1000a84:	0001883a 	nop
 1000a88:	e13fff17 	ldw	r4,-4(fp)
 1000a8c:	01400084 	movi	r5,2
 1000a90:	100e7d40 	call	100e7d4 <usb20sr_check_bo_ready>
 1000a94:	e0bff615 	stw	r2,-40(fp)
 1000a98:	103ffb16 	blt	r2,zero,1000a88 <__alt_data_end+0xfffe0288>
 1000a9c:	e0fff617 	ldw	r3,-40(fp)
 1000aa0:	e1bff704 	addi	r6,fp,-36
 1000aa4:	00800044 	movi	r2,1
 1000aa8:	d8800015 	stw	r2,0(sp)
 1000aac:	e13fff17 	ldw	r4,-4(fp)
 1000ab0:	01400084 	movi	r5,2
 1000ab4:	180f883a 	mov	r7,r3
 1000ab8:	100e05c0 	call	100e05c <usb20sr_with_dma_read>
 1000abc:	e0bff615 	stw	r2,-40(fp)
 1000ac0:	e0bff704 	addi	r2,fp,-36
 1000ac4:	01004074 	movhi	r4,257
 1000ac8:	210df404 	addi	r4,r4,14288
 1000acc:	100b883a 	mov	r5,r2
 1000ad0:	01800104 	movi	r6,4
 1000ad4:	10109b40 	call	10109b4 <memcpy>
 1000ad8:	e0fff704 	addi	r3,fp,-36
 1000adc:	18c00104 	addi	r3,r3,4
 1000ae0:	00804074 	movhi	r2,257
 1000ae4:	108df404 	addi	r2,r2,14288
 1000ae8:	19000003 	ldbu	r4,0(r3)
 1000aec:	110006c5 	stb	r4,27(r2)
 1000af0:	19000043 	ldbu	r4,1(r3)
 1000af4:	11000705 	stb	r4,28(r2)
 1000af8:	19000083 	ldbu	r4,2(r3)
 1000afc:	11000745 	stb	r4,29(r2)
 1000b00:	18c000c3 	ldbu	r3,3(r3)
 1000b04:	10c00785 	stb	r3,30(r2)
 1000b08:	01004074 	movhi	r4,257
 1000b0c:	210dfd04 	addi	r4,r4,14324
 1000b10:	01404074 	movhi	r5,257
 1000b14:	294dfac4 	addi	r5,r5,14315
 1000b18:	01800104 	movi	r6,4
 1000b1c:	10109b40 	call	10109b4 <memcpy>
 1000b20:	e0bff903 	ldbu	r2,-28(fp)
 1000b24:	10c03fcc 	andi	r3,r2,255
 1000b28:	e0bff943 	ldbu	r2,-27(fp)
 1000b2c:	10803fcc 	andi	r2,r2,255
 1000b30:	1004923a 	slli	r2,r2,8
 1000b34:	1886b03a 	or	r3,r3,r2
 1000b38:	e0bff983 	ldbu	r2,-26(fp)
 1000b3c:	10803fcc 	andi	r2,r2,255
 1000b40:	1004943a 	slli	r2,r2,16
 1000b44:	1886b03a 	or	r3,r3,r2
 1000b48:	e0bff9c3 	ldbu	r2,-25(fp)
 1000b4c:	10803fcc 	andi	r2,r2,255
 1000b50:	1004963a 	slli	r2,r2,24
 1000b54:	1884b03a 	or	r2,r3,r2
 1000b58:	1007883a 	mov	r3,r2
 1000b5c:	00804074 	movhi	r2,257
 1000b60:	108df404 	addi	r2,r2,14288
 1000b64:	10c00115 	stw	r3,4(r2)
 1000b68:	e0fffa03 	ldbu	r3,-24(fp)
 1000b6c:	00804074 	movhi	r2,257
 1000b70:	108df404 	addi	r2,r2,14288
 1000b74:	10c00205 	stb	r3,8(r2)
 1000b78:	e0bffa43 	ldbu	r2,-23(fp)
 1000b7c:	108003cc 	andi	r2,r2,15
 1000b80:	1007883a 	mov	r3,r2
 1000b84:	00804074 	movhi	r2,257
 1000b88:	108df404 	addi	r2,r2,14288
 1000b8c:	10c00245 	stb	r3,9(r2)
 1000b90:	e0bffa83 	ldbu	r2,-22(fp)
 1000b94:	108007cc 	andi	r2,r2,31
 1000b98:	1007883a 	mov	r3,r2
 1000b9c:	00804074 	movhi	r2,257
 1000ba0:	108df404 	addi	r2,r2,14288
 1000ba4:	10c00285 	stb	r3,10(r2)
 1000ba8:	00804074 	movhi	r2,257
 1000bac:	108df404 	addi	r2,r2,14288
 1000bb0:	10800283 	ldbu	r2,10(r2)
 1000bb4:	10c03fcc 	andi	r3,r2,255
 1000bb8:	e0bff704 	addi	r2,fp,-36
 1000bbc:	108003c4 	addi	r2,r2,15
 1000bc0:	01004074 	movhi	r4,257
 1000bc4:	210df6c4 	addi	r4,r4,14299
 1000bc8:	100b883a 	mov	r5,r2
 1000bcc:	180d883a 	mov	r6,r3
 1000bd0:	10109b40 	call	10109b4 <memcpy>
 1000bd4:	00804074 	movhi	r2,257
 1000bd8:	108df404 	addi	r2,r2,14288
 1000bdc:	10c00017 	ldw	r3,0(r2)
 1000be0:	0090d0b4 	movhi	r2,17218
 1000be4:	1094d544 	addi	r2,r2,21333
 1000be8:	1880031e 	bne	r3,r2,1000bf8 <CommandTransport+0x1a8>
 1000bec:	e0bff617 	ldw	r2,-40(fp)
 1000bf0:	108007e0 	cmpeqi	r2,r2,31
 1000bf4:	10003c1e 	bne	r2,zero,1000ce8 <CommandTransport+0x298>
 1000bf8:	e0bff517 	ldw	r2,-44(fp)
 1000bfc:	10801404 	addi	r2,r2,80
 1000c00:	10800037 	ldwio	r2,0(r2)
 1000c04:	d0a18815 	stw	r2,-31200(gp)
 1000c08:	e0bff517 	ldw	r2,-44(fp)
 1000c0c:	10801404 	addi	r2,r2,80
 1000c10:	1007883a 	mov	r3,r2
 1000c14:	d0a18817 	ldw	r2,-31200(gp)
 1000c18:	10802034 	orhi	r2,r2,128
 1000c1c:	18800035 	stwio	r2,0(r3)
 1000c20:	e0bff517 	ldw	r2,-44(fp)
 1000c24:	10801404 	addi	r2,r2,80
 1000c28:	10800037 	ldwio	r2,0(r2)
 1000c2c:	d0a18815 	stw	r2,-31200(gp)
 1000c30:	0001883a 	nop
 1000c34:	e0bff517 	ldw	r2,-44(fp)
 1000c38:	10801404 	addi	r2,r2,80
 1000c3c:	10800037 	ldwio	r2,0(r2)
 1000c40:	1080202c 	andhi	r2,r2,128
 1000c44:	103ffb1e 	bne	r2,zero,1000c34 <__alt_data_end+0xfffe0434>
 1000c48:	e0bff517 	ldw	r2,-44(fp)
 1000c4c:	10801404 	addi	r2,r2,80
 1000c50:	1007883a 	mov	r3,r2
 1000c54:	d0a18817 	ldw	r2,-31200(gp)
 1000c58:	10802034 	orhi	r2,r2,128
 1000c5c:	18800035 	stwio	r2,0(r3)
 1000c60:	e0fff617 	ldw	r3,-40(fp)
 1000c64:	e1bff704 	addi	r6,fp,-36
 1000c68:	00800044 	movi	r2,1
 1000c6c:	d8800015 	stw	r2,0(sp)
 1000c70:	e13fff17 	ldw	r4,-4(fp)
 1000c74:	01400084 	movi	r5,2
 1000c78:	180f883a 	mov	r7,r3
 1000c7c:	100e05c0 	call	100e05c <usb20sr_with_dma_read>
 1000c80:	e0bff615 	stw	r2,-40(fp)
 1000c84:	e0bff517 	ldw	r2,-44(fp)
 1000c88:	10801404 	addi	r2,r2,80
 1000c8c:	10800037 	ldwio	r2,0(r2)
 1000c90:	d0a18815 	stw	r2,-31200(gp)
 1000c94:	0001883a 	nop
 1000c98:	e0bff517 	ldw	r2,-44(fp)
 1000c9c:	10801404 	addi	r2,r2,80
 1000ca0:	10800037 	ldwio	r2,0(r2)
 1000ca4:	1080202c 	andhi	r2,r2,128
 1000ca8:	103ffb1e 	bne	r2,zero,1000c98 <__alt_data_end+0xfffe0498>
 1000cac:	e0bff517 	ldw	r2,-44(fp)
 1000cb0:	10801404 	addi	r2,r2,80
 1000cb4:	10800037 	ldwio	r2,0(r2)
 1000cb8:	d0a18815 	stw	r2,-31200(gp)
 1000cbc:	e0bff517 	ldw	r2,-44(fp)
 1000cc0:	10801404 	addi	r2,r2,80
 1000cc4:	1007883a 	mov	r3,r2
 1000cc8:	d0a18817 	ldw	r2,-31200(gp)
 1000ccc:	1009883a 	mov	r4,r2
 1000cd0:	00bfe034 	movhi	r2,65408
 1000cd4:	10bfffc4 	addi	r2,r2,-1
 1000cd8:	2084703a 	and	r2,r4,r2
 1000cdc:	18800035 	stwio	r2,0(r3)
 1000ce0:	0005883a 	mov	r2,zero
 1000ce4:	00000106 	br	1000cec <CommandTransport+0x29c>
 1000ce8:	00800044 	movi	r2,1
 1000cec:	e037883a 	mov	sp,fp
 1000cf0:	dfc00117 	ldw	ra,4(sp)
 1000cf4:	df000017 	ldw	fp,0(sp)
 1000cf8:	dec00204 	addi	sp,sp,8
 1000cfc:	f800283a 	ret

01000d00 <Data_Out>:
 1000d00:	deff7104 	addi	sp,sp,-572
 1000d04:	dfc08e15 	stw	ra,568(sp)
 1000d08:	df008d15 	stw	fp,564(sp)
 1000d0c:	df008d04 	addi	fp,sp,564
 1000d10:	e13ffe15 	stw	r4,-8(fp)
 1000d14:	e17fff15 	stw	r5,-4(fp)
 1000d18:	e0bfff17 	ldw	r2,-4(fp)
 1000d1c:	10801517 	ldw	r2,84(r2)
 1000d20:	e0bf7715 	stw	r2,-548(fp)
 1000d24:	e03f7815 	stw	zero,-544(fp)
 1000d28:	e03f7415 	stw	zero,-560(fp)
 1000d2c:	e03f790d 	sth	zero,-540(fp)
 1000d30:	e03f7515 	stw	zero,-556(fp)
 1000d34:	e0bffe17 	ldw	r2,-8(fp)
 1000d38:	e0bf7a15 	stw	r2,-536(fp)
 1000d3c:	00804074 	movhi	r2,257
 1000d40:	108df404 	addi	r2,r2,14288
 1000d44:	10800117 	ldw	r2,4(r2)
 1000d48:	10a00028 	cmpgeui	r2,r2,32768
 1000d4c:	1000031e 	bne	r2,zero,1000d5c <Data_Out+0x5c>
 1000d50:	00808004 	movi	r2,512
 1000d54:	e0bf7515 	stw	r2,-556(fp)
 1000d58:	00000206 	br	1000d64 <Data_Out+0x64>
 1000d5c:	00a00014 	movui	r2,32768
 1000d60:	e0bf7515 	stw	r2,-556(fp)
 1000d64:	00804074 	movhi	r2,257
 1000d68:	108df404 	addi	r2,r2,14288
 1000d6c:	10800117 	ldw	r2,4(r2)
 1000d70:	1009883a 	mov	r4,r2
 1000d74:	e17f7517 	ldw	r5,-556(fp)
 1000d78:	100f7c40 	call	100f7c4 <__udivsi3>
 1000d7c:	e0bf7b15 	stw	r2,-532(fp)
 1000d80:	00804074 	movhi	r2,257
 1000d84:	108df404 	addi	r2,r2,14288
 1000d88:	10800117 	ldw	r2,4(r2)
 1000d8c:	1009883a 	mov	r4,r2
 1000d90:	e17f7517 	ldw	r5,-556(fp)
 1000d94:	100f7cc0 	call	100f7cc <__umodsi3>
 1000d98:	e0bf7c15 	stw	r2,-528(fp)
 1000d9c:	00804074 	movhi	r2,257
 1000da0:	108df404 	addi	r2,r2,14288
 1000da4:	10800483 	ldbu	r2,18(r2)
 1000da8:	10803fcc 	andi	r2,r2,255
 1000dac:	1004923a 	slli	r2,r2,8
 1000db0:	1007883a 	mov	r3,r2
 1000db4:	e0bf790b 	ldhu	r2,-540(fp)
 1000db8:	1884b03a 	or	r2,r3,r2
 1000dbc:	e0bf790d 	sth	r2,-540(fp)
 1000dc0:	00804074 	movhi	r2,257
 1000dc4:	108df404 	addi	r2,r2,14288
 1000dc8:	108004c3 	ldbu	r2,19(r2)
 1000dcc:	10c03fcc 	andi	r3,r2,255
 1000dd0:	e0bf790b 	ldhu	r2,-540(fp)
 1000dd4:	1884b03a 	or	r2,r3,r2
 1000dd8:	e0bf790d 	sth	r2,-540(fp)
 1000ddc:	e0ff7d04 	addi	r3,fp,-524
 1000de0:	e0bffd04 	addi	r2,fp,-12
 1000de4:	1809883a 	mov	r4,r3
 1000de8:	100b883a 	mov	r5,r2
 1000dec:	e1bf7a17 	ldw	r6,-536(fp)
 1000df0:	100e9f40 	call	100e9f4 <SCSI_To_ATA_Translation>
 1000df4:	10800058 	cmpnei	r2,r2,1
 1000df8:	1000011e 	bne	r2,zero,1000e00 <Data_Out+0x100>
 1000dfc:	00013706 	br	10012dc <Data_Out+0x5dc>
 1000e00:	e0bffe17 	ldw	r2,-8(fp)
 1000e04:	10800317 	ldw	r2,12(r2)
 1000e08:	e0bf7615 	stw	r2,-552(fp)
 1000e0c:	00804074 	movhi	r2,257
 1000e10:	108df404 	addi	r2,r2,14288
 1000e14:	10800117 	ldw	r2,4(r2)
 1000e18:	1000f826 	beq	r2,zero,10011fc <Data_Out+0x4fc>
 1000e1c:	00804074 	movhi	r2,257
 1000e20:	108df404 	addi	r2,r2,14288
 1000e24:	108002c3 	ldbu	r2,11(r2)
 1000e28:	10803fcc 	andi	r2,r2,255
 1000e2c:	10800a98 	cmpnei	r2,r2,42
 1000e30:	1000f21e 	bne	r2,zero,10011fc <Data_Out+0x4fc>
 1000e34:	e0bf790b 	ldhu	r2,-540(fp)
 1000e38:	1004927a 	slli	r2,r2,9
 1000e3c:	1007883a 	mov	r3,r2
 1000e40:	00804074 	movhi	r2,257
 1000e44:	108df404 	addi	r2,r2,14288
 1000e48:	10800117 	ldw	r2,4(r2)
 1000e4c:	1880751e 	bne	r3,r2,1001024 <Data_Out+0x324>
 1000e50:	e0bf7b17 	ldw	r2,-532(fp)
 1000e54:	10004026 	beq	r2,zero,1000f58 <Data_Out+0x258>
 1000e58:	e03f7415 	stw	zero,-560(fp)
 1000e5c:	00003206 	br	1000f28 <Data_Out+0x228>
 1000e60:	e0bf7a17 	ldw	r2,-536(fp)
 1000e64:	10c00404 	addi	r3,r2,16
 1000e68:	e13f7a17 	ldw	r4,-536(fp)
 1000e6c:	00a00414 	movui	r2,32784
 1000e70:	2085883a 	add	r2,r4,r2
 1000e74:	10c00015 	stw	r3,0(r2)
 1000e78:	e0ff7a17 	ldw	r3,-536(fp)
 1000e7c:	00a00414 	movui	r2,32784
 1000e80:	1885883a 	add	r2,r3,r2
 1000e84:	11800017 	ldw	r6,0(r2)
 1000e88:	e0ff7517 	ldw	r3,-556(fp)
 1000e8c:	00800044 	movi	r2,1
 1000e90:	d8800015 	stw	r2,0(sp)
 1000e94:	e13fff17 	ldw	r4,-4(fp)
 1000e98:	01400084 	movi	r5,2
 1000e9c:	180f883a 	mov	r7,r3
 1000ea0:	100e05c0 	call	100e05c <usb20sr_with_dma_read>
 1000ea4:	e0bf7517 	ldw	r2,-556(fp)
 1000ea8:	e0bf7815 	stw	r2,-544(fp)
 1000eac:	e0ff7a17 	ldw	r3,-536(fp)
 1000eb0:	00a00414 	movui	r2,32784
 1000eb4:	1885883a 	add	r2,r3,r2
 1000eb8:	10c00017 	ldw	r3,0(r2)
 1000ebc:	e0bf7817 	ldw	r2,-544(fp)
 1000ec0:	1809883a 	mov	r4,r3
 1000ec4:	100b883a 	mov	r5,r2
 1000ec8:	10112d80 	call	10112d8 <alt_dcache_flush>
 1000ecc:	e13f7617 	ldw	r4,-552(fp)
 1000ed0:	e0bf7817 	ldw	r2,-544(fp)
 1000ed4:	1000010e 	bge	r2,zero,1000edc <Data_Out+0x1dc>
 1000ed8:	10807fc4 	addi	r2,r2,511
 1000edc:	1005d27a 	srai	r2,r2,9
 1000ee0:	100b883a 	mov	r5,r2
 1000ee4:	e0ff7a17 	ldw	r3,-536(fp)
 1000ee8:	00a00414 	movui	r2,32784
 1000eec:	1885883a 	add	r2,r3,r2
 1000ef0:	10800017 	ldw	r2,0(r2)
 1000ef4:	100d883a 	mov	r6,r2
 1000ef8:	10008180 	call	1000818 <sd_write>
 1000efc:	e0bf7817 	ldw	r2,-544(fp)
 1000f00:	1000010e 	bge	r2,zero,1000f08 <Data_Out+0x208>
 1000f04:	10807fc4 	addi	r2,r2,511
 1000f08:	1005d27a 	srai	r2,r2,9
 1000f0c:	1007883a 	mov	r3,r2
 1000f10:	e0bf7617 	ldw	r2,-552(fp)
 1000f14:	10c5883a 	add	r2,r2,r3
 1000f18:	e0bf7615 	stw	r2,-552(fp)
 1000f1c:	e0bf7417 	ldw	r2,-560(fp)
 1000f20:	10800044 	addi	r2,r2,1
 1000f24:	e0bf7415 	stw	r2,-560(fp)
 1000f28:	e0ff7417 	ldw	r3,-560(fp)
 1000f2c:	e0bf7b17 	ldw	r2,-532(fp)
 1000f30:	18bfcb16 	blt	r3,r2,1000e60 <__alt_data_end+0xfffe0660>
 1000f34:	e0bf7a17 	ldw	r2,-536(fp)
 1000f38:	10c00317 	ldw	r3,12(r2)
 1000f3c:	e0bf7517 	ldw	r2,-556(fp)
 1000f40:	1008d27a 	srli	r4,r2,9
 1000f44:	e0bf7417 	ldw	r2,-560(fp)
 1000f48:	2085383a 	mul	r2,r4,r2
 1000f4c:	1887883a 	add	r3,r3,r2
 1000f50:	e0bf7a17 	ldw	r2,-536(fp)
 1000f54:	10c00315 	stw	r3,12(r2)
 1000f58:	e0bf7c17 	ldw	r2,-528(fp)
 1000f5c:	1000a626 	beq	r2,zero,10011f8 <Data_Out+0x4f8>
 1000f60:	e0bf7a17 	ldw	r2,-536(fp)
 1000f64:	10c00404 	addi	r3,r2,16
 1000f68:	e13f7a17 	ldw	r4,-536(fp)
 1000f6c:	00a00414 	movui	r2,32784
 1000f70:	2085883a 	add	r2,r4,r2
 1000f74:	10c00015 	stw	r3,0(r2)
 1000f78:	e0ff7a17 	ldw	r3,-536(fp)
 1000f7c:	00a00414 	movui	r2,32784
 1000f80:	1885883a 	add	r2,r3,r2
 1000f84:	10c00017 	ldw	r3,0(r2)
 1000f88:	00800044 	movi	r2,1
 1000f8c:	d8800015 	stw	r2,0(sp)
 1000f90:	e13fff17 	ldw	r4,-4(fp)
 1000f94:	01400084 	movi	r5,2
 1000f98:	180d883a 	mov	r6,r3
 1000f9c:	e1ff7c17 	ldw	r7,-528(fp)
 1000fa0:	100e05c0 	call	100e05c <usb20sr_with_dma_read>
 1000fa4:	e0bf7c17 	ldw	r2,-528(fp)
 1000fa8:	e0bf7815 	stw	r2,-544(fp)
 1000fac:	e0ff7a17 	ldw	r3,-536(fp)
 1000fb0:	00a00414 	movui	r2,32784
 1000fb4:	1885883a 	add	r2,r3,r2
 1000fb8:	10c00017 	ldw	r3,0(r2)
 1000fbc:	e0bf7817 	ldw	r2,-544(fp)
 1000fc0:	1809883a 	mov	r4,r3
 1000fc4:	100b883a 	mov	r5,r2
 1000fc8:	10112d80 	call	10112d8 <alt_dcache_flush>
 1000fcc:	e13f7617 	ldw	r4,-552(fp)
 1000fd0:	e0bf7817 	ldw	r2,-544(fp)
 1000fd4:	1000010e 	bge	r2,zero,1000fdc <Data_Out+0x2dc>
 1000fd8:	10807fc4 	addi	r2,r2,511
 1000fdc:	1005d27a 	srai	r2,r2,9
 1000fe0:	100b883a 	mov	r5,r2
 1000fe4:	e0ff7a17 	ldw	r3,-536(fp)
 1000fe8:	00a00414 	movui	r2,32784
 1000fec:	1885883a 	add	r2,r3,r2
 1000ff0:	10800017 	ldw	r2,0(r2)
 1000ff4:	100d883a 	mov	r6,r2
 1000ff8:	10008180 	call	1000818 <sd_write>
 1000ffc:	e0bf7a17 	ldw	r2,-536(fp)
 1001000:	10c00317 	ldw	r3,12(r2)
 1001004:	e0bf7817 	ldw	r2,-544(fp)
 1001008:	1000010e 	bge	r2,zero,1001010 <Data_Out+0x310>
 100100c:	10807fc4 	addi	r2,r2,511
 1001010:	1005d27a 	srai	r2,r2,9
 1001014:	1887883a 	add	r3,r3,r2
 1001018:	e0bf7a17 	ldw	r2,-536(fp)
 100101c:	10c00315 	stw	r3,12(r2)
 1001020:	0000ab06 	br	10012d0 <Data_Out+0x5d0>
 1001024:	e0bf7b17 	ldw	r2,-532(fp)
 1001028:	10004026 	beq	r2,zero,100112c <Data_Out+0x42c>
 100102c:	e03f7415 	stw	zero,-560(fp)
 1001030:	00003206 	br	10010fc <Data_Out+0x3fc>
 1001034:	e0bf7a17 	ldw	r2,-536(fp)
 1001038:	10c00404 	addi	r3,r2,16
 100103c:	e13f7a17 	ldw	r4,-536(fp)
 1001040:	00a00414 	movui	r2,32784
 1001044:	2085883a 	add	r2,r4,r2
 1001048:	10c00015 	stw	r3,0(r2)
 100104c:	e0ff7a17 	ldw	r3,-536(fp)
 1001050:	00a00414 	movui	r2,32784
 1001054:	1885883a 	add	r2,r3,r2
 1001058:	11800017 	ldw	r6,0(r2)
 100105c:	e0ff7517 	ldw	r3,-556(fp)
 1001060:	00800044 	movi	r2,1
 1001064:	d8800015 	stw	r2,0(sp)
 1001068:	e13fff17 	ldw	r4,-4(fp)
 100106c:	01400084 	movi	r5,2
 1001070:	180f883a 	mov	r7,r3
 1001074:	100e05c0 	call	100e05c <usb20sr_with_dma_read>
 1001078:	e0bf7517 	ldw	r2,-556(fp)
 100107c:	e0bf7815 	stw	r2,-544(fp)
 1001080:	e0ff7a17 	ldw	r3,-536(fp)
 1001084:	00a00414 	movui	r2,32784
 1001088:	1885883a 	add	r2,r3,r2
 100108c:	10c00017 	ldw	r3,0(r2)
 1001090:	e0bf7817 	ldw	r2,-544(fp)
 1001094:	1809883a 	mov	r4,r3
 1001098:	100b883a 	mov	r5,r2
 100109c:	10112d80 	call	10112d8 <alt_dcache_flush>
 10010a0:	e13f7617 	ldw	r4,-552(fp)
 10010a4:	e0bf7817 	ldw	r2,-544(fp)
 10010a8:	1000010e 	bge	r2,zero,10010b0 <Data_Out+0x3b0>
 10010ac:	10807fc4 	addi	r2,r2,511
 10010b0:	1005d27a 	srai	r2,r2,9
 10010b4:	100b883a 	mov	r5,r2
 10010b8:	e0ff7a17 	ldw	r3,-536(fp)
 10010bc:	00a00414 	movui	r2,32784
 10010c0:	1885883a 	add	r2,r3,r2
 10010c4:	10800017 	ldw	r2,0(r2)
 10010c8:	100d883a 	mov	r6,r2
 10010cc:	10008180 	call	1000818 <sd_write>
 10010d0:	e0bf7817 	ldw	r2,-544(fp)
 10010d4:	1000010e 	bge	r2,zero,10010dc <Data_Out+0x3dc>
 10010d8:	10807fc4 	addi	r2,r2,511
 10010dc:	1005d27a 	srai	r2,r2,9
 10010e0:	1007883a 	mov	r3,r2
 10010e4:	e0bf7617 	ldw	r2,-552(fp)
 10010e8:	10c5883a 	add	r2,r2,r3
 10010ec:	e0bf7615 	stw	r2,-552(fp)
 10010f0:	e0bf7417 	ldw	r2,-560(fp)
 10010f4:	10800044 	addi	r2,r2,1
 10010f8:	e0bf7415 	stw	r2,-560(fp)
 10010fc:	e0ff7417 	ldw	r3,-560(fp)
 1001100:	e0bf7b17 	ldw	r2,-532(fp)
 1001104:	18bfcb16 	blt	r3,r2,1001034 <__alt_data_end+0xfffe0834>
 1001108:	e0bf7a17 	ldw	r2,-536(fp)
 100110c:	10c00317 	ldw	r3,12(r2)
 1001110:	e0bf7517 	ldw	r2,-556(fp)
 1001114:	1008d27a 	srli	r4,r2,9
 1001118:	e0bf7417 	ldw	r2,-560(fp)
 100111c:	2085383a 	mul	r2,r4,r2
 1001120:	1887883a 	add	r3,r3,r2
 1001124:	e0bf7a17 	ldw	r2,-536(fp)
 1001128:	10c00315 	stw	r3,12(r2)
 100112c:	e0bf7c17 	ldw	r2,-528(fp)
 1001130:	10003126 	beq	r2,zero,10011f8 <Data_Out+0x4f8>
 1001134:	e0bf7a17 	ldw	r2,-536(fp)
 1001138:	10c00404 	addi	r3,r2,16
 100113c:	e13f7a17 	ldw	r4,-536(fp)
 1001140:	00a00414 	movui	r2,32784
 1001144:	2085883a 	add	r2,r4,r2
 1001148:	10c00015 	stw	r3,0(r2)
 100114c:	e0ff7a17 	ldw	r3,-536(fp)
 1001150:	00a00414 	movui	r2,32784
 1001154:	1885883a 	add	r2,r3,r2
 1001158:	10c00017 	ldw	r3,0(r2)
 100115c:	00800044 	movi	r2,1
 1001160:	d8800015 	stw	r2,0(sp)
 1001164:	e13fff17 	ldw	r4,-4(fp)
 1001168:	01400084 	movi	r5,2
 100116c:	180d883a 	mov	r6,r3
 1001170:	e1ff7c17 	ldw	r7,-528(fp)
 1001174:	100e05c0 	call	100e05c <usb20sr_with_dma_read>
 1001178:	e0bf7c17 	ldw	r2,-528(fp)
 100117c:	e0bf7815 	stw	r2,-544(fp)
 1001180:	e0ff7a17 	ldw	r3,-536(fp)
 1001184:	00a00414 	movui	r2,32784
 1001188:	1885883a 	add	r2,r3,r2
 100118c:	10c00017 	ldw	r3,0(r2)
 1001190:	e0bf7817 	ldw	r2,-544(fp)
 1001194:	1809883a 	mov	r4,r3
 1001198:	100b883a 	mov	r5,r2
 100119c:	10112d80 	call	10112d8 <alt_dcache_flush>
 10011a0:	e13f7617 	ldw	r4,-552(fp)
 10011a4:	e0bf7817 	ldw	r2,-544(fp)
 10011a8:	1000010e 	bge	r2,zero,10011b0 <Data_Out+0x4b0>
 10011ac:	10807fc4 	addi	r2,r2,511
 10011b0:	1005d27a 	srai	r2,r2,9
 10011b4:	100b883a 	mov	r5,r2
 10011b8:	e0ff7a17 	ldw	r3,-536(fp)
 10011bc:	00a00414 	movui	r2,32784
 10011c0:	1885883a 	add	r2,r3,r2
 10011c4:	10800017 	ldw	r2,0(r2)
 10011c8:	100d883a 	mov	r6,r2
 10011cc:	10008180 	call	1000818 <sd_write>
 10011d0:	e0bf7a17 	ldw	r2,-536(fp)
 10011d4:	10c00317 	ldw	r3,12(r2)
 10011d8:	e0bf7817 	ldw	r2,-544(fp)
 10011dc:	1000010e 	bge	r2,zero,10011e4 <Data_Out+0x4e4>
 10011e0:	10807fc4 	addi	r2,r2,511
 10011e4:	1005d27a 	srai	r2,r2,9
 10011e8:	1887883a 	add	r3,r3,r2
 10011ec:	e0bf7a17 	ldw	r2,-536(fp)
 10011f0:	10c00315 	stw	r3,12(r2)
 10011f4:	00003606 	br	10012d0 <Data_Out+0x5d0>
 10011f8:	00003506 	br	10012d0 <Data_Out+0x5d0>
 10011fc:	00804074 	movhi	r2,257
 1001200:	108df404 	addi	r2,r2,14288
 1001204:	10800117 	ldw	r2,4(r2)
 1001208:	10003126 	beq	r2,zero,10012d0 <Data_Out+0x5d0>
 100120c:	00804074 	movhi	r2,257
 1001210:	108df404 	addi	r2,r2,14288
 1001214:	108002c3 	ldbu	r2,11(r2)
 1001218:	10803fcc 	andi	r2,r2,255
 100121c:	10800aa0 	cmpeqi	r2,r2,42
 1001220:	10002b1e 	bne	r2,zero,10012d0 <Data_Out+0x5d0>
 1001224:	e0bf7717 	ldw	r2,-548(fp)
 1001228:	10801804 	addi	r2,r2,96
 100122c:	10800037 	ldwio	r2,0(r2)
 1001230:	d0a18815 	stw	r2,-31200(gp)
 1001234:	d0e18817 	ldw	r3,-31200(gp)
 1001238:	00900034 	movhi	r2,16384
 100123c:	10bfffc4 	addi	r2,r2,-1
 1001240:	1884703a 	and	r2,r3,r2
 1001244:	d0a18815 	stw	r2,-31200(gp)
 1001248:	e03f7415 	stw	zero,-560(fp)
 100124c:	00000e06 	br	1001288 <Data_Out+0x588>
 1001250:	e0ff7a17 	ldw	r3,-536(fp)
 1001254:	00a00414 	movui	r2,32784
 1001258:	1885883a 	add	r2,r3,r2
 100125c:	11800017 	ldw	r6,0(r2)
 1001260:	e0ff7517 	ldw	r3,-556(fp)
 1001264:	00800044 	movi	r2,1
 1001268:	d8800015 	stw	r2,0(sp)
 100126c:	e13fff17 	ldw	r4,-4(fp)
 1001270:	01400084 	movi	r5,2
 1001274:	180f883a 	mov	r7,r3
 1001278:	100e05c0 	call	100e05c <usb20sr_with_dma_read>
 100127c:	e0bf7417 	ldw	r2,-560(fp)
 1001280:	10800044 	addi	r2,r2,1
 1001284:	e0bf7415 	stw	r2,-560(fp)
 1001288:	e0ff7417 	ldw	r3,-560(fp)
 100128c:	e0bf7b17 	ldw	r2,-532(fp)
 1001290:	18bfef16 	blt	r3,r2,1001250 <__alt_data_end+0xfffe0a50>
 1001294:	e0bf7c17 	ldw	r2,-528(fp)
 1001298:	10000c26 	beq	r2,zero,10012cc <Data_Out+0x5cc>
 100129c:	e0ff7a17 	ldw	r3,-536(fp)
 10012a0:	00a00414 	movui	r2,32784
 10012a4:	1885883a 	add	r2,r3,r2
 10012a8:	10c00017 	ldw	r3,0(r2)
 10012ac:	00800044 	movi	r2,1
 10012b0:	d8800015 	stw	r2,0(sp)
 10012b4:	e13fff17 	ldw	r4,-4(fp)
 10012b8:	01400084 	movi	r5,2
 10012bc:	180d883a 	mov	r6,r3
 10012c0:	e1ff7c17 	ldw	r7,-528(fp)
 10012c4:	100e05c0 	call	100e05c <usb20sr_with_dma_read>
 10012c8:	00000406 	br	10012dc <Data_Out+0x5dc>
 10012cc:	00000306 	br	10012dc <Data_Out+0x5dc>
 10012d0:	00804074 	movhi	r2,257
 10012d4:	108dfc04 	addi	r2,r2,14320
 10012d8:	10000305 	stb	zero,12(r2)
 10012dc:	e037883a 	mov	sp,fp
 10012e0:	dfc00117 	ldw	ra,4(sp)
 10012e4:	df000017 	ldw	fp,0(sp)
 10012e8:	dec00204 	addi	sp,sp,8
 10012ec:	f800283a 	ret

010012f0 <Data_In>:
 10012f0:	deff7004 	addi	sp,sp,-576
 10012f4:	dfc08f15 	stw	ra,572(sp)
 10012f8:	df008e15 	stw	fp,568(sp)
 10012fc:	df008e04 	addi	fp,sp,568
 1001300:	e13ffe15 	stw	r4,-8(fp)
 1001304:	e17fff15 	stw	r5,-4(fp)
 1001308:	e0bfff17 	ldw	r2,-4(fp)
 100130c:	10801517 	ldw	r2,84(r2)
 1001310:	e0bf7615 	stw	r2,-552(fp)
 1001314:	e03f770d 	sth	zero,-548(fp)
 1001318:	e0bffe17 	ldw	r2,-8(fp)
 100131c:	e0bf7815 	stw	r2,-544(fp)
 1001320:	e03f7415 	stw	zero,-560(fp)
 1001324:	e03f7915 	stw	zero,-540(fp)
 1001328:	e03f7a15 	stw	zero,-536(fp)
 100132c:	e03f7515 	stw	zero,-556(fp)
 1001330:	00804074 	movhi	r2,257
 1001334:	108df404 	addi	r2,r2,14288
 1001338:	10800117 	ldw	r2,4(r2)
 100133c:	10a00028 	cmpgeui	r2,r2,32768
 1001340:	1000031e 	bne	r2,zero,1001350 <Data_In+0x60>
 1001344:	00808004 	movi	r2,512
 1001348:	e0bf7515 	stw	r2,-556(fp)
 100134c:	00000206 	br	1001358 <Data_In+0x68>
 1001350:	00a00014 	movui	r2,32768
 1001354:	e0bf7515 	stw	r2,-556(fp)
 1001358:	00804074 	movhi	r2,257
 100135c:	108df404 	addi	r2,r2,14288
 1001360:	10800117 	ldw	r2,4(r2)
 1001364:	1009883a 	mov	r4,r2
 1001368:	e17f7517 	ldw	r5,-556(fp)
 100136c:	100f7c40 	call	100f7c4 <__udivsi3>
 1001370:	e0bf7b15 	stw	r2,-532(fp)
 1001374:	00804074 	movhi	r2,257
 1001378:	108df404 	addi	r2,r2,14288
 100137c:	10800117 	ldw	r2,4(r2)
 1001380:	1009883a 	mov	r4,r2
 1001384:	e17f7517 	ldw	r5,-556(fp)
 1001388:	100f7cc0 	call	100f7cc <__umodsi3>
 100138c:	e0bf7c15 	stw	r2,-528(fp)
 1001390:	e0ff7d04 	addi	r3,fp,-524
 1001394:	e0bffd04 	addi	r2,fp,-12
 1001398:	1809883a 	mov	r4,r3
 100139c:	100b883a 	mov	r5,r2
 10013a0:	e1bf7817 	ldw	r6,-544(fp)
 10013a4:	100e9f40 	call	100e9f4 <SCSI_To_ATA_Translation>
 10013a8:	10800058 	cmpnei	r2,r2,1
 10013ac:	1000391e 	bne	r2,zero,1001494 <Data_In+0x1a4>
 10013b0:	e0bffd17 	ldw	r2,-12(fp)
 10013b4:	10003626 	beq	r2,zero,1001490 <Data_In+0x1a0>
 10013b8:	e0fffd17 	ldw	r3,-12(fp)
 10013bc:	e1bf7d04 	addi	r6,fp,-524
 10013c0:	00800044 	movi	r2,1
 10013c4:	d8800015 	stw	r2,0(sp)
 10013c8:	e13fff17 	ldw	r4,-4(fp)
 10013cc:	01400044 	movi	r5,1
 10013d0:	180f883a 	mov	r7,r3
 10013d4:	100cdcc0 	call	100cdcc <usb20sr_with_dma_write>
 10013d8:	00804074 	movhi	r2,257
 10013dc:	108df404 	addi	r2,r2,14288
 10013e0:	10800117 	ldw	r2,4(r2)
 10013e4:	e0fffd17 	ldw	r3,-12(fp)
 10013e8:	1880292e 	bgeu	r3,r2,1001490 <Data_In+0x1a0>
 10013ec:	e0bfff17 	ldw	r2,-4(fp)
 10013f0:	1080ea17 	ldw	r2,936(r2)
 10013f4:	d0a18705 	stb	r2,-31204(gp)
 10013f8:	d0a18703 	ldbu	r2,-31204(gp)
 10013fc:	10803fcc 	andi	r2,r2,255
 1001400:	1080004c 	andi	r2,r2,1
 1001404:	1005003a 	cmpeq	r2,r2,zero
 1001408:	10803fcc 	andi	r2,r2,255
 100140c:	e0bf7915 	stw	r2,-540(fp)
 1001410:	0001883a 	nop
 1001414:	e0bf7917 	ldw	r2,-540(fp)
 1001418:	10800584 	addi	r2,r2,22
 100141c:	1085883a 	add	r2,r2,r2
 1001420:	1085883a 	add	r2,r2,r2
 1001424:	1007883a 	mov	r3,r2
 1001428:	e0bf7617 	ldw	r2,-552(fp)
 100142c:	1885883a 	add	r2,r3,r2
 1001430:	10800037 	ldwio	r2,0(r2)
 1001434:	103ff70e 	bge	r2,zero,1001414 <__alt_data_end+0xfffe0c14>
 1001438:	e0bf7617 	ldw	r2,-552(fp)
 100143c:	10801404 	addi	r2,r2,80
 1001440:	10800037 	ldwio	r2,0(r2)
 1001444:	d0a18815 	stw	r2,-31200(gp)
 1001448:	e0bf7617 	ldw	r2,-552(fp)
 100144c:	10801404 	addi	r2,r2,80
 1001450:	1007883a 	mov	r3,r2
 1001454:	d0a18817 	ldw	r2,-31200(gp)
 1001458:	10802034 	orhi	r2,r2,128
 100145c:	18800035 	stwio	r2,0(r3)
 1001460:	e0bf7617 	ldw	r2,-552(fp)
 1001464:	10801404 	addi	r2,r2,80
 1001468:	10800037 	ldwio	r2,0(r2)
 100146c:	d0a18815 	stw	r2,-31200(gp)
 1001470:	00000406 	br	1001484 <Data_In+0x194>
 1001474:	e0bf7617 	ldw	r2,-552(fp)
 1001478:	10801404 	addi	r2,r2,80
 100147c:	10800037 	ldwio	r2,0(r2)
 1001480:	d0a18815 	stw	r2,-31200(gp)
 1001484:	d0a18817 	ldw	r2,-31200(gp)
 1001488:	1080202c 	andhi	r2,r2,128
 100148c:	103ff91e 	bne	r2,zero,1001474 <__alt_data_end+0xfffe0c74>
 1001490:	0001b606 	br	1001b6c <Data_In+0x87c>
 1001494:	e0bf7817 	ldw	r2,-544(fp)
 1001498:	10800317 	ldw	r2,12(r2)
 100149c:	e0bf7315 	stw	r2,-564(fp)
 10014a0:	00804074 	movhi	r2,257
 10014a4:	108df404 	addi	r2,r2,14288
 10014a8:	10800483 	ldbu	r2,18(r2)
 10014ac:	10803fcc 	andi	r2,r2,255
 10014b0:	1004923a 	slli	r2,r2,8
 10014b4:	1007883a 	mov	r3,r2
 10014b8:	e0bf770b 	ldhu	r2,-548(fp)
 10014bc:	1884b03a 	or	r2,r3,r2
 10014c0:	e0bf770d 	sth	r2,-548(fp)
 10014c4:	00804074 	movhi	r2,257
 10014c8:	108df404 	addi	r2,r2,14288
 10014cc:	108004c3 	ldbu	r2,19(r2)
 10014d0:	10c03fcc 	andi	r3,r2,255
 10014d4:	e0bf770b 	ldhu	r2,-548(fp)
 10014d8:	1884b03a 	or	r2,r3,r2
 10014dc:	e0bf770d 	sth	r2,-548(fp)
 10014e0:	00804074 	movhi	r2,257
 10014e4:	108df404 	addi	r2,r2,14288
 10014e8:	10800117 	ldw	r2,4(r2)
 10014ec:	10017526 	beq	r2,zero,1001ac4 <Data_In+0x7d4>
 10014f0:	00804074 	movhi	r2,257
 10014f4:	108df404 	addi	r2,r2,14288
 10014f8:	108002c3 	ldbu	r2,11(r2)
 10014fc:	10803fcc 	andi	r2,r2,255
 1001500:	10800a18 	cmpnei	r2,r2,40
 1001504:	10016f1e 	bne	r2,zero,1001ac4 <Data_In+0x7d4>
 1001508:	e0bf7617 	ldw	r2,-552(fp)
 100150c:	10801404 	addi	r2,r2,80
 1001510:	10800037 	ldwio	r2,0(r2)
 1001514:	d0a18815 	stw	r2,-31200(gp)
 1001518:	e0bf770b 	ldhu	r2,-548(fp)
 100151c:	1004927a 	slli	r2,r2,9
 1001520:	1007883a 	mov	r3,r2
 1001524:	00804074 	movhi	r2,257
 1001528:	108df404 	addi	r2,r2,14288
 100152c:	10800117 	ldw	r2,4(r2)
 1001530:	10c09236 	bltu	r2,r3,100177c <Data_In+0x48c>
 1001534:	e0bf7b17 	ldw	r2,-532(fp)
 1001538:	10004826 	beq	r2,zero,100165c <Data_In+0x36c>
 100153c:	e03f7415 	stw	zero,-560(fp)
 1001540:	00003a06 	br	100162c <Data_In+0x33c>
 1001544:	e0bf7517 	ldw	r2,-556(fp)
 1001548:	e0bf7a15 	stw	r2,-536(fp)
 100154c:	e0bf7817 	ldw	r2,-544(fp)
 1001550:	10c00404 	addi	r3,r2,16
 1001554:	e13f7817 	ldw	r4,-544(fp)
 1001558:	00a00414 	movui	r2,32784
 100155c:	2085883a 	add	r2,r4,r2
 1001560:	10c00015 	stw	r3,0(r2)
 1001564:	e0ff7817 	ldw	r3,-544(fp)
 1001568:	00a00414 	movui	r2,32784
 100156c:	1885883a 	add	r2,r3,r2
 1001570:	10c00017 	ldw	r3,0(r2)
 1001574:	e0bf7a17 	ldw	r2,-536(fp)
 1001578:	1809883a 	mov	r4,r3
 100157c:	100b883a 	mov	r5,r2
 1001580:	10112d80 	call	10112d8 <alt_dcache_flush>
 1001584:	e0bf7a17 	ldw	r2,-536(fp)
 1001588:	1000010e 	bge	r2,zero,1001590 <Data_In+0x2a0>
 100158c:	10807fc4 	addi	r2,r2,511
 1001590:	1005d27a 	srai	r2,r2,9
 1001594:	100b883a 	mov	r5,r2
 1001598:	e0ff7817 	ldw	r3,-544(fp)
 100159c:	00a00414 	movui	r2,32784
 10015a0:	1885883a 	add	r2,r3,r2
 10015a4:	10800017 	ldw	r2,0(r2)
 10015a8:	e13f7317 	ldw	r4,-564(fp)
 10015ac:	100d883a 	mov	r6,r2
 10015b0:	10008600 	call	1000860 <sd_read>
 10015b4:	e0ff7817 	ldw	r3,-544(fp)
 10015b8:	00a00414 	movui	r2,32784
 10015bc:	1885883a 	add	r2,r3,r2
 10015c0:	10c00017 	ldw	r3,0(r2)
 10015c4:	e0bf7a17 	ldw	r2,-536(fp)
 10015c8:	1809883a 	mov	r4,r3
 10015cc:	100b883a 	mov	r5,r2
 10015d0:	10112d80 	call	10112d8 <alt_dcache_flush>
 10015d4:	e0ff7817 	ldw	r3,-544(fp)
 10015d8:	00a00414 	movui	r2,32784
 10015dc:	1885883a 	add	r2,r3,r2
 10015e0:	11800017 	ldw	r6,0(r2)
 10015e4:	e0ff7517 	ldw	r3,-556(fp)
 10015e8:	00800044 	movi	r2,1
 10015ec:	d8800015 	stw	r2,0(sp)
 10015f0:	e13fff17 	ldw	r4,-4(fp)
 10015f4:	01400044 	movi	r5,1
 10015f8:	180f883a 	mov	r7,r3
 10015fc:	100cdcc0 	call	100cdcc <usb20sr_with_dma_write>
 1001600:	e0bf7a17 	ldw	r2,-536(fp)
 1001604:	1000010e 	bge	r2,zero,100160c <Data_In+0x31c>
 1001608:	10807fc4 	addi	r2,r2,511
 100160c:	1005d27a 	srai	r2,r2,9
 1001610:	1007883a 	mov	r3,r2
 1001614:	e0bf7317 	ldw	r2,-564(fp)
 1001618:	10c5883a 	add	r2,r2,r3
 100161c:	e0bf7315 	stw	r2,-564(fp)
 1001620:	e0bf7417 	ldw	r2,-560(fp)
 1001624:	10800044 	addi	r2,r2,1
 1001628:	e0bf7415 	stw	r2,-560(fp)
 100162c:	e0ff7417 	ldw	r3,-560(fp)
 1001630:	e0bf7b17 	ldw	r2,-532(fp)
 1001634:	18bfc316 	blt	r3,r2,1001544 <__alt_data_end+0xfffe0d44>
 1001638:	e0bf7817 	ldw	r2,-544(fp)
 100163c:	10c00317 	ldw	r3,12(r2)
 1001640:	e0bf7517 	ldw	r2,-556(fp)
 1001644:	1008d27a 	srli	r4,r2,9
 1001648:	e0bf7417 	ldw	r2,-560(fp)
 100164c:	2085383a 	mul	r2,r4,r2
 1001650:	1887883a 	add	r3,r3,r2
 1001654:	e0bf7817 	ldw	r2,-544(fp)
 1001658:	10c00315 	stw	r3,12(r2)
 100165c:	e0bf7c17 	ldw	r2,-528(fp)
 1001660:	1000d726 	beq	r2,zero,10019c0 <Data_In+0x6d0>
 1001664:	e0bf7c17 	ldw	r2,-528(fp)
 1001668:	e0bf7a15 	stw	r2,-536(fp)
 100166c:	e0bf7817 	ldw	r2,-544(fp)
 1001670:	10c00404 	addi	r3,r2,16
 1001674:	e13f7817 	ldw	r4,-544(fp)
 1001678:	00a00414 	movui	r2,32784
 100167c:	2085883a 	add	r2,r4,r2
 1001680:	10c00015 	stw	r3,0(r2)
 1001684:	e0ff7817 	ldw	r3,-544(fp)
 1001688:	00a00414 	movui	r2,32784
 100168c:	1885883a 	add	r2,r3,r2
 1001690:	10c00017 	ldw	r3,0(r2)
 1001694:	e0bf7a17 	ldw	r2,-536(fp)
 1001698:	1809883a 	mov	r4,r3
 100169c:	100b883a 	mov	r5,r2
 10016a0:	10112d80 	call	10112d8 <alt_dcache_flush>
 10016a4:	e0bf7a17 	ldw	r2,-536(fp)
 10016a8:	1000010e 	bge	r2,zero,10016b0 <Data_In+0x3c0>
 10016ac:	10807fc4 	addi	r2,r2,511
 10016b0:	1005d27a 	srai	r2,r2,9
 10016b4:	100b883a 	mov	r5,r2
 10016b8:	e0ff7817 	ldw	r3,-544(fp)
 10016bc:	00a00414 	movui	r2,32784
 10016c0:	1885883a 	add	r2,r3,r2
 10016c4:	10800017 	ldw	r2,0(r2)
 10016c8:	e13f7317 	ldw	r4,-564(fp)
 10016cc:	100d883a 	mov	r6,r2
 10016d0:	10008600 	call	1000860 <sd_read>
 10016d4:	e0ff7817 	ldw	r3,-544(fp)
 10016d8:	00a00414 	movui	r2,32784
 10016dc:	1885883a 	add	r2,r3,r2
 10016e0:	10c00017 	ldw	r3,0(r2)
 10016e4:	e0bf7a17 	ldw	r2,-536(fp)
 10016e8:	1809883a 	mov	r4,r3
 10016ec:	100b883a 	mov	r5,r2
 10016f0:	10112d80 	call	10112d8 <alt_dcache_flush>
 10016f4:	e0bf7c17 	ldw	r2,-528(fp)
 10016f8:	10808008 	cmpgei	r2,r2,512
 10016fc:	10000a1e 	bne	r2,zero,1001728 <Data_In+0x438>
 1001700:	e0ff7817 	ldw	r3,-544(fp)
 1001704:	00a00414 	movui	r2,32784
 1001708:	1885883a 	add	r2,r3,r2
 100170c:	10800017 	ldw	r2,0(r2)
 1001710:	e13fff17 	ldw	r4,-4(fp)
 1001714:	01400044 	movi	r5,1
 1001718:	100d883a 	mov	r6,r2
 100171c:	e1ff7c17 	ldw	r7,-528(fp)
 1001720:	100d4e80 	call	100d4e8 <usb20sr_without_dma_write>
 1001724:	00000b06 	br	1001754 <Data_In+0x464>
 1001728:	e0ff7817 	ldw	r3,-544(fp)
 100172c:	00a00414 	movui	r2,32784
 1001730:	1885883a 	add	r2,r3,r2
 1001734:	10c00017 	ldw	r3,0(r2)
 1001738:	00800044 	movi	r2,1
 100173c:	d8800015 	stw	r2,0(sp)
 1001740:	e13fff17 	ldw	r4,-4(fp)
 1001744:	01400044 	movi	r5,1
 1001748:	180d883a 	mov	r6,r3
 100174c:	e1ff7c17 	ldw	r7,-528(fp)
 1001750:	100cdcc0 	call	100cdcc <usb20sr_with_dma_write>
 1001754:	e0bf7817 	ldw	r2,-544(fp)
 1001758:	10c00317 	ldw	r3,12(r2)
 100175c:	e0bf7a17 	ldw	r2,-536(fp)
 1001760:	1000010e 	bge	r2,zero,1001768 <Data_In+0x478>
 1001764:	10807fc4 	addi	r2,r2,511
 1001768:	1005d27a 	srai	r2,r2,9
 100176c:	1887883a 	add	r3,r3,r2
 1001770:	e0bf7817 	ldw	r2,-544(fp)
 1001774:	10c00315 	stw	r3,12(r2)
 1001778:	00009106 	br	10019c0 <Data_In+0x6d0>
 100177c:	e0bf7b17 	ldw	r2,-532(fp)
 1001780:	10004826 	beq	r2,zero,10018a4 <Data_In+0x5b4>
 1001784:	e03f7415 	stw	zero,-560(fp)
 1001788:	00003a06 	br	1001874 <Data_In+0x584>
 100178c:	e0bf7517 	ldw	r2,-556(fp)
 1001790:	e0bf7a15 	stw	r2,-536(fp)
 1001794:	e0bf7817 	ldw	r2,-544(fp)
 1001798:	10c00404 	addi	r3,r2,16
 100179c:	e13f7817 	ldw	r4,-544(fp)
 10017a0:	00a00414 	movui	r2,32784
 10017a4:	2085883a 	add	r2,r4,r2
 10017a8:	10c00015 	stw	r3,0(r2)
 10017ac:	e0ff7817 	ldw	r3,-544(fp)
 10017b0:	00a00414 	movui	r2,32784
 10017b4:	1885883a 	add	r2,r3,r2
 10017b8:	10c00017 	ldw	r3,0(r2)
 10017bc:	e0bf7a17 	ldw	r2,-536(fp)
 10017c0:	1809883a 	mov	r4,r3
 10017c4:	100b883a 	mov	r5,r2
 10017c8:	10112d80 	call	10112d8 <alt_dcache_flush>
 10017cc:	e0bf7a17 	ldw	r2,-536(fp)
 10017d0:	1000010e 	bge	r2,zero,10017d8 <Data_In+0x4e8>
 10017d4:	10807fc4 	addi	r2,r2,511
 10017d8:	1005d27a 	srai	r2,r2,9
 10017dc:	100b883a 	mov	r5,r2
 10017e0:	e0ff7817 	ldw	r3,-544(fp)
 10017e4:	00a00414 	movui	r2,32784
 10017e8:	1885883a 	add	r2,r3,r2
 10017ec:	10800017 	ldw	r2,0(r2)
 10017f0:	e13f7317 	ldw	r4,-564(fp)
 10017f4:	100d883a 	mov	r6,r2
 10017f8:	10008600 	call	1000860 <sd_read>
 10017fc:	e0ff7817 	ldw	r3,-544(fp)
 1001800:	00a00414 	movui	r2,32784
 1001804:	1885883a 	add	r2,r3,r2
 1001808:	10c00017 	ldw	r3,0(r2)
 100180c:	e0bf7a17 	ldw	r2,-536(fp)
 1001810:	1809883a 	mov	r4,r3
 1001814:	100b883a 	mov	r5,r2
 1001818:	10112d80 	call	10112d8 <alt_dcache_flush>
 100181c:	e0ff7817 	ldw	r3,-544(fp)
 1001820:	00a00414 	movui	r2,32784
 1001824:	1885883a 	add	r2,r3,r2
 1001828:	11800017 	ldw	r6,0(r2)
 100182c:	e0ff7517 	ldw	r3,-556(fp)
 1001830:	00800044 	movi	r2,1
 1001834:	d8800015 	stw	r2,0(sp)
 1001838:	e13fff17 	ldw	r4,-4(fp)
 100183c:	01400044 	movi	r5,1
 1001840:	180f883a 	mov	r7,r3
 1001844:	100cdcc0 	call	100cdcc <usb20sr_with_dma_write>
 1001848:	e0bf7a17 	ldw	r2,-536(fp)
 100184c:	1000010e 	bge	r2,zero,1001854 <Data_In+0x564>
 1001850:	10807fc4 	addi	r2,r2,511
 1001854:	1005d27a 	srai	r2,r2,9
 1001858:	1007883a 	mov	r3,r2
 100185c:	e0bf7317 	ldw	r2,-564(fp)
 1001860:	10c5883a 	add	r2,r2,r3
 1001864:	e0bf7315 	stw	r2,-564(fp)
 1001868:	e0bf7417 	ldw	r2,-560(fp)
 100186c:	10800044 	addi	r2,r2,1
 1001870:	e0bf7415 	stw	r2,-560(fp)
 1001874:	e0ff7417 	ldw	r3,-560(fp)
 1001878:	e0bf7b17 	ldw	r2,-532(fp)
 100187c:	18bfc316 	blt	r3,r2,100178c <__alt_data_end+0xfffe0f8c>
 1001880:	e0bf7817 	ldw	r2,-544(fp)
 1001884:	10c00317 	ldw	r3,12(r2)
 1001888:	e0bf7517 	ldw	r2,-556(fp)
 100188c:	1008d27a 	srli	r4,r2,9
 1001890:	e0bf7417 	ldw	r2,-560(fp)
 1001894:	2085383a 	mul	r2,r4,r2
 1001898:	1887883a 	add	r3,r3,r2
 100189c:	e0bf7817 	ldw	r2,-544(fp)
 10018a0:	10c00315 	stw	r3,12(r2)
 10018a4:	e0bf7c17 	ldw	r2,-528(fp)
 10018a8:	10004526 	beq	r2,zero,10019c0 <Data_In+0x6d0>
 10018ac:	e0bf7c17 	ldw	r2,-528(fp)
 10018b0:	e0bf7a15 	stw	r2,-536(fp)
 10018b4:	e0bf7817 	ldw	r2,-544(fp)
 10018b8:	10c00404 	addi	r3,r2,16
 10018bc:	e13f7817 	ldw	r4,-544(fp)
 10018c0:	00a00414 	movui	r2,32784
 10018c4:	2085883a 	add	r2,r4,r2
 10018c8:	10c00015 	stw	r3,0(r2)
 10018cc:	e0ff7817 	ldw	r3,-544(fp)
 10018d0:	00a00414 	movui	r2,32784
 10018d4:	1885883a 	add	r2,r3,r2
 10018d8:	10c00017 	ldw	r3,0(r2)
 10018dc:	e0bf7a17 	ldw	r2,-536(fp)
 10018e0:	1809883a 	mov	r4,r3
 10018e4:	100b883a 	mov	r5,r2
 10018e8:	10112d80 	call	10112d8 <alt_dcache_flush>
 10018ec:	e0bf7a17 	ldw	r2,-536(fp)
 10018f0:	1000010e 	bge	r2,zero,10018f8 <Data_In+0x608>
 10018f4:	10807fc4 	addi	r2,r2,511
 10018f8:	1005d27a 	srai	r2,r2,9
 10018fc:	100b883a 	mov	r5,r2
 1001900:	e0ff7817 	ldw	r3,-544(fp)
 1001904:	00a00414 	movui	r2,32784
 1001908:	1885883a 	add	r2,r3,r2
 100190c:	10800017 	ldw	r2,0(r2)
 1001910:	e13f7317 	ldw	r4,-564(fp)
 1001914:	100d883a 	mov	r6,r2
 1001918:	10008600 	call	1000860 <sd_read>
 100191c:	e0ff7817 	ldw	r3,-544(fp)
 1001920:	00a00414 	movui	r2,32784
 1001924:	1885883a 	add	r2,r3,r2
 1001928:	10c00017 	ldw	r3,0(r2)
 100192c:	e0bf7a17 	ldw	r2,-536(fp)
 1001930:	1809883a 	mov	r4,r3
 1001934:	100b883a 	mov	r5,r2
 1001938:	10112d80 	call	10112d8 <alt_dcache_flush>
 100193c:	e0bf7c17 	ldw	r2,-528(fp)
 1001940:	10808008 	cmpgei	r2,r2,512
 1001944:	10000a1e 	bne	r2,zero,1001970 <Data_In+0x680>
 1001948:	e0ff7817 	ldw	r3,-544(fp)
 100194c:	00a00414 	movui	r2,32784
 1001950:	1885883a 	add	r2,r3,r2
 1001954:	10800017 	ldw	r2,0(r2)
 1001958:	e13fff17 	ldw	r4,-4(fp)
 100195c:	01400044 	movi	r5,1
 1001960:	100d883a 	mov	r6,r2
 1001964:	e1ff7c17 	ldw	r7,-528(fp)
 1001968:	100d4e80 	call	100d4e8 <usb20sr_without_dma_write>
 100196c:	00000b06 	br	100199c <Data_In+0x6ac>
 1001970:	e0ff7817 	ldw	r3,-544(fp)
 1001974:	00a00414 	movui	r2,32784
 1001978:	1885883a 	add	r2,r3,r2
 100197c:	10c00017 	ldw	r3,0(r2)
 1001980:	00800044 	movi	r2,1
 1001984:	d8800015 	stw	r2,0(sp)
 1001988:	e13fff17 	ldw	r4,-4(fp)
 100198c:	01400044 	movi	r5,1
 1001990:	180d883a 	mov	r6,r3
 1001994:	e1ff7c17 	ldw	r7,-528(fp)
 1001998:	100cdcc0 	call	100cdcc <usb20sr_with_dma_write>
 100199c:	e0bf7817 	ldw	r2,-544(fp)
 10019a0:	10c00317 	ldw	r3,12(r2)
 10019a4:	e0bf7a17 	ldw	r2,-536(fp)
 10019a8:	1000010e 	bge	r2,zero,10019b0 <Data_In+0x6c0>
 10019ac:	10807fc4 	addi	r2,r2,511
 10019b0:	1005d27a 	srai	r2,r2,9
 10019b4:	1887883a 	add	r3,r3,r2
 10019b8:	e0bf7817 	ldw	r2,-544(fp)
 10019bc:	10c00315 	stw	r3,12(r2)
 10019c0:	e0bf770b 	ldhu	r2,-548(fp)
 10019c4:	1004927a 	slli	r2,r2,9
 10019c8:	1007883a 	mov	r3,r2
 10019cc:	00804074 	movhi	r2,257
 10019d0:	108df404 	addi	r2,r2,14288
 10019d4:	10800117 	ldw	r2,4(r2)
 10019d8:	1880392e 	bgeu	r3,r2,1001ac0 <Data_In+0x7d0>
 10019dc:	e0bfff17 	ldw	r2,-4(fp)
 10019e0:	1080ea17 	ldw	r2,936(r2)
 10019e4:	d0a18705 	stb	r2,-31204(gp)
 10019e8:	d0a18703 	ldbu	r2,-31204(gp)
 10019ec:	10803fcc 	andi	r2,r2,255
 10019f0:	1080004c 	andi	r2,r2,1
 10019f4:	1005003a 	cmpeq	r2,r2,zero
 10019f8:	10803fcc 	andi	r2,r2,255
 10019fc:	e0bf7915 	stw	r2,-540(fp)
 1001a00:	0001883a 	nop
 1001a04:	e0bf7917 	ldw	r2,-540(fp)
 1001a08:	10800584 	addi	r2,r2,22
 1001a0c:	1085883a 	add	r2,r2,r2
 1001a10:	1085883a 	add	r2,r2,r2
 1001a14:	1007883a 	mov	r3,r2
 1001a18:	e0bf7617 	ldw	r2,-552(fp)
 1001a1c:	1885883a 	add	r2,r3,r2
 1001a20:	10800037 	ldwio	r2,0(r2)
 1001a24:	103ff70e 	bge	r2,zero,1001a04 <__alt_data_end+0xfffe1204>
 1001a28:	e0bf7617 	ldw	r2,-552(fp)
 1001a2c:	10801404 	addi	r2,r2,80
 1001a30:	10800037 	ldwio	r2,0(r2)
 1001a34:	d0a18815 	stw	r2,-31200(gp)
 1001a38:	e0bf7617 	ldw	r2,-552(fp)
 1001a3c:	10801404 	addi	r2,r2,80
 1001a40:	1007883a 	mov	r3,r2
 1001a44:	d0a18817 	ldw	r2,-31200(gp)
 1001a48:	10802034 	orhi	r2,r2,128
 1001a4c:	18800035 	stwio	r2,0(r3)
 1001a50:	e0bf7617 	ldw	r2,-552(fp)
 1001a54:	10801404 	addi	r2,r2,80
 1001a58:	10800037 	ldwio	r2,0(r2)
 1001a5c:	d0a18815 	stw	r2,-31200(gp)
 1001a60:	00000606 	br	1001a7c <Data_In+0x78c>
 1001a64:	e0bf7617 	ldw	r2,-552(fp)
 1001a68:	10801404 	addi	r2,r2,80
 1001a6c:	10800037 	ldwio	r2,0(r2)
 1001a70:	d0a18815 	stw	r2,-31200(gp)
 1001a74:	0109c404 	movi	r4,10000
 1001a78:	10114c00 	call	10114c0 <usleep>
 1001a7c:	d0a18817 	ldw	r2,-31200(gp)
 1001a80:	1080202c 	andhi	r2,r2,128
 1001a84:	103ff71e 	bne	r2,zero,1001a64 <__alt_data_end+0xfffe1264>
 1001a88:	e0bf7617 	ldw	r2,-552(fp)
 1001a8c:	10801404 	addi	r2,r2,80
 1001a90:	10800037 	ldwio	r2,0(r2)
 1001a94:	d0a18815 	stw	r2,-31200(gp)
 1001a98:	00000606 	br	1001ab4 <Data_In+0x7c4>
 1001a9c:	e0bf7617 	ldw	r2,-552(fp)
 1001aa0:	10801404 	addi	r2,r2,80
 1001aa4:	10800037 	ldwio	r2,0(r2)
 1001aa8:	d0a18815 	stw	r2,-31200(gp)
 1001aac:	0109c404 	movi	r4,10000
 1001ab0:	10114c00 	call	10114c0 <usleep>
 1001ab4:	d0a18817 	ldw	r2,-31200(gp)
 1001ab8:	1080202c 	andhi	r2,r2,128
 1001abc:	103ff71e 	bne	r2,zero,1001a9c <__alt_data_end+0xfffe129c>
 1001ac0:	00002706 	br	1001b60 <Data_In+0x870>
 1001ac4:	00804074 	movhi	r2,257
 1001ac8:	108df404 	addi	r2,r2,14288
 1001acc:	10800117 	ldw	r2,4(r2)
 1001ad0:	10002326 	beq	r2,zero,1001b60 <Data_In+0x870>
 1001ad4:	00804074 	movhi	r2,257
 1001ad8:	108df404 	addi	r2,r2,14288
 1001adc:	108002c3 	ldbu	r2,11(r2)
 1001ae0:	10803fcc 	andi	r2,r2,255
 1001ae4:	10800a20 	cmpeqi	r2,r2,40
 1001ae8:	10001d1e 	bne	r2,zero,1001b60 <Data_In+0x870>
 1001aec:	e0bf7617 	ldw	r2,-552(fp)
 1001af0:	10801404 	addi	r2,r2,80
 1001af4:	10800037 	ldwio	r2,0(r2)
 1001af8:	d0a18815 	stw	r2,-31200(gp)
 1001afc:	e0bf7617 	ldw	r2,-552(fp)
 1001b00:	10801404 	addi	r2,r2,80
 1001b04:	1007883a 	mov	r3,r2
 1001b08:	d0a18817 	ldw	r2,-31200(gp)
 1001b0c:	10802034 	orhi	r2,r2,128
 1001b10:	18800035 	stwio	r2,0(r3)
 1001b14:	e0bf7617 	ldw	r2,-552(fp)
 1001b18:	10801404 	addi	r2,r2,80
 1001b1c:	10800037 	ldwio	r2,0(r2)
 1001b20:	d0a18815 	stw	r2,-31200(gp)
 1001b24:	0001883a 	nop
 1001b28:	e0bf7617 	ldw	r2,-552(fp)
 1001b2c:	10801404 	addi	r2,r2,80
 1001b30:	10800037 	ldwio	r2,0(r2)
 1001b34:	1080202c 	andhi	r2,r2,128
 1001b38:	103ffb1e 	bne	r2,zero,1001b28 <__alt_data_end+0xfffe1328>
 1001b3c:	e0bf7617 	ldw	r2,-552(fp)
 1001b40:	10801404 	addi	r2,r2,80
 1001b44:	10800037 	ldwio	r2,0(r2)
 1001b48:	d0a18815 	stw	r2,-31200(gp)
 1001b4c:	00804074 	movhi	r2,257
 1001b50:	108dfc04 	addi	r2,r2,14320
 1001b54:	00c00044 	movi	r3,1
 1001b58:	10c00305 	stb	r3,12(r2)
 1001b5c:	00000306 	br	1001b6c <Data_In+0x87c>
 1001b60:	00804074 	movhi	r2,257
 1001b64:	108dfc04 	addi	r2,r2,14320
 1001b68:	10000305 	stb	zero,12(r2)
 1001b6c:	e037883a 	mov	sp,fp
 1001b70:	dfc00117 	ldw	ra,4(sp)
 1001b74:	df000017 	ldw	fp,0(sp)
 1001b78:	dec00204 	addi	sp,sp,8
 1001b7c:	f800283a 	ret

01001b80 <StatusTransport>:
 1001b80:	defff704 	addi	sp,sp,-36
 1001b84:	dfc00815 	stw	ra,32(sp)
 1001b88:	df000715 	stw	fp,28(sp)
 1001b8c:	df000704 	addi	fp,sp,28
 1001b90:	e13ffe15 	stw	r4,-8(fp)
 1001b94:	e17fff15 	stw	r5,-4(fp)
 1001b98:	e03ffa15 	stw	zero,-24(fp)
 1001b9c:	e03ffb15 	stw	zero,-20(fp)
 1001ba0:	e03ffc15 	stw	zero,-16(fp)
 1001ba4:	e03ffd05 	stb	zero,-12(fp)
 1001ba8:	e03ff915 	stw	zero,-28(fp)
 1001bac:	00804074 	movhi	r2,257
 1001bb0:	108df404 	addi	r2,r2,14288
 1001bb4:	10800483 	ldbu	r2,18(r2)
 1001bb8:	10803fcc 	andi	r2,r2,255
 1001bbc:	1004923a 	slli	r2,r2,8
 1001bc0:	e0fff917 	ldw	r3,-28(fp)
 1001bc4:	1884b03a 	or	r2,r3,r2
 1001bc8:	e0bff915 	stw	r2,-28(fp)
 1001bcc:	00804074 	movhi	r2,257
 1001bd0:	108df404 	addi	r2,r2,14288
 1001bd4:	108004c3 	ldbu	r2,19(r2)
 1001bd8:	10803fcc 	andi	r2,r2,255
 1001bdc:	e0fff917 	ldw	r3,-28(fp)
 1001be0:	1884b03a 	or	r2,r3,r2
 1001be4:	e0bff915 	stw	r2,-28(fp)
 1001be8:	00801544 	movi	r2,85
 1001bec:	e0bffa05 	stb	r2,-24(fp)
 1001bf0:	008014c4 	movi	r2,83
 1001bf4:	e0bffa45 	stb	r2,-23(fp)
 1001bf8:	00801084 	movi	r2,66
 1001bfc:	e0bffa85 	stb	r2,-22(fp)
 1001c00:	008014c4 	movi	r2,83
 1001c04:	e0bffac5 	stb	r2,-21(fp)
 1001c08:	e0bffa04 	addi	r2,fp,-24
 1001c0c:	10800104 	addi	r2,r2,4
 1001c10:	1009883a 	mov	r4,r2
 1001c14:	01404074 	movhi	r5,257
 1001c18:	294dfd04 	addi	r5,r5,14324
 1001c1c:	01800104 	movi	r6,4
 1001c20:	10109b40 	call	10109b4 <memcpy>
 1001c24:	e03ffc05 	stb	zero,-16(fp)
 1001c28:	e03ffc45 	stb	zero,-15(fp)
 1001c2c:	e03ffc85 	stb	zero,-14(fp)
 1001c30:	e03ffcc5 	stb	zero,-13(fp)
 1001c34:	00804074 	movhi	r2,257
 1001c38:	108df404 	addi	r2,r2,14288
 1001c3c:	10800117 	ldw	r2,4(r2)
 1001c40:	10000f1e 	bne	r2,zero,1001c80 <StatusTransport+0x100>
 1001c44:	00804074 	movhi	r2,257
 1001c48:	108df404 	addi	r2,r2,14288
 1001c4c:	108002c3 	ldbu	r2,11(r2)
 1001c50:	10803fcc 	andi	r2,r2,255
 1001c54:	10800a20 	cmpeqi	r2,r2,40
 1001c58:	1000061e 	bne	r2,zero,1001c74 <StatusTransport+0xf4>
 1001c5c:	00804074 	movhi	r2,257
 1001c60:	108df404 	addi	r2,r2,14288
 1001c64:	108002c3 	ldbu	r2,11(r2)
 1001c68:	10803fcc 	andi	r2,r2,255
 1001c6c:	10800a98 	cmpnei	r2,r2,42
 1001c70:	1000031e 	bne	r2,zero,1001c80 <StatusTransport+0x100>
 1001c74:	00800084 	movi	r2,2
 1001c78:	e0bffd05 	stb	r2,-12(fp)
 1001c7c:	00007706 	br	1001e5c <StatusTransport+0x2dc>
 1001c80:	00804074 	movhi	r2,257
 1001c84:	108df404 	addi	r2,r2,14288
 1001c88:	10800117 	ldw	r2,4(r2)
 1001c8c:	e0fff917 	ldw	r3,-28(fp)
 1001c90:	1806927a 	slli	r3,r3,9
 1001c94:	18800b2e 	bgeu	r3,r2,1001cc4 <StatusTransport+0x144>
 1001c98:	00804074 	movhi	r2,257
 1001c9c:	108df404 	addi	r2,r2,14288
 1001ca0:	108002c3 	ldbu	r2,11(r2)
 1001ca4:	10803fcc 	andi	r2,r2,255
 1001ca8:	10800a18 	cmpnei	r2,r2,40
 1001cac:	1000051e 	bne	r2,zero,1001cc4 <StatusTransport+0x144>
 1001cb0:	e03ffc05 	stb	zero,-16(fp)
 1001cb4:	00800084 	movi	r2,2
 1001cb8:	e0bffc45 	stb	r2,-15(fp)
 1001cbc:	e03ffd05 	stb	zero,-12(fp)
 1001cc0:	00006606 	br	1001e5c <StatusTransport+0x2dc>
 1001cc4:	00804074 	movhi	r2,257
 1001cc8:	108df404 	addi	r2,r2,14288
 1001ccc:	10800117 	ldw	r2,4(r2)
 1001cd0:	e0fff917 	ldw	r3,-28(fp)
 1001cd4:	1806927a 	slli	r3,r3,9
 1001cd8:	10c0092e 	bgeu	r2,r3,1001d00 <StatusTransport+0x180>
 1001cdc:	00804074 	movhi	r2,257
 1001ce0:	108df404 	addi	r2,r2,14288
 1001ce4:	108002c3 	ldbu	r2,11(r2)
 1001ce8:	10803fcc 	andi	r2,r2,255
 1001cec:	10800a18 	cmpnei	r2,r2,40
 1001cf0:	1000031e 	bne	r2,zero,1001d00 <StatusTransport+0x180>
 1001cf4:	00800084 	movi	r2,2
 1001cf8:	e0bffd05 	stb	r2,-12(fp)
 1001cfc:	00005706 	br	1001e5c <StatusTransport+0x2dc>
 1001d00:	00804074 	movhi	r2,257
 1001d04:	108df404 	addi	r2,r2,14288
 1001d08:	10800203 	ldbu	r2,8(r2)
 1001d0c:	10803fcc 	andi	r2,r2,255
 1001d10:	10000926 	beq	r2,zero,1001d38 <StatusTransport+0x1b8>
 1001d14:	00804074 	movhi	r2,257
 1001d18:	108df404 	addi	r2,r2,14288
 1001d1c:	108002c3 	ldbu	r2,11(r2)
 1001d20:	10803fcc 	andi	r2,r2,255
 1001d24:	10800a98 	cmpnei	r2,r2,42
 1001d28:	1000031e 	bne	r2,zero,1001d38 <StatusTransport+0x1b8>
 1001d2c:	00800084 	movi	r2,2
 1001d30:	e0bffd05 	stb	r2,-12(fp)
 1001d34:	00004906 	br	1001e5c <StatusTransport+0x2dc>
 1001d38:	00804074 	movhi	r2,257
 1001d3c:	108df404 	addi	r2,r2,14288
 1001d40:	10800117 	ldw	r2,4(r2)
 1001d44:	10001326 	beq	r2,zero,1001d94 <StatusTransport+0x214>
 1001d48:	e0bff917 	ldw	r2,-28(fp)
 1001d4c:	1004927a 	slli	r2,r2,9
 1001d50:	1000101e 	bne	r2,zero,1001d94 <StatusTransport+0x214>
 1001d54:	00804074 	movhi	r2,257
 1001d58:	108df404 	addi	r2,r2,14288
 1001d5c:	10800203 	ldbu	r2,8(r2)
 1001d60:	10803fcc 	andi	r2,r2,255
 1001d64:	10000b1e 	bne	r2,zero,1001d94 <StatusTransport+0x214>
 1001d68:	e0fffe17 	ldw	r3,-8(fp)
 1001d6c:	00a00514 	movui	r2,32788
 1001d70:	1885883a 	add	r2,r3,r2
 1001d74:	10800017 	ldw	r2,0(r2)
 1001d78:	10800060 	cmpeqi	r2,r2,1
 1001d7c:	1000051e 	bne	r2,zero,1001d94 <StatusTransport+0x214>
 1001d80:	e03ffc05 	stb	zero,-16(fp)
 1001d84:	00800084 	movi	r2,2
 1001d88:	e0bffc45 	stb	r2,-15(fp)
 1001d8c:	e03ffd05 	stb	zero,-12(fp)
 1001d90:	00003206 	br	1001e5c <StatusTransport+0x2dc>
 1001d94:	00804074 	movhi	r2,257
 1001d98:	108df404 	addi	r2,r2,14288
 1001d9c:	10800203 	ldbu	r2,8(r2)
 1001da0:	10803fcc 	andi	r2,r2,255
 1001da4:	1000091e 	bne	r2,zero,1001dcc <StatusTransport+0x24c>
 1001da8:	00804074 	movhi	r2,257
 1001dac:	108df404 	addi	r2,r2,14288
 1001db0:	108002c3 	ldbu	r2,11(r2)
 1001db4:	10803fcc 	andi	r2,r2,255
 1001db8:	10800a18 	cmpnei	r2,r2,40
 1001dbc:	1000031e 	bne	r2,zero,1001dcc <StatusTransport+0x24c>
 1001dc0:	00800084 	movi	r2,2
 1001dc4:	e0bffd05 	stb	r2,-12(fp)
 1001dc8:	00002406 	br	1001e5c <StatusTransport+0x2dc>
 1001dcc:	00804074 	movhi	r2,257
 1001dd0:	108df404 	addi	r2,r2,14288
 1001dd4:	10800117 	ldw	r2,4(r2)
 1001dd8:	e0fff917 	ldw	r3,-28(fp)
 1001ddc:	1806927a 	slli	r3,r3,9
 1001de0:	18800b2e 	bgeu	r3,r2,1001e10 <StatusTransport+0x290>
 1001de4:	00804074 	movhi	r2,257
 1001de8:	108df404 	addi	r2,r2,14288
 1001dec:	108002c3 	ldbu	r2,11(r2)
 1001df0:	10803fcc 	andi	r2,r2,255
 1001df4:	10800a98 	cmpnei	r2,r2,42
 1001df8:	1000051e 	bne	r2,zero,1001e10 <StatusTransport+0x290>
 1001dfc:	e03ffc05 	stb	zero,-16(fp)
 1001e00:	00800084 	movi	r2,2
 1001e04:	e0bffc45 	stb	r2,-15(fp)
 1001e08:	e03ffd05 	stb	zero,-12(fp)
 1001e0c:	00001306 	br	1001e5c <StatusTransport+0x2dc>
 1001e10:	00804074 	movhi	r2,257
 1001e14:	108df404 	addi	r2,r2,14288
 1001e18:	10800117 	ldw	r2,4(r2)
 1001e1c:	e0fff917 	ldw	r3,-28(fp)
 1001e20:	1806927a 	slli	r3,r3,9
 1001e24:	10c0092e 	bgeu	r2,r3,1001e4c <StatusTransport+0x2cc>
 1001e28:	00804074 	movhi	r2,257
 1001e2c:	108df404 	addi	r2,r2,14288
 1001e30:	108002c3 	ldbu	r2,11(r2)
 1001e34:	10803fcc 	andi	r2,r2,255
 1001e38:	10800a98 	cmpnei	r2,r2,42
 1001e3c:	1000031e 	bne	r2,zero,1001e4c <StatusTransport+0x2cc>
 1001e40:	00800044 	movi	r2,1
 1001e44:	e0bffd05 	stb	r2,-12(fp)
 1001e48:	00000406 	br	1001e5c <StatusTransport+0x2dc>
 1001e4c:	00804074 	movhi	r2,257
 1001e50:	108dfc04 	addi	r2,r2,14320
 1001e54:	10800303 	ldbu	r2,12(r2)
 1001e58:	e0bffd05 	stb	r2,-12(fp)
 1001e5c:	e0bffa04 	addi	r2,fp,-24
 1001e60:	e13fff17 	ldw	r4,-4(fp)
 1001e64:	01400044 	movi	r5,1
 1001e68:	100d883a 	mov	r6,r2
 1001e6c:	01c00344 	movi	r7,13
 1001e70:	100d4e80 	call	100d4e8 <usb20sr_without_dma_write>
 1001e74:	e037883a 	mov	sp,fp
 1001e78:	dfc00117 	ldw	ra,4(sp)
 1001e7c:	df000017 	ldw	fp,0(sp)
 1001e80:	dec00204 	addi	sp,sp,8
 1001e84:	f800283a 	ret

01001e88 <sdhc_sd_present>:
 1001e88:	defffe04 	addi	sp,sp,-8
 1001e8c:	df000115 	stw	fp,4(sp)
 1001e90:	df000104 	addi	fp,sp,4
 1001e94:	e13fff15 	stw	r4,-4(fp)
 1001e98:	e0bfff17 	ldw	r2,-4(fp)
 1001e9c:	10800017 	ldw	r2,0(r2)
 1001ea0:	10800704 	addi	r2,r2,28
 1001ea4:	10800037 	ldwio	r2,0(r2)
 1001ea8:	1090000c 	andi	r2,r2,16384
 1001eac:	10000526 	beq	r2,zero,1001ec4 <sdhc_sd_present+0x3c>
 1001eb0:	e0bfff17 	ldw	r2,-4(fp)
 1001eb4:	00c00044 	movi	r3,1
 1001eb8:	10c00215 	stw	r3,8(r2)
 1001ebc:	00800044 	movi	r2,1
 1001ec0:	00000306 	br	1001ed0 <sdhc_sd_present+0x48>
 1001ec4:	e0bfff17 	ldw	r2,-4(fp)
 1001ec8:	10000215 	stw	zero,8(r2)
 1001ecc:	0005883a 	mov	r2,zero
 1001ed0:	e037883a 	mov	sp,fp
 1001ed4:	df000017 	ldw	fp,0(sp)
 1001ed8:	dec00104 	addi	sp,sp,4
 1001edc:	f800283a 	ret

01001ee0 <sdhc_sd_write_protected>:
 1001ee0:	defffd04 	addi	sp,sp,-12
 1001ee4:	dfc00215 	stw	ra,8(sp)
 1001ee8:	df000115 	stw	fp,4(sp)
 1001eec:	df000104 	addi	fp,sp,4
 1001ef0:	e13fff15 	stw	r4,-4(fp)
 1001ef4:	e0bfff17 	ldw	r2,-4(fp)
 1001ef8:	10800017 	ldw	r2,0(r2)
 1001efc:	10800704 	addi	r2,r2,28
 1001f00:	10800037 	ldwio	r2,0(r2)
 1001f04:	10a0000c 	andi	r2,r2,32768
 1001f08:	10000d26 	beq	r2,zero,1001f40 <sdhc_sd_write_protected+0x60>
 1001f0c:	e0bfff17 	ldw	r2,-4(fp)
 1001f10:	00c00044 	movi	r3,1
 1001f14:	10c00315 	stw	r3,12(r2)
 1001f18:	00804074 	movhi	r2,257
 1001f1c:	108c3704 	addi	r2,r2,12508
 1001f20:	10800017 	ldw	r2,0(r2)
 1001f24:	108000a8 	cmpgeui	r2,r2,2
 1001f28:	1000031e 	bne	r2,zero,1001f38 <sdhc_sd_write_protected+0x58>
 1001f2c:	01004074 	movhi	r4,257
 1001f30:	21085a04 	addi	r4,r4,8552
 1001f34:	1010b240 	call	1010b24 <puts>
 1001f38:	00800044 	movi	r2,1
 1001f3c:	00000b06 	br	1001f6c <sdhc_sd_write_protected+0x8c>
 1001f40:	e0bfff17 	ldw	r2,-4(fp)
 1001f44:	10000315 	stw	zero,12(r2)
 1001f48:	00804074 	movhi	r2,257
 1001f4c:	108c3704 	addi	r2,r2,12508
 1001f50:	10800017 	ldw	r2,0(r2)
 1001f54:	108000a8 	cmpgeui	r2,r2,2
 1001f58:	1000031e 	bne	r2,zero,1001f68 <sdhc_sd_write_protected+0x88>
 1001f5c:	01004074 	movhi	r4,257
 1001f60:	21086104 	addi	r4,r4,8580
 1001f64:	1010b240 	call	1010b24 <puts>
 1001f68:	0005883a 	mov	r2,zero
 1001f6c:	e037883a 	mov	sp,fp
 1001f70:	dfc00117 	ldw	ra,4(sp)
 1001f74:	df000017 	ldw	fp,0(sp)
 1001f78:	dec00204 	addi	sp,sp,8
 1001f7c:	f800283a 	ret

01001f80 <sdhc_set_freq>:
 1001f80:	defff904 	addi	sp,sp,-28
 1001f84:	dfc00615 	stw	ra,24(sp)
 1001f88:	df000515 	stw	fp,20(sp)
 1001f8c:	df000504 	addi	fp,sp,20
 1001f90:	e13ffe15 	stw	r4,-8(fp)
 1001f94:	e17fff15 	stw	r5,-4(fp)
 1001f98:	e0bffe17 	ldw	r2,-8(fp)
 1001f9c:	10802417 	ldw	r2,144(r2)
 1001fa0:	1009883a 	mov	r4,r2
 1001fa4:	10107300 	call	1010730 <__floatunsisf>
 1001fa8:	1007883a 	mov	r3,r2
 1001fac:	e0fffb15 	stw	r3,-20(fp)
 1001fb0:	e0bfff17 	ldw	r2,-4(fp)
 1001fb4:	1000071e 	bne	r2,zero,1001fd4 <sdhc_set_freq+0x54>
 1001fb8:	e0bffe17 	ldw	r2,-8(fp)
 1001fbc:	10800017 	ldw	r2,0(r2)
 1001fc0:	10800204 	addi	r2,r2,8
 1001fc4:	0007883a 	mov	r3,zero
 1001fc8:	10c00035 	stwio	r3,0(r2)
 1001fcc:	e0bfff17 	ldw	r2,-4(fp)
 1001fd0:	00007506 	br	10021a8 <sdhc_set_freq+0x228>
 1001fd4:	e0ffff17 	ldw	r3,-4(fp)
 1001fd8:	0080bef4 	movhi	r2,763
 1001fdc:	10bc2004 	addi	r2,r2,-3968
 1001fe0:	10c0032e 	bgeu	r2,r3,1001ff0 <sdhc_set_freq+0x70>
 1001fe4:	0080bef4 	movhi	r2,763
 1001fe8:	10bc2004 	addi	r2,r2,-3968
 1001fec:	e0bfff15 	stw	r2,-4(fp)
 1001ff0:	e13fff17 	ldw	r4,-4(fp)
 1001ff4:	10107300 	call	1010730 <__floatunsisf>
 1001ff8:	1007883a 	mov	r3,r2
 1001ffc:	e0fffc15 	stw	r3,-16(fp)
 1002000:	e0bffc17 	ldw	r2,-16(fp)
 1002004:	1009883a 	mov	r4,r2
 1002008:	100b883a 	mov	r5,r2
 100200c:	100f7d40 	call	100f7d4 <__addsf3>
 1002010:	1007883a 	mov	r3,r2
 1002014:	1805883a 	mov	r2,r3
 1002018:	e13ffb17 	ldw	r4,-20(fp)
 100201c:	100b883a 	mov	r5,r2
 1002020:	100fcb40 	call	100fcb4 <__divsf3>
 1002024:	1007883a 	mov	r3,r2
 1002028:	1805883a 	mov	r2,r3
 100202c:	1009883a 	mov	r4,r2
 1002030:	014fe034 	movhi	r5,16256
 1002034:	10101bc0 	call	10101bc <__subsf3>
 1002038:	1007883a 	mov	r3,r2
 100203c:	1805883a 	mov	r2,r3
 1002040:	1009883a 	mov	r4,r2
 1002044:	100f6480 	call	100f648 <__fixunssfsi>
 1002048:	1007883a 	mov	r3,r2
 100204c:	e0bffe17 	ldw	r2,-8(fp)
 1002050:	10c02515 	stw	r3,148(r2)
 1002054:	e0bfff17 	ldw	r2,-4(fp)
 1002058:	e0bffd15 	stw	r2,-12(fp)
 100205c:	e0bffe17 	ldw	r2,-8(fp)
 1002060:	10802517 	ldw	r2,148(r2)
 1002064:	10804030 	cmpltui	r2,r2,256
 1002068:	1000031e 	bne	r2,zero,1002078 <sdhc_set_freq+0xf8>
 100206c:	e0bffe17 	ldw	r2,-8(fp)
 1002070:	00c03fc4 	movi	r3,255
 1002074:	10c02515 	stw	r3,148(r2)
 1002078:	e0bffe17 	ldw	r2,-8(fp)
 100207c:	10802517 	ldw	r2,148(r2)
 1002080:	10800044 	addi	r2,r2,1
 1002084:	1085883a 	add	r2,r2,r2
 1002088:	1009883a 	mov	r4,r2
 100208c:	10107300 	call	1010730 <__floatunsisf>
 1002090:	1007883a 	mov	r3,r2
 1002094:	e13ffb17 	ldw	r4,-20(fp)
 1002098:	180b883a 	mov	r5,r3
 100209c:	100fcb40 	call	100fcb4 <__divsf3>
 10020a0:	1007883a 	mov	r3,r2
 10020a4:	1805883a 	mov	r2,r3
 10020a8:	1009883a 	mov	r4,r2
 10020ac:	100f6480 	call	100f648 <__fixunssfsi>
 10020b0:	e0bfff15 	stw	r2,-4(fp)
 10020b4:	e0bfff17 	ldw	r2,-4(fp)
 10020b8:	e0fffd17 	ldw	r3,-12(fp)
 10020bc:	1880062e 	bgeu	r3,r2,10020d8 <sdhc_set_freq+0x158>
 10020c0:	e0bffe17 	ldw	r2,-8(fp)
 10020c4:	10802517 	ldw	r2,148(r2)
 10020c8:	10c00044 	addi	r3,r2,1
 10020cc:	e0bffe17 	ldw	r2,-8(fp)
 10020d0:	10c02515 	stw	r3,148(r2)
 10020d4:	00000606 	br	10020f0 <sdhc_set_freq+0x170>
 10020d8:	0001883a 	nop
 10020dc:	00804074 	movhi	r2,257
 10020e0:	108c3704 	addi	r2,r2,12508
 10020e4:	10800017 	ldw	r2,0(r2)
 10020e8:	1000081e 	bne	r2,zero,100210c <sdhc_set_freq+0x18c>
 10020ec:	00000106 	br	10020f4 <sdhc_set_freq+0x174>
 10020f0:	003fe106 	br	1002078 <__alt_data_end+0xfffe1878>
 10020f4:	e0bffe17 	ldw	r2,-8(fp)
 10020f8:	10802517 	ldw	r2,148(r2)
 10020fc:	01004074 	movhi	r4,257
 1002100:	21086904 	addi	r4,r4,8612
 1002104:	100b883a 	mov	r5,r2
 1002108:	1010a380 	call	1010a38 <printf>
 100210c:	e0bffe17 	ldw	r2,-8(fp)
 1002110:	10800017 	ldw	r2,0(r2)
 1002114:	10800204 	addi	r2,r2,8
 1002118:	1009883a 	mov	r4,r2
 100211c:	e0bffe17 	ldw	r2,-8(fp)
 1002120:	10802517 	ldw	r2,148(r2)
 1002124:	10c03fcc 	andi	r3,r2,255
 1002128:	e0bffe17 	ldw	r2,-8(fp)
 100212c:	10800417 	ldw	r2,16(r2)
 1002130:	1080004c 	andi	r2,r2,1
 1002134:	1004923a 	slli	r2,r2,8
 1002138:	1884b03a 	or	r2,r3,r2
 100213c:	e0fffe17 	ldw	r3,-8(fp)
 1002140:	18c02a83 	ldbu	r3,170(r3)
 1002144:	18c03fcc 	andi	r3,r3,255
 1002148:	18c0004c 	andi	r3,r3,1
 100214c:	180692fa 	slli	r3,r3,11
 1002150:	10c4b03a 	or	r2,r2,r3
 1002154:	e0fffe17 	ldw	r3,-8(fp)
 1002158:	18c02b03 	ldbu	r3,172(r3)
 100215c:	18c03fcc 	andi	r3,r3,255
 1002160:	18c0004c 	andi	r3,r3,1
 1002164:	180692ba 	slli	r3,r3,10
 1002168:	10c4b03a 	or	r2,r2,r3
 100216c:	10a08014 	ori	r2,r2,33280
 1002170:	20800035 	stwio	r2,0(r4)
 1002174:	00804074 	movhi	r2,257
 1002178:	108c3704 	addi	r2,r2,12508
 100217c:	10800017 	ldw	r2,0(r2)
 1002180:	1000081e 	bne	r2,zero,10021a4 <sdhc_set_freq+0x224>
 1002184:	e0bfff17 	ldw	r2,-4(fp)
 1002188:	1009883a 	mov	r4,r2
 100218c:	0140fa04 	movi	r5,1000
 1002190:	100f7c40 	call	100f7c4 <__udivsi3>
 1002194:	01004074 	movhi	r4,257
 1002198:	21086d04 	addi	r4,r4,8628
 100219c:	100b883a 	mov	r5,r2
 10021a0:	1010a380 	call	1010a38 <printf>
 10021a4:	e0bfff17 	ldw	r2,-4(fp)
 10021a8:	e037883a 	mov	sp,fp
 10021ac:	dfc00117 	ldw	ra,4(sp)
 10021b0:	df000017 	ldw	fp,0(sp)
 10021b4:	dec00204 	addi	sp,sp,8
 10021b8:	f800283a 	ret

010021bc <sdhc_send_command>:
 10021bc:	defff704 	addi	sp,sp,-36
 10021c0:	dfc00815 	stw	ra,32(sp)
 10021c4:	df000715 	stw	fp,28(sp)
 10021c8:	df000704 	addi	fp,sp,28
 10021cc:	e13ffb15 	stw	r4,-20(fp)
 10021d0:	e17ffc15 	stw	r5,-16(fp)
 10021d4:	3007883a 	mov	r3,r6
 10021d8:	e1fffe15 	stw	r7,-8(fp)
 10021dc:	e0800317 	ldw	r2,12(fp)
 10021e0:	e0fffd05 	stb	r3,-12(fp)
 10021e4:	e0bfff05 	stb	r2,-4(fp)
 10021e8:	e03ffa15 	stw	zero,-24(fp)
 10021ec:	e0bffb17 	ldw	r2,-20(fp)
 10021f0:	10800017 	ldw	r2,0(r2)
 10021f4:	1007883a 	mov	r3,r2
 10021f8:	e0bffc17 	ldw	r2,-16(fp)
 10021fc:	18800035 	stwio	r2,0(r3)
 1002200:	e0800217 	ldw	r2,8(fp)
 1002204:	10000e26 	beq	r2,zero,1002240 <sdhc_send_command+0x84>
 1002208:	e0bffe17 	ldw	r2,-8(fp)
 100220c:	100492ba 	slli	r2,r2,10
 1002210:	10bfffcc 	andi	r2,r2,65535
 1002214:	e0fffd03 	ldbu	r3,-12(fp)
 1002218:	18c001cc 	andi	r3,r3,7
 100221c:	180694fa 	slli	r3,r3,19
 1002220:	10c4b03a 	or	r2,r2,r3
 1002224:	e0ffff03 	ldbu	r3,-4(fp)
 1002228:	18c001cc 	andi	r3,r3,7
 100222c:	1806943a 	slli	r3,r3,16
 1002230:	10c4b03a 	or	r2,r2,r3
 1002234:	10800194 	ori	r2,r2,6
 1002238:	e0bff915 	stw	r2,-28(fp)
 100223c:	00000d06 	br	1002274 <sdhc_send_command+0xb8>
 1002240:	e0bffe17 	ldw	r2,-8(fp)
 1002244:	100492ba 	slli	r2,r2,10
 1002248:	10bfffcc 	andi	r2,r2,65535
 100224c:	e0fffd03 	ldbu	r3,-12(fp)
 1002250:	18c001cc 	andi	r3,r3,7
 1002254:	180694fa 	slli	r3,r3,19
 1002258:	10c4b03a 	or	r2,r2,r3
 100225c:	e0ffff03 	ldbu	r3,-4(fp)
 1002260:	18c001cc 	andi	r3,r3,7
 1002264:	1806943a 	slli	r3,r3,16
 1002268:	10c4b03a 	or	r2,r2,r3
 100226c:	10800114 	ori	r2,r2,4
 1002270:	e0bff915 	stw	r2,-28(fp)
 1002274:	e0bffb17 	ldw	r2,-20(fp)
 1002278:	10800017 	ldw	r2,0(r2)
 100227c:	10800104 	addi	r2,r2,4
 1002280:	1007883a 	mov	r3,r2
 1002284:	e0bff917 	ldw	r2,-28(fp)
 1002288:	18800035 	stwio	r2,0(r3)
 100228c:	0001883a 	nop
 1002290:	e0bffb17 	ldw	r2,-20(fp)
 1002294:	10800017 	ldw	r2,0(r2)
 1002298:	10800704 	addi	r2,r2,28
 100229c:	10800037 	ldwio	r2,0(r2)
 10022a0:	1080010c 	andi	r2,r2,4
 10022a4:	103ffa26 	beq	r2,zero,1002290 <__alt_data_end+0xfffe1a90>
 10022a8:	e0bffb17 	ldw	r2,-20(fp)
 10022ac:	10800017 	ldw	r2,0(r2)
 10022b0:	10800704 	addi	r2,r2,28
 10022b4:	10800037 	ldwio	r2,0(r2)
 10022b8:	1080080c 	andi	r2,r2,32
 10022bc:	10000b26 	beq	r2,zero,10022ec <sdhc_send_command+0x130>
 10022c0:	00804074 	movhi	r2,257
 10022c4:	108c3704 	addi	r2,r2,12508
 10022c8:	10800017 	ldw	r2,0(r2)
 10022cc:	108000a8 	cmpgeui	r2,r2,2
 10022d0:	1000041e 	bne	r2,zero,10022e4 <sdhc_send_command+0x128>
 10022d4:	01004074 	movhi	r4,257
 10022d8:	21087604 	addi	r4,r4,8664
 10022dc:	e17ffe17 	ldw	r5,-8(fp)
 10022e0:	1010a380 	call	1010a38 <printf>
 10022e4:	00bffc04 	movi	r2,-16
 10022e8:	e0bffa15 	stw	r2,-24(fp)
 10022ec:	e0bffb17 	ldw	r2,-20(fp)
 10022f0:	10800017 	ldw	r2,0(r2)
 10022f4:	10800704 	addi	r2,r2,28
 10022f8:	10800037 	ldwio	r2,0(r2)
 10022fc:	1080400c 	andi	r2,r2,256
 1002300:	10000b26 	beq	r2,zero,1002330 <sdhc_send_command+0x174>
 1002304:	00804074 	movhi	r2,257
 1002308:	108c3704 	addi	r2,r2,12508
 100230c:	10800017 	ldw	r2,0(r2)
 1002310:	108000a8 	cmpgeui	r2,r2,2
 1002314:	1000041e 	bne	r2,zero,1002328 <sdhc_send_command+0x16c>
 1002318:	01004074 	movhi	r4,257
 100231c:	21088504 	addi	r4,r4,8724
 1002320:	e17ffe17 	ldw	r5,-8(fp)
 1002324:	1010a380 	call	1010a38 <printf>
 1002328:	00bffbc4 	movi	r2,-17
 100232c:	e0bffa15 	stw	r2,-24(fp)
 1002330:	e0bffa17 	ldw	r2,-24(fp)
 1002334:	e037883a 	mov	sp,fp
 1002338:	dfc00117 	ldw	ra,4(sp)
 100233c:	df000017 	ldw	fp,0(sp)
 1002340:	dec00204 	addi	sp,sp,8
 1002344:	f800283a 	ret

01002348 <sdhc_get_response>:
 1002348:	defff404 	addi	sp,sp,-48
 100234c:	dfc00b15 	stw	ra,44(sp)
 1002350:	df000a15 	stw	fp,40(sp)
 1002354:	df000a04 	addi	fp,sp,40
 1002358:	e13ffd15 	stw	r4,-12(fp)
 100235c:	e17ffe15 	stw	r5,-8(fp)
 1002360:	e1bfff15 	stw	r6,-4(fp)
 1002364:	e0bffe17 	ldw	r2,-8(fp)
 1002368:	e0bff715 	stw	r2,-36(fp)
 100236c:	e0bffd17 	ldw	r2,-12(fp)
 1002370:	10800017 	ldw	r2,0(r2)
 1002374:	10800b04 	addi	r2,r2,44
 1002378:	10800037 	ldwio	r2,0(r2)
 100237c:	e0bff815 	stw	r2,-32(fp)
 1002380:	e0bffd17 	ldw	r2,-12(fp)
 1002384:	10800017 	ldw	r2,0(r2)
 1002388:	10800c04 	addi	r2,r2,48
 100238c:	10800037 	ldwio	r2,0(r2)
 1002390:	e0bff915 	stw	r2,-28(fp)
 1002394:	e0bffd17 	ldw	r2,-12(fp)
 1002398:	10800017 	ldw	r2,0(r2)
 100239c:	10800d04 	addi	r2,r2,52
 10023a0:	10800037 	ldwio	r2,0(r2)
 10023a4:	e0bffa15 	stw	r2,-24(fp)
 10023a8:	e0bffd17 	ldw	r2,-12(fp)
 10023ac:	10800017 	ldw	r2,0(r2)
 10023b0:	10800e04 	addi	r2,r2,56
 10023b4:	10800037 	ldwio	r2,0(r2)
 10023b8:	e0bffb15 	stw	r2,-20(fp)
 10023bc:	e0bffd17 	ldw	r2,-12(fp)
 10023c0:	10800017 	ldw	r2,0(r2)
 10023c4:	10800f04 	addi	r2,r2,60
 10023c8:	10800037 	ldwio	r2,0(r2)
 10023cc:	e0bffc15 	stw	r2,-16(fp)
 10023d0:	e0bffd17 	ldw	r2,-12(fp)
 10023d4:	10800017 	ldw	r2,0(r2)
 10023d8:	10800704 	addi	r2,r2,28
 10023dc:	10800037 	ldwio	r2,0(r2)
 10023e0:	1080080c 	andi	r2,r2,32
 10023e4:	10000a26 	beq	r2,zero,1002410 <sdhc_get_response+0xc8>
 10023e8:	00804074 	movhi	r2,257
 10023ec:	108c3704 	addi	r2,r2,12508
 10023f0:	10800017 	ldw	r2,0(r2)
 10023f4:	108000a8 	cmpgeui	r2,r2,2
 10023f8:	1000031e 	bne	r2,zero,1002408 <sdhc_get_response+0xc0>
 10023fc:	01004074 	movhi	r4,257
 1002400:	21089504 	addi	r4,r4,8788
 1002404:	1010b240 	call	1010b24 <puts>
 1002408:	00bffc04 	movi	r2,-16
 100240c:	0000b406 	br	10026e0 <sdhc_get_response+0x398>
 1002410:	e0bffd17 	ldw	r2,-12(fp)
 1002414:	10800017 	ldw	r2,0(r2)
 1002418:	10800704 	addi	r2,r2,28
 100241c:	10800037 	ldwio	r2,0(r2)
 1002420:	1080400c 	andi	r2,r2,256
 1002424:	10000a26 	beq	r2,zero,1002450 <sdhc_get_response+0x108>
 1002428:	00804074 	movhi	r2,257
 100242c:	108c3704 	addi	r2,r2,12508
 1002430:	10800017 	ldw	r2,0(r2)
 1002434:	108000a8 	cmpgeui	r2,r2,2
 1002438:	1000031e 	bne	r2,zero,1002448 <sdhc_get_response+0x100>
 100243c:	01004074 	movhi	r4,257
 1002440:	2108a204 	addi	r4,r4,8840
 1002444:	1010b240 	call	1010b24 <puts>
 1002448:	00bffbc4 	movi	r2,-17
 100244c:	0000a406 	br	10026e0 <sdhc_get_response+0x398>
 1002450:	e0bfff17 	ldw	r2,-4(fp)
 1002454:	10800198 	cmpnei	r2,r2,6
 1002458:	10001d1e 	bne	r2,zero,10024d0 <sdhc_get_response+0x188>
 100245c:	e0bff917 	ldw	r2,-28(fp)
 1002460:	1004d23a 	srli	r2,r2,8
 1002464:	1007883a 	mov	r3,r2
 1002468:	e0bff717 	ldw	r2,-36(fp)
 100246c:	10c00005 	stb	r3,0(r2)
 1002470:	e0bff717 	ldw	r2,-36(fp)
 1002474:	10800044 	addi	r2,r2,1
 1002478:	e0fff917 	ldw	r3,-28(fp)
 100247c:	10c00005 	stb	r3,0(r2)
 1002480:	e0bff717 	ldw	r2,-36(fp)
 1002484:	10800084 	addi	r2,r2,2
 1002488:	e0fff817 	ldw	r3,-32(fp)
 100248c:	1806d63a 	srli	r3,r3,24
 1002490:	10c00005 	stb	r3,0(r2)
 1002494:	e0bff717 	ldw	r2,-36(fp)
 1002498:	108000c4 	addi	r2,r2,3
 100249c:	e0fff817 	ldw	r3,-32(fp)
 10024a0:	1806d43a 	srli	r3,r3,16
 10024a4:	10c00005 	stb	r3,0(r2)
 10024a8:	e0bff717 	ldw	r2,-36(fp)
 10024ac:	10800104 	addi	r2,r2,4
 10024b0:	e0fff817 	ldw	r3,-32(fp)
 10024b4:	1806d23a 	srli	r3,r3,8
 10024b8:	10c00005 	stb	r3,0(r2)
 10024bc:	e0bff717 	ldw	r2,-36(fp)
 10024c0:	10800144 	addi	r2,r2,5
 10024c4:	e0fff817 	ldw	r3,-32(fp)
 10024c8:	10c00005 	stb	r3,0(r2)
 10024cc:	00005e06 	br	1002648 <sdhc_get_response+0x300>
 10024d0:	e0bfff17 	ldw	r2,-4(fp)
 10024d4:	10800458 	cmpnei	r2,r2,17
 10024d8:	1000511e 	bne	r2,zero,1002620 <sdhc_get_response+0x2d8>
 10024dc:	e0bffc17 	ldw	r2,-16(fp)
 10024e0:	1007883a 	mov	r3,r2
 10024e4:	e0bff717 	ldw	r2,-36(fp)
 10024e8:	10c00005 	stb	r3,0(r2)
 10024ec:	e0bff717 	ldw	r2,-36(fp)
 10024f0:	10800104 	addi	r2,r2,4
 10024f4:	e0fffb17 	ldw	r3,-20(fp)
 10024f8:	1806d63a 	srli	r3,r3,24
 10024fc:	10c00005 	stb	r3,0(r2)
 1002500:	e0bff717 	ldw	r2,-36(fp)
 1002504:	108000c4 	addi	r2,r2,3
 1002508:	e0fffb17 	ldw	r3,-20(fp)
 100250c:	1806d43a 	srli	r3,r3,16
 1002510:	10c00005 	stb	r3,0(r2)
 1002514:	e0bff717 	ldw	r2,-36(fp)
 1002518:	10800084 	addi	r2,r2,2
 100251c:	e0fffb17 	ldw	r3,-20(fp)
 1002520:	1806d23a 	srli	r3,r3,8
 1002524:	10c00005 	stb	r3,0(r2)
 1002528:	e0bff717 	ldw	r2,-36(fp)
 100252c:	10800044 	addi	r2,r2,1
 1002530:	e0fffb17 	ldw	r3,-20(fp)
 1002534:	10c00005 	stb	r3,0(r2)
 1002538:	e0bff717 	ldw	r2,-36(fp)
 100253c:	10800204 	addi	r2,r2,8
 1002540:	e0fffa17 	ldw	r3,-24(fp)
 1002544:	1806d63a 	srli	r3,r3,24
 1002548:	10c00005 	stb	r3,0(r2)
 100254c:	e0bff717 	ldw	r2,-36(fp)
 1002550:	108001c4 	addi	r2,r2,7
 1002554:	e0fffa17 	ldw	r3,-24(fp)
 1002558:	1806d43a 	srli	r3,r3,16
 100255c:	10c00005 	stb	r3,0(r2)
 1002560:	e0bff717 	ldw	r2,-36(fp)
 1002564:	10800144 	addi	r2,r2,5
 1002568:	e0fffa17 	ldw	r3,-24(fp)
 100256c:	1806d23a 	srli	r3,r3,8
 1002570:	10c00005 	stb	r3,0(r2)
 1002574:	e0bff717 	ldw	r2,-36(fp)
 1002578:	10800184 	addi	r2,r2,6
 100257c:	e0fffa17 	ldw	r3,-24(fp)
 1002580:	10c00005 	stb	r3,0(r2)
 1002584:	e0bff717 	ldw	r2,-36(fp)
 1002588:	10800244 	addi	r2,r2,9
 100258c:	e0fff917 	ldw	r3,-28(fp)
 1002590:	1806d63a 	srli	r3,r3,24
 1002594:	10c00005 	stb	r3,0(r2)
 1002598:	e0bff717 	ldw	r2,-36(fp)
 100259c:	10800284 	addi	r2,r2,10
 10025a0:	e0fff917 	ldw	r3,-28(fp)
 10025a4:	1806d43a 	srli	r3,r3,16
 10025a8:	10c00005 	stb	r3,0(r2)
 10025ac:	e0bff717 	ldw	r2,-36(fp)
 10025b0:	108002c4 	addi	r2,r2,11
 10025b4:	e0fff917 	ldw	r3,-28(fp)
 10025b8:	1806d23a 	srli	r3,r3,8
 10025bc:	10c00005 	stb	r3,0(r2)
 10025c0:	e0bff717 	ldw	r2,-36(fp)
 10025c4:	10800304 	addi	r2,r2,12
 10025c8:	e0fff917 	ldw	r3,-28(fp)
 10025cc:	10c00005 	stb	r3,0(r2)
 10025d0:	e0bff717 	ldw	r2,-36(fp)
 10025d4:	10800344 	addi	r2,r2,13
 10025d8:	e0fff817 	ldw	r3,-32(fp)
 10025dc:	1806d63a 	srli	r3,r3,24
 10025e0:	10c00005 	stb	r3,0(r2)
 10025e4:	e0bff717 	ldw	r2,-36(fp)
 10025e8:	10800384 	addi	r2,r2,14
 10025ec:	e0fff817 	ldw	r3,-32(fp)
 10025f0:	1806d43a 	srli	r3,r3,16
 10025f4:	10c00005 	stb	r3,0(r2)
 10025f8:	e0bff717 	ldw	r2,-36(fp)
 10025fc:	108003c4 	addi	r2,r2,15
 1002600:	e0fff817 	ldw	r3,-32(fp)
 1002604:	1806d23a 	srli	r3,r3,8
 1002608:	10c00005 	stb	r3,0(r2)
 100260c:	e0bff717 	ldw	r2,-36(fp)
 1002610:	10800404 	addi	r2,r2,16
 1002614:	e0fff817 	ldw	r3,-32(fp)
 1002618:	10c00005 	stb	r3,0(r2)
 100261c:	00000a06 	br	1002648 <sdhc_get_response+0x300>
 1002620:	00804074 	movhi	r2,257
 1002624:	108c3704 	addi	r2,r2,12508
 1002628:	10800017 	ldw	r2,0(r2)
 100262c:	108000a8 	cmpgeui	r2,r2,2
 1002630:	1000031e 	bne	r2,zero,1002640 <sdhc_get_response+0x2f8>
 1002634:	01004074 	movhi	r4,257
 1002638:	2108b004 	addi	r4,r4,8896
 100263c:	1010b240 	call	1010b24 <puts>
 1002640:	00bffc44 	movi	r2,-15
 1002644:	00002606 	br	10026e0 <sdhc_get_response+0x398>
 1002648:	00804074 	movhi	r2,257
 100264c:	108c3704 	addi	r2,r2,12508
 1002650:	10800017 	ldw	r2,0(r2)
 1002654:	1000031e 	bne	r2,zero,1002664 <sdhc_get_response+0x31c>
 1002658:	01004074 	movhi	r4,257
 100265c:	2108b704 	addi	r4,r4,8924
 1002660:	1010a380 	call	1010a38 <printf>
 1002664:	e03ff605 	stb	zero,-40(fp)
 1002668:	00001006 	br	10026ac <sdhc_get_response+0x364>
 100266c:	00804074 	movhi	r2,257
 1002670:	108c3704 	addi	r2,r2,12508
 1002674:	10800017 	ldw	r2,0(r2)
 1002678:	1000091e 	bne	r2,zero,10026a0 <sdhc_get_response+0x358>
 100267c:	e0bff603 	ldbu	r2,-40(fp)
 1002680:	e0fff717 	ldw	r3,-36(fp)
 1002684:	1885883a 	add	r2,r3,r2
 1002688:	10800003 	ldbu	r2,0(r2)
 100268c:	10803fcc 	andi	r2,r2,255
 1002690:	01004074 	movhi	r4,257
 1002694:	2108ba04 	addi	r4,r4,8936
 1002698:	100b883a 	mov	r5,r2
 100269c:	1010a380 	call	1010a38 <printf>
 10026a0:	e0bff603 	ldbu	r2,-40(fp)
 10026a4:	10800044 	addi	r2,r2,1
 10026a8:	e0bff605 	stb	r2,-40(fp)
 10026ac:	e0fff603 	ldbu	r3,-40(fp)
 10026b0:	e0bfff17 	ldw	r2,-4(fp)
 10026b4:	18bfed36 	bltu	r3,r2,100266c <__alt_data_end+0xfffe1e6c>
 10026b8:	00804074 	movhi	r2,257
 10026bc:	108c3704 	addi	r2,r2,12508
 10026c0:	10800017 	ldw	r2,0(r2)
 10026c4:	1000021e 	bne	r2,zero,10026d0 <sdhc_get_response+0x388>
 10026c8:	01000284 	movi	r4,10
 10026cc:	1010a8c0 	call	1010a8c <putchar>
 10026d0:	e13ff717 	ldw	r4,-36(fp)
 10026d4:	e17fff17 	ldw	r5,-4(fp)
 10026d8:	10112d80 	call	10112d8 <alt_dcache_flush>
 10026dc:	0005883a 	mov	r2,zero
 10026e0:	e037883a 	mov	sp,fp
 10026e4:	dfc00117 	ldw	ra,4(sp)
 10026e8:	df000017 	ldw	fp,0(sp)
 10026ec:	dec00204 	addi	sp,sp,8
 10026f0:	f800283a 	ret

010026f4 <sdhc_sdio_read>:
 10026f4:	defff504 	addi	sp,sp,-44
 10026f8:	dfc00a15 	stw	ra,40(sp)
 10026fc:	df000915 	stw	fp,36(sp)
 1002700:	df000904 	addi	fp,sp,36
 1002704:	e13ffb15 	stw	r4,-20(fp)
 1002708:	e17ffc15 	stw	r5,-16(fp)
 100270c:	e1bffd15 	stw	r6,-12(fp)
 1002710:	e1fffe15 	stw	r7,-8(fp)
 1002714:	e0800317 	ldw	r2,12(fp)
 1002718:	e0bfff05 	stb	r2,-4(fp)
 100271c:	e03ff915 	stw	zero,-28(fp)
 1002720:	e0bffb17 	ldw	r2,-20(fp)
 1002724:	10800217 	ldw	r2,8(r2)
 1002728:	1000021e 	bne	r2,zero,1002734 <sdhc_sdio_read+0x40>
 100272c:	00bffd84 	movi	r2,-10
 1002730:	00006306 	br	10028c0 <sdhc_sdio_read+0x1cc>
 1002734:	e0c00217 	ldw	r3,8(fp)
 1002738:	e0bffe17 	ldw	r2,-8(fp)
 100273c:	1885383a 	mul	r2,r3,r2
 1002740:	e0bffa15 	stw	r2,-24(fp)
 1002744:	e1000417 	ldw	r4,16(fp)
 1002748:	e17ffa17 	ldw	r5,-24(fp)
 100274c:	10112d80 	call	10112d8 <alt_dcache_flush>
 1002750:	e0bffb17 	ldw	r2,-20(fp)
 1002754:	10800017 	ldw	r2,0(r2)
 1002758:	10800304 	addi	r2,r2,12
 100275c:	1007883a 	mov	r3,r2
 1002760:	e0800217 	ldw	r2,8(fp)
 1002764:	18800035 	stwio	r2,0(r3)
 1002768:	e0bffb17 	ldw	r2,-20(fp)
 100276c:	10800017 	ldw	r2,0(r2)
 1002770:	10800504 	addi	r2,r2,20
 1002774:	1007883a 	mov	r3,r2
 1002778:	e0800417 	ldw	r2,16(fp)
 100277c:	18800035 	stwio	r2,0(r3)
 1002780:	e0bffb17 	ldw	r2,-20(fp)
 1002784:	10800017 	ldw	r2,0(r2)
 1002788:	10800404 	addi	r2,r2,16
 100278c:	1007883a 	mov	r3,r2
 1002790:	e0bffa17 	ldw	r2,-24(fp)
 1002794:	18800035 	stwio	r2,0(r3)
 1002798:	e0bffb17 	ldw	r2,-20(fp)
 100279c:	10800017 	ldw	r2,0(r2)
 10027a0:	10800104 	addi	r2,r2,4
 10027a4:	1007883a 	mov	r3,r2
 10027a8:	00800804 	movi	r2,32
 10027ac:	18800035 	stwio	r2,0(r3)
 10027b0:	e0ffff03 	ldbu	r3,-4(fp)
 10027b4:	00800044 	movi	r2,1
 10027b8:	d8800015 	stw	r2,0(sp)
 10027bc:	d8000115 	stw	zero,4(sp)
 10027c0:	e13ffb17 	ldw	r4,-20(fp)
 10027c4:	e17ffc17 	ldw	r5,-16(fp)
 10027c8:	180d883a 	mov	r6,r3
 10027cc:	e1fffd17 	ldw	r7,-12(fp)
 10027d0:	10021bc0 	call	10021bc <sdhc_send_command>
 10027d4:	10000226 	beq	r2,zero,10027e0 <sdhc_sdio_read+0xec>
 10027d8:	00bffcc4 	movi	r2,-13
 10027dc:	00003806 	br	10028c0 <sdhc_sdio_read+0x1cc>
 10027e0:	0001883a 	nop
 10027e4:	e0bffb17 	ldw	r2,-20(fp)
 10027e8:	10800017 	ldw	r2,0(r2)
 10027ec:	10800704 	addi	r2,r2,28
 10027f0:	10800037 	ldwio	r2,0(r2)
 10027f4:	1080008c 	andi	r2,r2,2
 10027f8:	103ffa26 	beq	r2,zero,10027e4 <__alt_data_end+0xfffe1fe4>
 10027fc:	0001883a 	nop
 1002800:	e0bffb17 	ldw	r2,-20(fp)
 1002804:	10800017 	ldw	r2,0(r2)
 1002808:	10800704 	addi	r2,r2,28
 100280c:	10800037 	ldwio	r2,0(r2)
 1002810:	1080800c 	andi	r2,r2,512
 1002814:	103ffa26 	beq	r2,zero,1002800 <__alt_data_end+0xfffe2000>
 1002818:	e0bffb17 	ldw	r2,-20(fp)
 100281c:	10800017 	ldw	r2,0(r2)
 1002820:	10800704 	addi	r2,r2,28
 1002824:	10800037 	ldwio	r2,0(r2)
 1002828:	1080240c 	andi	r2,r2,144
 100282c:	10002026 	beq	r2,zero,10028b0 <sdhc_sdio_read+0x1bc>
 1002830:	e0bffb17 	ldw	r2,-20(fp)
 1002834:	10800017 	ldw	r2,0(r2)
 1002838:	10800704 	addi	r2,r2,28
 100283c:	10800037 	ldwio	r2,0(r2)
 1002840:	1080200c 	andi	r2,r2,128
 1002844:	10000a26 	beq	r2,zero,1002870 <sdhc_sdio_read+0x17c>
 1002848:	00804074 	movhi	r2,257
 100284c:	108c3704 	addi	r2,r2,12508
 1002850:	10800017 	ldw	r2,0(r2)
 1002854:	108000a8 	cmpgeui	r2,r2,2
 1002858:	1000031e 	bne	r2,zero,1002868 <sdhc_sdio_read+0x174>
 100285c:	01004074 	movhi	r4,257
 1002860:	2108bb04 	addi	r4,r4,8940
 1002864:	1010b240 	call	1010b24 <puts>
 1002868:	00bffac4 	movi	r2,-21
 100286c:	e0bff915 	stw	r2,-28(fp)
 1002870:	e0bffb17 	ldw	r2,-20(fp)
 1002874:	10800017 	ldw	r2,0(r2)
 1002878:	10800704 	addi	r2,r2,28
 100287c:	10800037 	ldwio	r2,0(r2)
 1002880:	1080040c 	andi	r2,r2,16
 1002884:	10000a26 	beq	r2,zero,10028b0 <sdhc_sdio_read+0x1bc>
 1002888:	00804074 	movhi	r2,257
 100288c:	108c3704 	addi	r2,r2,12508
 1002890:	10800017 	ldw	r2,0(r2)
 1002894:	108000a8 	cmpgeui	r2,r2,2
 1002898:	1000031e 	bne	r2,zero,10028a8 <sdhc_sdio_read+0x1b4>
 100289c:	01004074 	movhi	r4,257
 10028a0:	2108ca04 	addi	r4,r4,9000
 10028a4:	1010b240 	call	1010b24 <puts>
 10028a8:	00bffb04 	movi	r2,-20
 10028ac:	e0bff915 	stw	r2,-28(fp)
 10028b0:	e1000417 	ldw	r4,16(fp)
 10028b4:	e17ffa17 	ldw	r5,-24(fp)
 10028b8:	10112d80 	call	10112d8 <alt_dcache_flush>
 10028bc:	e0bff917 	ldw	r2,-28(fp)
 10028c0:	e037883a 	mov	sp,fp
 10028c4:	dfc00117 	ldw	ra,4(sp)
 10028c8:	df000017 	ldw	fp,0(sp)
 10028cc:	dec00204 	addi	sp,sp,8
 10028d0:	f800283a 	ret

010028d4 <sdhc_sdio_write>:
 10028d4:	defff504 	addi	sp,sp,-44
 10028d8:	dfc00a15 	stw	ra,40(sp)
 10028dc:	df000915 	stw	fp,36(sp)
 10028e0:	df000904 	addi	fp,sp,36
 10028e4:	e13ffb15 	stw	r4,-20(fp)
 10028e8:	e17ffc15 	stw	r5,-16(fp)
 10028ec:	e1bffd15 	stw	r6,-12(fp)
 10028f0:	e1fffe15 	stw	r7,-8(fp)
 10028f4:	e0800317 	ldw	r2,12(fp)
 10028f8:	e0bfff05 	stb	r2,-4(fp)
 10028fc:	e03ff915 	stw	zero,-28(fp)
 1002900:	e0fffe17 	ldw	r3,-8(fp)
 1002904:	e0800217 	ldw	r2,8(fp)
 1002908:	1885383a 	mul	r2,r3,r2
 100290c:	e0bffa15 	stw	r2,-24(fp)
 1002910:	e0bffb17 	ldw	r2,-20(fp)
 1002914:	10800217 	ldw	r2,8(r2)
 1002918:	1000021e 	bne	r2,zero,1002924 <sdhc_sdio_write+0x50>
 100291c:	00bffd84 	movi	r2,-10
 1002920:	00006606 	br	1002abc <sdhc_sdio_write+0x1e8>
 1002924:	e0bffb17 	ldw	r2,-20(fp)
 1002928:	10800317 	ldw	r2,12(r2)
 100292c:	10000226 	beq	r2,zero,1002938 <sdhc_sdio_write+0x64>
 1002930:	00bffd84 	movi	r2,-10
 1002934:	00006106 	br	1002abc <sdhc_sdio_write+0x1e8>
 1002938:	e1000417 	ldw	r4,16(fp)
 100293c:	e17ffa17 	ldw	r5,-24(fp)
 1002940:	10112d80 	call	10112d8 <alt_dcache_flush>
 1002944:	e0bffb17 	ldw	r2,-20(fp)
 1002948:	10800017 	ldw	r2,0(r2)
 100294c:	10800304 	addi	r2,r2,12
 1002950:	1007883a 	mov	r3,r2
 1002954:	e0800217 	ldw	r2,8(fp)
 1002958:	18800035 	stwio	r2,0(r3)
 100295c:	e0bffb17 	ldw	r2,-20(fp)
 1002960:	10800017 	ldw	r2,0(r2)
 1002964:	10800404 	addi	r2,r2,16
 1002968:	1007883a 	mov	r3,r2
 100296c:	e0bffa17 	ldw	r2,-24(fp)
 1002970:	18800035 	stwio	r2,0(r3)
 1002974:	e0bffb17 	ldw	r2,-20(fp)
 1002978:	10800017 	ldw	r2,0(r2)
 100297c:	10800504 	addi	r2,r2,20
 1002980:	1007883a 	mov	r3,r2
 1002984:	e0800417 	ldw	r2,16(fp)
 1002988:	18800035 	stwio	r2,0(r3)
 100298c:	e0bfff03 	ldbu	r2,-4(fp)
 1002990:	d8000015 	stw	zero,0(sp)
 1002994:	d8000115 	stw	zero,4(sp)
 1002998:	e13ffb17 	ldw	r4,-20(fp)
 100299c:	e17ffc17 	ldw	r5,-16(fp)
 10029a0:	100d883a 	mov	r6,r2
 10029a4:	e1fffd17 	ldw	r7,-12(fp)
 10029a8:	10021bc0 	call	10021bc <sdhc_send_command>
 10029ac:	10000226 	beq	r2,zero,10029b8 <sdhc_sdio_write+0xe4>
 10029b0:	00bffcc4 	movi	r2,-13
 10029b4:	00004106 	br	1002abc <sdhc_sdio_write+0x1e8>
 10029b8:	e0bffb17 	ldw	r2,-20(fp)
 10029bc:	10800017 	ldw	r2,0(r2)
 10029c0:	10800104 	addi	r2,r2,4
 10029c4:	1007883a 	mov	r3,r2
 10029c8:	00801004 	movi	r2,64
 10029cc:	18800035 	stwio	r2,0(r3)
 10029d0:	e0bffb17 	ldw	r2,-20(fp)
 10029d4:	10800017 	ldw	r2,0(r2)
 10029d8:	10800104 	addi	r2,r2,4
 10029dc:	1007883a 	mov	r3,r2
 10029e0:	00800044 	movi	r2,1
 10029e4:	18800035 	stwio	r2,0(r3)
 10029e8:	0001883a 	nop
 10029ec:	e0bffb17 	ldw	r2,-20(fp)
 10029f0:	10800017 	ldw	r2,0(r2)
 10029f4:	10800704 	addi	r2,r2,28
 10029f8:	10800037 	ldwio	r2,0(r2)
 10029fc:	1080004c 	andi	r2,r2,1
 1002a00:	103ffa26 	beq	r2,zero,10029ec <__alt_data_end+0xfffe21ec>
 1002a04:	0001883a 	nop
 1002a08:	e0bffb17 	ldw	r2,-20(fp)
 1002a0c:	10800017 	ldw	r2,0(r2)
 1002a10:	10800704 	addi	r2,r2,28
 1002a14:	10800037 	ldwio	r2,0(r2)
 1002a18:	1080800c 	andi	r2,r2,512
 1002a1c:	103ffa26 	beq	r2,zero,1002a08 <__alt_data_end+0xfffe2208>
 1002a20:	e0bffb17 	ldw	r2,-20(fp)
 1002a24:	10800017 	ldw	r2,0(r2)
 1002a28:	10800704 	addi	r2,r2,28
 1002a2c:	10800037 	ldwio	r2,0(r2)
 1002a30:	1080120c 	andi	r2,r2,72
 1002a34:	10002026 	beq	r2,zero,1002ab8 <sdhc_sdio_write+0x1e4>
 1002a38:	e0bffb17 	ldw	r2,-20(fp)
 1002a3c:	10800017 	ldw	r2,0(r2)
 1002a40:	10800704 	addi	r2,r2,28
 1002a44:	10800037 	ldwio	r2,0(r2)
 1002a48:	1080100c 	andi	r2,r2,64
 1002a4c:	10000a26 	beq	r2,zero,1002a78 <sdhc_sdio_write+0x1a4>
 1002a50:	00804074 	movhi	r2,257
 1002a54:	108c3704 	addi	r2,r2,12508
 1002a58:	10800017 	ldw	r2,0(r2)
 1002a5c:	108000a8 	cmpgeui	r2,r2,2
 1002a60:	1000031e 	bne	r2,zero,1002a70 <sdhc_sdio_write+0x19c>
 1002a64:	01004074 	movhi	r4,257
 1002a68:	2108d604 	addi	r4,r4,9048
 1002a6c:	1010b240 	call	1010b24 <puts>
 1002a70:	00bffb44 	movi	r2,-19
 1002a74:	e0bff915 	stw	r2,-28(fp)
 1002a78:	e0bffb17 	ldw	r2,-20(fp)
 1002a7c:	10800017 	ldw	r2,0(r2)
 1002a80:	10800704 	addi	r2,r2,28
 1002a84:	10800037 	ldwio	r2,0(r2)
 1002a88:	1080020c 	andi	r2,r2,8
 1002a8c:	10000a26 	beq	r2,zero,1002ab8 <sdhc_sdio_write+0x1e4>
 1002a90:	00804074 	movhi	r2,257
 1002a94:	108c3704 	addi	r2,r2,12508
 1002a98:	10800017 	ldw	r2,0(r2)
 1002a9c:	108000a8 	cmpgeui	r2,r2,2
 1002aa0:	1000031e 	bne	r2,zero,1002ab0 <sdhc_sdio_write+0x1dc>
 1002aa4:	01004074 	movhi	r4,257
 1002aa8:	2108e504 	addi	r4,r4,9108
 1002aac:	1010b240 	call	1010b24 <puts>
 1002ab0:	00bffb84 	movi	r2,-18
 1002ab4:	e0bff915 	stw	r2,-28(fp)
 1002ab8:	e0bff917 	ldw	r2,-28(fp)
 1002abc:	e037883a 	mov	sp,fp
 1002ac0:	dfc00117 	ldw	ra,4(sp)
 1002ac4:	df000017 	ldw	fp,0(sp)
 1002ac8:	dec00204 	addi	sp,sp,8
 1002acc:	f800283a 	ret

01002ad0 <sls_sdhc_irq>:
 1002ad0:	defff804 	addi	sp,sp,-32
 1002ad4:	dfc00715 	stw	ra,28(sp)
 1002ad8:	df000615 	stw	fp,24(sp)
 1002adc:	df000604 	addi	fp,sp,24
 1002ae0:	e13ffe15 	stw	r4,-8(fp)
 1002ae4:	e17fff15 	stw	r5,-4(fp)
 1002ae8:	e0bffe17 	ldw	r2,-8(fp)
 1002aec:	e0bffa15 	stw	r2,-24(fp)
 1002af0:	0005303a 	rdctl	r2,status
 1002af4:	e0bffc15 	stw	r2,-16(fp)
 1002af8:	e0fffc17 	ldw	r3,-16(fp)
 1002afc:	00bfff84 	movi	r2,-2
 1002b00:	1884703a 	and	r2,r3,r2
 1002b04:	1001703a 	wrctl	status,r2
 1002b08:	e0bffc17 	ldw	r2,-16(fp)
 1002b0c:	e0bffb15 	stw	r2,-20(fp)
 1002b10:	e0bffa17 	ldw	r2,-24(fp)
 1002b14:	10800017 	ldw	r2,0(r2)
 1002b18:	10800804 	addi	r2,r2,32
 1002b1c:	10800037 	ldwio	r2,0(r2)
 1002b20:	1081000c 	andi	r2,r2,1024
 1002b24:	10005826 	beq	r2,zero,1002c88 <sls_sdhc_irq+0x1b8>
 1002b28:	e0bffa17 	ldw	r2,-24(fp)
 1002b2c:	10800017 	ldw	r2,0(r2)
 1002b30:	10800704 	addi	r2,r2,28
 1002b34:	10800037 	ldwio	r2,0(r2)
 1002b38:	1090000c 	andi	r2,r2,16384
 1002b3c:	10005026 	beq	r2,zero,1002c80 <sls_sdhc_irq+0x1b0>
 1002b40:	e0bffa17 	ldw	r2,-24(fp)
 1002b44:	00ffffd4 	movui	r3,65535
 1002b48:	10c02115 	stw	r3,132(r2)
 1002b4c:	e0bffa17 	ldw	r2,-24(fp)
 1002b50:	00ffffd4 	movui	r3,65535
 1002b54:	10c02215 	stw	r3,136(r2)
 1002b58:	e0bffa17 	ldw	r2,-24(fp)
 1002b5c:	00ffffd4 	movui	r3,65535
 1002b60:	10c02315 	stw	r3,140(r2)
 1002b64:	e0bffa17 	ldw	r2,-24(fp)
 1002b68:	10800017 	ldw	r2,0(r2)
 1002b6c:	10800804 	addi	r2,r2,32
 1002b70:	1007883a 	mov	r3,r2
 1002b74:	e0bffa17 	ldw	r2,-24(fp)
 1002b78:	10802117 	ldw	r2,132(r2)
 1002b7c:	18800035 	stwio	r2,0(r3)
 1002b80:	e0bffa17 	ldw	r2,-24(fp)
 1002b84:	10800017 	ldw	r2,0(r2)
 1002b88:	10800904 	addi	r2,r2,36
 1002b8c:	1007883a 	mov	r3,r2
 1002b90:	e0bffa17 	ldw	r2,-24(fp)
 1002b94:	10802217 	ldw	r2,136(r2)
 1002b98:	18800035 	stwio	r2,0(r3)
 1002b9c:	e0bffa17 	ldw	r2,-24(fp)
 1002ba0:	10800017 	ldw	r2,0(r2)
 1002ba4:	10800a04 	addi	r2,r2,40
 1002ba8:	1007883a 	mov	r3,r2
 1002bac:	e0bffa17 	ldw	r2,-24(fp)
 1002bb0:	10802317 	ldw	r2,140(r2)
 1002bb4:	18800035 	stwio	r2,0(r3)
 1002bb8:	e13ffa17 	ldw	r4,-24(fp)
 1002bbc:	1007d8c0 	call	1007d8c <sdhc_card_init>
 1002bc0:	1000081e 	bne	r2,zero,1002be4 <sls_sdhc_irq+0x114>
 1002bc4:	e0bffa17 	ldw	r2,-24(fp)
 1002bc8:	10800417 	ldw	r2,16(r2)
 1002bcc:	10000526 	beq	r2,zero,1002be4 <sls_sdhc_irq+0x114>
 1002bd0:	e0bffa17 	ldw	r2,-24(fp)
 1002bd4:	10000415 	stw	zero,16(r2)
 1002bd8:	e13ffa17 	ldw	r4,-24(fp)
 1002bdc:	01400044 	movi	r5,1
 1002be0:	10076d80 	call	10076d8 <sdhc_mode_select>
 1002be4:	e13ffa17 	ldw	r4,-24(fp)
 1002be8:	10072a00 	call	10072a0 <sdhc_set_high_speed_mode>
 1002bec:	e0fffa17 	ldw	r3,-24(fp)
 1002bf0:	00840034 	movhi	r2,4096
 1002bf4:	10bffc04 	addi	r2,r2,-16
 1002bf8:	18802115 	stw	r2,132(r3)
 1002bfc:	e0fffa17 	ldw	r3,-24(fp)
 1002c00:	00840034 	movhi	r2,4096
 1002c04:	10bffc04 	addi	r2,r2,-16
 1002c08:	18802215 	stw	r2,136(r3)
 1002c0c:	e0fffa17 	ldw	r3,-24(fp)
 1002c10:	00804034 	movhi	r2,256
 1002c14:	10bffc04 	addi	r2,r2,-16
 1002c18:	18802315 	stw	r2,140(r3)
 1002c1c:	e0bffa17 	ldw	r2,-24(fp)
 1002c20:	10800017 	ldw	r2,0(r2)
 1002c24:	10800804 	addi	r2,r2,32
 1002c28:	1007883a 	mov	r3,r2
 1002c2c:	e0bffa17 	ldw	r2,-24(fp)
 1002c30:	10802117 	ldw	r2,132(r2)
 1002c34:	18800035 	stwio	r2,0(r3)
 1002c38:	e0bffa17 	ldw	r2,-24(fp)
 1002c3c:	10800017 	ldw	r2,0(r2)
 1002c40:	10800904 	addi	r2,r2,36
 1002c44:	1007883a 	mov	r3,r2
 1002c48:	e0bffa17 	ldw	r2,-24(fp)
 1002c4c:	10802217 	ldw	r2,136(r2)
 1002c50:	18800035 	stwio	r2,0(r3)
 1002c54:	e0bffa17 	ldw	r2,-24(fp)
 1002c58:	10800017 	ldw	r2,0(r2)
 1002c5c:	10800a04 	addi	r2,r2,40
 1002c60:	1007883a 	mov	r3,r2
 1002c64:	e0bffa17 	ldw	r2,-24(fp)
 1002c68:	10802317 	ldw	r2,140(r2)
 1002c6c:	18800035 	stwio	r2,0(r3)
 1002c70:	e0bffa17 	ldw	r2,-24(fp)
 1002c74:	00c00044 	movi	r3,1
 1002c78:	10c00215 	stw	r3,8(r2)
 1002c7c:	00000206 	br	1002c88 <sls_sdhc_irq+0x1b8>
 1002c80:	e0bffa17 	ldw	r2,-24(fp)
 1002c84:	10000215 	stw	zero,8(r2)
 1002c88:	e0bffa17 	ldw	r2,-24(fp)
 1002c8c:	10800017 	ldw	r2,0(r2)
 1002c90:	10800604 	addi	r2,r2,24
 1002c94:	1007883a 	mov	r3,r2
 1002c98:	e0bffa17 	ldw	r2,-24(fp)
 1002c9c:	10800017 	ldw	r2,0(r2)
 1002ca0:	10800604 	addi	r2,r2,24
 1002ca4:	10800037 	ldwio	r2,0(r2)
 1002ca8:	18800035 	stwio	r2,0(r3)
 1002cac:	e0bffb17 	ldw	r2,-20(fp)
 1002cb0:	e0bffd15 	stw	r2,-12(fp)
 1002cb4:	e0bffd17 	ldw	r2,-12(fp)
 1002cb8:	1001703a 	wrctl	status,r2
 1002cbc:	0001883a 	nop
 1002cc0:	e037883a 	mov	sp,fp
 1002cc4:	dfc00117 	ldw	ra,4(sp)
 1002cc8:	df000017 	ldw	fp,0(sp)
 1002ccc:	dec00204 	addi	sp,sp,8
 1002cd0:	f800283a 	ret

01002cd4 <sdhc_init>:
 1002cd4:	defffa04 	addi	sp,sp,-24
 1002cd8:	dfc00515 	stw	ra,20(sp)
 1002cdc:	df000415 	stw	fp,16(sp)
 1002ce0:	df000404 	addi	fp,sp,16
 1002ce4:	e13ffd15 	stw	r4,-12(fp)
 1002ce8:	e17ffe15 	stw	r5,-8(fp)
 1002cec:	e1bfff15 	stw	r6,-4(fp)
 1002cf0:	e03ffc15 	stw	zero,-16(fp)
 1002cf4:	e0bffe17 	ldw	r2,-8(fp)
 1002cf8:	10e00034 	orhi	r3,r2,32768
 1002cfc:	e0bffd17 	ldw	r2,-12(fp)
 1002d00:	10c00015 	stw	r3,0(r2)
 1002d04:	e0bffd17 	ldw	r2,-12(fp)
 1002d08:	10800017 	ldw	r2,0(r2)
 1002d0c:	10800204 	addi	r2,r2,8
 1002d10:	1007883a 	mov	r3,r2
 1002d14:	00900004 	movi	r2,16384
 1002d18:	18800035 	stwio	r2,0(r3)
 1002d1c:	e0bffd17 	ldw	r2,-12(fp)
 1002d20:	10000415 	stw	zero,16(r2)
 1002d24:	e0bffd17 	ldw	r2,-12(fp)
 1002d28:	e0ffff17 	ldw	r3,-4(fp)
 1002d2c:	10c00115 	stw	r3,4(r2)
 1002d30:	e0bffd17 	ldw	r2,-12(fp)
 1002d34:	10000215 	stw	zero,8(r2)
 1002d38:	e0bffd17 	ldw	r2,-12(fp)
 1002d3c:	10802017 	ldw	r2,128(r2)
 1002d40:	10d00034 	orhi	r3,r2,16384
 1002d44:	e0bffd17 	ldw	r2,-12(fp)
 1002d48:	10c02015 	stw	r3,128(r2)
 1002d4c:	e0bffd17 	ldw	r2,-12(fp)
 1002d50:	00ffffd4 	movui	r3,65535
 1002d54:	10c02115 	stw	r3,132(r2)
 1002d58:	e0bffd17 	ldw	r2,-12(fp)
 1002d5c:	00ffffd4 	movui	r3,65535
 1002d60:	10c02215 	stw	r3,136(r2)
 1002d64:	e0bffd17 	ldw	r2,-12(fp)
 1002d68:	00ffffd4 	movui	r3,65535
 1002d6c:	10c02315 	stw	r3,140(r2)
 1002d70:	e0bffd17 	ldw	r2,-12(fp)
 1002d74:	10800017 	ldw	r2,0(r2)
 1002d78:	10800804 	addi	r2,r2,32
 1002d7c:	1007883a 	mov	r3,r2
 1002d80:	e0bffd17 	ldw	r2,-12(fp)
 1002d84:	10802117 	ldw	r2,132(r2)
 1002d88:	18800035 	stwio	r2,0(r3)
 1002d8c:	e0bffd17 	ldw	r2,-12(fp)
 1002d90:	10800017 	ldw	r2,0(r2)
 1002d94:	10800904 	addi	r2,r2,36
 1002d98:	1007883a 	mov	r3,r2
 1002d9c:	e0bffd17 	ldw	r2,-12(fp)
 1002da0:	10802217 	ldw	r2,136(r2)
 1002da4:	18800035 	stwio	r2,0(r3)
 1002da8:	e0bffd17 	ldw	r2,-12(fp)
 1002dac:	10800017 	ldw	r2,0(r2)
 1002db0:	10800a04 	addi	r2,r2,40
 1002db4:	1007883a 	mov	r3,r2
 1002db8:	e0bffd17 	ldw	r2,-12(fp)
 1002dbc:	10802317 	ldw	r2,140(r2)
 1002dc0:	18800035 	stwio	r2,0(r3)
 1002dc4:	e0bffd17 	ldw	r2,-12(fp)
 1002dc8:	10800017 	ldw	r2,0(r2)
 1002dcc:	10800604 	addi	r2,r2,24
 1002dd0:	1007883a 	mov	r3,r2
 1002dd4:	00830004 	movi	r2,3072
 1002dd8:	18800035 	stwio	r2,0(r3)
 1002ddc:	e13ffd17 	ldw	r4,-12(fp)
 1002de0:	1001e880 	call	1001e88 <sdhc_sd_present>
 1002de4:	10800058 	cmpnei	r2,r2,1
 1002de8:	1000041e 	bne	r2,zero,1002dfc <sdhc_init+0x128>
 1002dec:	e13ffd17 	ldw	r4,-12(fp)
 1002df0:	1007d8c0 	call	1007d8c <sdhc_card_init>
 1002df4:	e0bffc15 	stw	r2,-16(fp)
 1002df8:	00000a06 	br	1002e24 <sdhc_init+0x150>
 1002dfc:	00804074 	movhi	r2,257
 1002e00:	108c3704 	addi	r2,r2,12508
 1002e04:	10800017 	ldw	r2,0(r2)
 1002e08:	108000a8 	cmpgeui	r2,r2,2
 1002e0c:	1000031e 	bne	r2,zero,1002e1c <sdhc_init+0x148>
 1002e10:	01004074 	movhi	r4,257
 1002e14:	2108f104 	addi	r4,r4,9156
 1002e18:	1010b240 	call	1010b24 <puts>
 1002e1c:	00bffd84 	movi	r2,-10
 1002e20:	e0bffc15 	stw	r2,-16(fp)
 1002e24:	e0bffd17 	ldw	r2,-12(fp)
 1002e28:	10800017 	ldw	r2,0(r2)
 1002e2c:	10800604 	addi	r2,r2,24
 1002e30:	1007883a 	mov	r3,r2
 1002e34:	e0bffd17 	ldw	r2,-12(fp)
 1002e38:	10800017 	ldw	r2,0(r2)
 1002e3c:	10800604 	addi	r2,r2,24
 1002e40:	10800037 	ldwio	r2,0(r2)
 1002e44:	18800035 	stwio	r2,0(r3)
 1002e48:	e0fffd17 	ldw	r3,-12(fp)
 1002e4c:	00804034 	movhi	r2,256
 1002e50:	10bffc04 	addi	r2,r2,-16
 1002e54:	18802115 	stw	r2,132(r3)
 1002e58:	e0fffd17 	ldw	r3,-12(fp)
 1002e5c:	00840034 	movhi	r2,4096
 1002e60:	10bffc04 	addi	r2,r2,-16
 1002e64:	18802215 	stw	r2,136(r3)
 1002e68:	e0fffd17 	ldw	r3,-12(fp)
 1002e6c:	00804034 	movhi	r2,256
 1002e70:	10bffc04 	addi	r2,r2,-16
 1002e74:	18802315 	stw	r2,140(r3)
 1002e78:	e0bffd17 	ldw	r2,-12(fp)
 1002e7c:	10800017 	ldw	r2,0(r2)
 1002e80:	10800804 	addi	r2,r2,32
 1002e84:	1007883a 	mov	r3,r2
 1002e88:	e0bffd17 	ldw	r2,-12(fp)
 1002e8c:	10802117 	ldw	r2,132(r2)
 1002e90:	18800035 	stwio	r2,0(r3)
 1002e94:	e0bffd17 	ldw	r2,-12(fp)
 1002e98:	10800017 	ldw	r2,0(r2)
 1002e9c:	10800904 	addi	r2,r2,36
 1002ea0:	1007883a 	mov	r3,r2
 1002ea4:	e0bffd17 	ldw	r2,-12(fp)
 1002ea8:	10802217 	ldw	r2,136(r2)
 1002eac:	18800035 	stwio	r2,0(r3)
 1002eb0:	e0bffd17 	ldw	r2,-12(fp)
 1002eb4:	10800017 	ldw	r2,0(r2)
 1002eb8:	10800a04 	addi	r2,r2,40
 1002ebc:	1007883a 	mov	r3,r2
 1002ec0:	e0bffd17 	ldw	r2,-12(fp)
 1002ec4:	10802317 	ldw	r2,140(r2)
 1002ec8:	18800035 	stwio	r2,0(r3)
 1002ecc:	e13fff17 	ldw	r4,-4(fp)
 1002ed0:	e17ffd17 	ldw	r5,-12(fp)
 1002ed4:	01804034 	movhi	r6,256
 1002ed8:	318ab404 	addi	r6,r6,10960
 1002edc:	10113000 	call	1011300 <alt_irq_register>
 1002ee0:	e0bffc17 	ldw	r2,-16(fp)
 1002ee4:	e037883a 	mov	sp,fp
 1002ee8:	dfc00117 	ldw	ra,4(sp)
 1002eec:	df000017 	ldw	fp,0(sp)
 1002ef0:	dec00204 	addi	sp,sp,8
 1002ef4:	f800283a 	ret

01002ef8 <sdhc_set_debug_level>:
 1002ef8:	defffe04 	addi	sp,sp,-8
 1002efc:	df000115 	stw	fp,4(sp)
 1002f00:	df000104 	addi	fp,sp,4
 1002f04:	e13fff15 	stw	r4,-4(fp)
 1002f08:	e0bfff17 	ldw	r2,-4(fp)
 1002f0c:	d0a00115 	stw	r2,-32764(gp)
 1002f10:	e037883a 	mov	sp,fp
 1002f14:	df000017 	ldw	fp,0(sp)
 1002f18:	dec00104 	addi	sp,sp,4
 1002f1c:	f800283a 	ret

01002f20 <sdhc_decode_cid>:
 1002f20:	deff7b04 	addi	sp,sp,-532
 1002f24:	dfc08415 	stw	ra,528(sp)
 1002f28:	df008315 	stw	fp,524(sp)
 1002f2c:	df008304 	addi	fp,sp,524
 1002f30:	e13ffd15 	stw	r4,-12(fp)
 1002f34:	e17ffe15 	stw	r5,-8(fp)
 1002f38:	e1bfff15 	stw	r6,-4(fp)
 1002f3c:	e13ffe17 	ldw	r4,-8(fp)
 1002f40:	000b883a 	mov	r5,zero
 1002f44:	01800604 	movi	r6,24
 1002f48:	10109dc0 	call	10109dc <memset>
 1002f4c:	e0bffd17 	ldw	r2,-12(fp)
 1002f50:	10802617 	ldw	r2,152(r2)
 1002f54:	108000d8 	cmpnei	r2,r2,3
 1002f58:	1003831e 	bne	r2,zero,1003d68 <sdhc_decode_cid+0xe48>
 1002f5c:	00800204 	movi	r2,8
 1002f60:	e0bf9915 	stw	r2,-412(fp)
 1002f64:	e0bf9917 	ldw	r2,-412(fp)
 1002f68:	10800808 	cmpgei	r2,r2,32
 1002f6c:	1000051e 	bne	r2,zero,1002f84 <sdhc_decode_cid+0x64>
 1002f70:	00c00044 	movi	r3,1
 1002f74:	e0bf9917 	ldw	r2,-412(fp)
 1002f78:	1884983a 	sll	r2,r3,r2
 1002f7c:	10bfffc4 	addi	r2,r2,-1
 1002f80:	00000106 	br	1002f88 <sdhc_decode_cid+0x68>
 1002f84:	00bfffc4 	movi	r2,-1
 1002f88:	e0bf9a15 	stw	r2,-408(fp)
 1002f8c:	e03f9b15 	stw	zero,-404(fp)
 1002f90:	00800604 	movi	r2,24
 1002f94:	e0bf9c15 	stw	r2,-400(fp)
 1002f98:	e0bf9b17 	ldw	r2,-404(fp)
 1002f9c:	1085883a 	add	r2,r2,r2
 1002fa0:	1085883a 	add	r2,r2,r2
 1002fa4:	1007883a 	mov	r3,r2
 1002fa8:	e0bfff17 	ldw	r2,-4(fp)
 1002fac:	10c5883a 	add	r2,r2,r3
 1002fb0:	10c00017 	ldw	r3,0(r2)
 1002fb4:	e0bf9c17 	ldw	r2,-400(fp)
 1002fb8:	1884d83a 	srl	r2,r3,r2
 1002fbc:	e0bf8015 	stw	r2,-512(fp)
 1002fc0:	e0ff9917 	ldw	r3,-412(fp)
 1002fc4:	e0bf9c17 	ldw	r2,-400(fp)
 1002fc8:	1885883a 	add	r2,r3,r2
 1002fcc:	10800850 	cmplti	r2,r2,33
 1002fd0:	1000161e 	bne	r2,zero,100302c <sdhc_decode_cid+0x10c>
 1002fd4:	e0bf9b17 	ldw	r2,-404(fp)
 1002fd8:	1085883a 	add	r2,r2,r2
 1002fdc:	1085883a 	add	r2,r2,r2
 1002fe0:	10bfff04 	addi	r2,r2,-4
 1002fe4:	e0ffff17 	ldw	r3,-4(fp)
 1002fe8:	1885883a 	add	r2,r3,r2
 1002fec:	10c00017 	ldw	r3,0(r2)
 1002ff0:	01000804 	movi	r4,32
 1002ff4:	e0bf9c17 	ldw	r2,-400(fp)
 1002ff8:	2089c83a 	sub	r4,r4,r2
 1002ffc:	00a00034 	movhi	r2,32768
 1003000:	108007c4 	addi	r2,r2,31
 1003004:	2084703a 	and	r2,r4,r2
 1003008:	1000040e 	bge	r2,zero,100301c <sdhc_decode_cid+0xfc>
 100300c:	10bfffc4 	addi	r2,r2,-1
 1003010:	013ff804 	movi	r4,-32
 1003014:	1104b03a 	or	r2,r2,r4
 1003018:	10800044 	addi	r2,r2,1
 100301c:	1884983a 	sll	r2,r3,r2
 1003020:	e0ff8017 	ldw	r3,-512(fp)
 1003024:	1884b03a 	or	r2,r3,r2
 1003028:	e0bf8015 	stw	r2,-512(fp)
 100302c:	e0ff8017 	ldw	r3,-512(fp)
 1003030:	e0bf9a17 	ldw	r2,-408(fp)
 1003034:	1886703a 	and	r3,r3,r2
 1003038:	e0bffe17 	ldw	r2,-8(fp)
 100303c:	10c00015 	stw	r3,0(r2)
 1003040:	00800204 	movi	r2,8
 1003044:	e0bf9d15 	stw	r2,-396(fp)
 1003048:	e0bf9d17 	ldw	r2,-396(fp)
 100304c:	10800808 	cmpgei	r2,r2,32
 1003050:	1000051e 	bne	r2,zero,1003068 <sdhc_decode_cid+0x148>
 1003054:	00c00044 	movi	r3,1
 1003058:	e0bf9d17 	ldw	r2,-396(fp)
 100305c:	1884983a 	sll	r2,r3,r2
 1003060:	10bfffc4 	addi	r2,r2,-1
 1003064:	00000106 	br	100306c <sdhc_decode_cid+0x14c>
 1003068:	00bfffc4 	movi	r2,-1
 100306c:	e0bf9e15 	stw	r2,-392(fp)
 1003070:	e03f9f15 	stw	zero,-388(fp)
 1003074:	00800204 	movi	r2,8
 1003078:	e0bfa015 	stw	r2,-384(fp)
 100307c:	e0bf9f17 	ldw	r2,-388(fp)
 1003080:	1085883a 	add	r2,r2,r2
 1003084:	1085883a 	add	r2,r2,r2
 1003088:	1007883a 	mov	r3,r2
 100308c:	e0bfff17 	ldw	r2,-4(fp)
 1003090:	10c5883a 	add	r2,r2,r3
 1003094:	10c00017 	ldw	r3,0(r2)
 1003098:	e0bfa017 	ldw	r2,-384(fp)
 100309c:	1884d83a 	srl	r2,r3,r2
 10030a0:	e0bf8115 	stw	r2,-508(fp)
 10030a4:	e0ff9d17 	ldw	r3,-396(fp)
 10030a8:	e0bfa017 	ldw	r2,-384(fp)
 10030ac:	1885883a 	add	r2,r3,r2
 10030b0:	10800850 	cmplti	r2,r2,33
 10030b4:	1000161e 	bne	r2,zero,1003110 <sdhc_decode_cid+0x1f0>
 10030b8:	e0bf9f17 	ldw	r2,-388(fp)
 10030bc:	1085883a 	add	r2,r2,r2
 10030c0:	1085883a 	add	r2,r2,r2
 10030c4:	10bfff04 	addi	r2,r2,-4
 10030c8:	e0ffff17 	ldw	r3,-4(fp)
 10030cc:	1885883a 	add	r2,r3,r2
 10030d0:	10c00017 	ldw	r3,0(r2)
 10030d4:	01000804 	movi	r4,32
 10030d8:	e0bfa017 	ldw	r2,-384(fp)
 10030dc:	2089c83a 	sub	r4,r4,r2
 10030e0:	00a00034 	movhi	r2,32768
 10030e4:	108007c4 	addi	r2,r2,31
 10030e8:	2084703a 	and	r2,r4,r2
 10030ec:	1000040e 	bge	r2,zero,1003100 <sdhc_decode_cid+0x1e0>
 10030f0:	10bfffc4 	addi	r2,r2,-1
 10030f4:	013ff804 	movi	r4,-32
 10030f8:	1104b03a 	or	r2,r2,r4
 10030fc:	10800044 	addi	r2,r2,1
 1003100:	1884983a 	sll	r2,r3,r2
 1003104:	e0ff8117 	ldw	r3,-508(fp)
 1003108:	1884b03a 	or	r2,r3,r2
 100310c:	e0bf8115 	stw	r2,-508(fp)
 1003110:	e0ff8117 	ldw	r3,-508(fp)
 1003114:	e0bf9e17 	ldw	r2,-392(fp)
 1003118:	1884703a 	and	r2,r3,r2
 100311c:	1007883a 	mov	r3,r2
 1003120:	e0bffe17 	ldw	r2,-8(fp)
 1003124:	10c0040d 	sth	r3,16(r2)
 1003128:	00800204 	movi	r2,8
 100312c:	e0bfa115 	stw	r2,-380(fp)
 1003130:	e0bfa117 	ldw	r2,-380(fp)
 1003134:	10800808 	cmpgei	r2,r2,32
 1003138:	1000051e 	bne	r2,zero,1003150 <sdhc_decode_cid+0x230>
 100313c:	00c00044 	movi	r3,1
 1003140:	e0bfa117 	ldw	r2,-380(fp)
 1003144:	1884983a 	sll	r2,r3,r2
 1003148:	10bfffc4 	addi	r2,r2,-1
 100314c:	00000106 	br	1003154 <sdhc_decode_cid+0x234>
 1003150:	00bfffc4 	movi	r2,-1
 1003154:	e0bfa215 	stw	r2,-376(fp)
 1003158:	e03fa315 	stw	zero,-372(fp)
 100315c:	e03fa415 	stw	zero,-368(fp)
 1003160:	e0bfa317 	ldw	r2,-372(fp)
 1003164:	1085883a 	add	r2,r2,r2
 1003168:	1085883a 	add	r2,r2,r2
 100316c:	1007883a 	mov	r3,r2
 1003170:	e0bfff17 	ldw	r2,-4(fp)
 1003174:	10c5883a 	add	r2,r2,r3
 1003178:	10c00017 	ldw	r3,0(r2)
 100317c:	e0bfa417 	ldw	r2,-368(fp)
 1003180:	1884d83a 	srl	r2,r3,r2
 1003184:	e0bf8215 	stw	r2,-504(fp)
 1003188:	e0ffa117 	ldw	r3,-380(fp)
 100318c:	e0bfa417 	ldw	r2,-368(fp)
 1003190:	1885883a 	add	r2,r3,r2
 1003194:	10800850 	cmplti	r2,r2,33
 1003198:	1000161e 	bne	r2,zero,10031f4 <sdhc_decode_cid+0x2d4>
 100319c:	e0bfa317 	ldw	r2,-372(fp)
 10031a0:	1085883a 	add	r2,r2,r2
 10031a4:	1085883a 	add	r2,r2,r2
 10031a8:	10bfff04 	addi	r2,r2,-4
 10031ac:	e0ffff17 	ldw	r3,-4(fp)
 10031b0:	1885883a 	add	r2,r3,r2
 10031b4:	10c00017 	ldw	r3,0(r2)
 10031b8:	01000804 	movi	r4,32
 10031bc:	e0bfa417 	ldw	r2,-368(fp)
 10031c0:	2089c83a 	sub	r4,r4,r2
 10031c4:	00a00034 	movhi	r2,32768
 10031c8:	108007c4 	addi	r2,r2,31
 10031cc:	2084703a 	and	r2,r4,r2
 10031d0:	1000040e 	bge	r2,zero,10031e4 <sdhc_decode_cid+0x2c4>
 10031d4:	10bfffc4 	addi	r2,r2,-1
 10031d8:	013ff804 	movi	r4,-32
 10031dc:	1104b03a 	or	r2,r2,r4
 10031e0:	10800044 	addi	r2,r2,1
 10031e4:	1884983a 	sll	r2,r3,r2
 10031e8:	e0ff8217 	ldw	r3,-504(fp)
 10031ec:	1884b03a 	or	r2,r3,r2
 10031f0:	e0bf8215 	stw	r2,-504(fp)
 10031f4:	e0ff8217 	ldw	r3,-504(fp)
 10031f8:	e0bfa217 	ldw	r2,-376(fp)
 10031fc:	1884703a 	and	r2,r3,r2
 1003200:	1007883a 	mov	r3,r2
 1003204:	e0bffe17 	ldw	r2,-8(fp)
 1003208:	10c00105 	stb	r3,4(r2)
 100320c:	00800204 	movi	r2,8
 1003210:	e0bfa515 	stw	r2,-364(fp)
 1003214:	e0bfa517 	ldw	r2,-364(fp)
 1003218:	10800808 	cmpgei	r2,r2,32
 100321c:	1000051e 	bne	r2,zero,1003234 <sdhc_decode_cid+0x314>
 1003220:	00c00044 	movi	r3,1
 1003224:	e0bfa517 	ldw	r2,-364(fp)
 1003228:	1884983a 	sll	r2,r3,r2
 100322c:	10bfffc4 	addi	r2,r2,-1
 1003230:	00000106 	br	1003238 <sdhc_decode_cid+0x318>
 1003234:	00bfffc4 	movi	r2,-1
 1003238:	e0bfa615 	stw	r2,-360(fp)
 100323c:	00800044 	movi	r2,1
 1003240:	e0bfa715 	stw	r2,-356(fp)
 1003244:	00800604 	movi	r2,24
 1003248:	e0bfa815 	stw	r2,-352(fp)
 100324c:	e0bfa717 	ldw	r2,-356(fp)
 1003250:	1085883a 	add	r2,r2,r2
 1003254:	1085883a 	add	r2,r2,r2
 1003258:	1007883a 	mov	r3,r2
 100325c:	e0bfff17 	ldw	r2,-4(fp)
 1003260:	10c5883a 	add	r2,r2,r3
 1003264:	10c00017 	ldw	r3,0(r2)
 1003268:	e0bfa817 	ldw	r2,-352(fp)
 100326c:	1884d83a 	srl	r2,r3,r2
 1003270:	e0bf8315 	stw	r2,-500(fp)
 1003274:	e0ffa517 	ldw	r3,-364(fp)
 1003278:	e0bfa817 	ldw	r2,-352(fp)
 100327c:	1885883a 	add	r2,r3,r2
 1003280:	10800850 	cmplti	r2,r2,33
 1003284:	1000161e 	bne	r2,zero,10032e0 <sdhc_decode_cid+0x3c0>
 1003288:	e0bfa717 	ldw	r2,-356(fp)
 100328c:	1085883a 	add	r2,r2,r2
 1003290:	1085883a 	add	r2,r2,r2
 1003294:	10bfff04 	addi	r2,r2,-4
 1003298:	e0ffff17 	ldw	r3,-4(fp)
 100329c:	1885883a 	add	r2,r3,r2
 10032a0:	10c00017 	ldw	r3,0(r2)
 10032a4:	01000804 	movi	r4,32
 10032a8:	e0bfa817 	ldw	r2,-352(fp)
 10032ac:	2089c83a 	sub	r4,r4,r2
 10032b0:	00a00034 	movhi	r2,32768
 10032b4:	108007c4 	addi	r2,r2,31
 10032b8:	2084703a 	and	r2,r4,r2
 10032bc:	1000040e 	bge	r2,zero,10032d0 <sdhc_decode_cid+0x3b0>
 10032c0:	10bfffc4 	addi	r2,r2,-1
 10032c4:	013ff804 	movi	r4,-32
 10032c8:	1104b03a 	or	r2,r2,r4
 10032cc:	10800044 	addi	r2,r2,1
 10032d0:	1884983a 	sll	r2,r3,r2
 10032d4:	e0ff8317 	ldw	r3,-500(fp)
 10032d8:	1884b03a 	or	r2,r3,r2
 10032dc:	e0bf8315 	stw	r2,-500(fp)
 10032e0:	e0ff8317 	ldw	r3,-500(fp)
 10032e4:	e0bfa617 	ldw	r2,-360(fp)
 10032e8:	1884703a 	and	r2,r3,r2
 10032ec:	1007883a 	mov	r3,r2
 10032f0:	e0bffe17 	ldw	r2,-8(fp)
 10032f4:	10c00145 	stb	r3,5(r2)
 10032f8:	00800204 	movi	r2,8
 10032fc:	e0bfa915 	stw	r2,-348(fp)
 1003300:	e0bfa917 	ldw	r2,-348(fp)
 1003304:	10800808 	cmpgei	r2,r2,32
 1003308:	1000051e 	bne	r2,zero,1003320 <sdhc_decode_cid+0x400>
 100330c:	00c00044 	movi	r3,1
 1003310:	e0bfa917 	ldw	r2,-348(fp)
 1003314:	1884983a 	sll	r2,r3,r2
 1003318:	10bfffc4 	addi	r2,r2,-1
 100331c:	00000106 	br	1003324 <sdhc_decode_cid+0x404>
 1003320:	00bfffc4 	movi	r2,-1
 1003324:	e0bfaa15 	stw	r2,-344(fp)
 1003328:	00800044 	movi	r2,1
 100332c:	e0bfab15 	stw	r2,-340(fp)
 1003330:	00800404 	movi	r2,16
 1003334:	e0bfac15 	stw	r2,-336(fp)
 1003338:	e0bfab17 	ldw	r2,-340(fp)
 100333c:	1085883a 	add	r2,r2,r2
 1003340:	1085883a 	add	r2,r2,r2
 1003344:	1007883a 	mov	r3,r2
 1003348:	e0bfff17 	ldw	r2,-4(fp)
 100334c:	10c5883a 	add	r2,r2,r3
 1003350:	10c00017 	ldw	r3,0(r2)
 1003354:	e0bfac17 	ldw	r2,-336(fp)
 1003358:	1884d83a 	srl	r2,r3,r2
 100335c:	e0bf8415 	stw	r2,-496(fp)
 1003360:	e0ffa917 	ldw	r3,-348(fp)
 1003364:	e0bfac17 	ldw	r2,-336(fp)
 1003368:	1885883a 	add	r2,r3,r2
 100336c:	10800850 	cmplti	r2,r2,33
 1003370:	1000161e 	bne	r2,zero,10033cc <sdhc_decode_cid+0x4ac>
 1003374:	e0bfab17 	ldw	r2,-340(fp)
 1003378:	1085883a 	add	r2,r2,r2
 100337c:	1085883a 	add	r2,r2,r2
 1003380:	10bfff04 	addi	r2,r2,-4
 1003384:	e0ffff17 	ldw	r3,-4(fp)
 1003388:	1885883a 	add	r2,r3,r2
 100338c:	10c00017 	ldw	r3,0(r2)
 1003390:	01000804 	movi	r4,32
 1003394:	e0bfac17 	ldw	r2,-336(fp)
 1003398:	2089c83a 	sub	r4,r4,r2
 100339c:	00a00034 	movhi	r2,32768
 10033a0:	108007c4 	addi	r2,r2,31
 10033a4:	2084703a 	and	r2,r4,r2
 10033a8:	1000040e 	bge	r2,zero,10033bc <sdhc_decode_cid+0x49c>
 10033ac:	10bfffc4 	addi	r2,r2,-1
 10033b0:	013ff804 	movi	r4,-32
 10033b4:	1104b03a 	or	r2,r2,r4
 10033b8:	10800044 	addi	r2,r2,1
 10033bc:	1884983a 	sll	r2,r3,r2
 10033c0:	e0ff8417 	ldw	r3,-496(fp)
 10033c4:	1884b03a 	or	r2,r3,r2
 10033c8:	e0bf8415 	stw	r2,-496(fp)
 10033cc:	e0ff8417 	ldw	r3,-496(fp)
 10033d0:	e0bfaa17 	ldw	r2,-344(fp)
 10033d4:	1884703a 	and	r2,r3,r2
 10033d8:	1007883a 	mov	r3,r2
 10033dc:	e0bffe17 	ldw	r2,-8(fp)
 10033e0:	10c00185 	stb	r3,6(r2)
 10033e4:	00800204 	movi	r2,8
 10033e8:	e0bfad15 	stw	r2,-332(fp)
 10033ec:	e0bfad17 	ldw	r2,-332(fp)
 10033f0:	10800808 	cmpgei	r2,r2,32
 10033f4:	1000051e 	bne	r2,zero,100340c <sdhc_decode_cid+0x4ec>
 10033f8:	00c00044 	movi	r3,1
 10033fc:	e0bfad17 	ldw	r2,-332(fp)
 1003400:	1884983a 	sll	r2,r3,r2
 1003404:	10bfffc4 	addi	r2,r2,-1
 1003408:	00000106 	br	1003410 <sdhc_decode_cid+0x4f0>
 100340c:	00bfffc4 	movi	r2,-1
 1003410:	e0bfae15 	stw	r2,-328(fp)
 1003414:	00800044 	movi	r2,1
 1003418:	e0bfaf15 	stw	r2,-324(fp)
 100341c:	00800204 	movi	r2,8
 1003420:	e0bfb015 	stw	r2,-320(fp)
 1003424:	e0bfaf17 	ldw	r2,-324(fp)
 1003428:	1085883a 	add	r2,r2,r2
 100342c:	1085883a 	add	r2,r2,r2
 1003430:	1007883a 	mov	r3,r2
 1003434:	e0bfff17 	ldw	r2,-4(fp)
 1003438:	10c5883a 	add	r2,r2,r3
 100343c:	10c00017 	ldw	r3,0(r2)
 1003440:	e0bfb017 	ldw	r2,-320(fp)
 1003444:	1884d83a 	srl	r2,r3,r2
 1003448:	e0bf8515 	stw	r2,-492(fp)
 100344c:	e0ffad17 	ldw	r3,-332(fp)
 1003450:	e0bfb017 	ldw	r2,-320(fp)
 1003454:	1885883a 	add	r2,r3,r2
 1003458:	10800850 	cmplti	r2,r2,33
 100345c:	1000161e 	bne	r2,zero,10034b8 <sdhc_decode_cid+0x598>
 1003460:	e0bfaf17 	ldw	r2,-324(fp)
 1003464:	1085883a 	add	r2,r2,r2
 1003468:	1085883a 	add	r2,r2,r2
 100346c:	10bfff04 	addi	r2,r2,-4
 1003470:	e0ffff17 	ldw	r3,-4(fp)
 1003474:	1885883a 	add	r2,r3,r2
 1003478:	10c00017 	ldw	r3,0(r2)
 100347c:	01000804 	movi	r4,32
 1003480:	e0bfb017 	ldw	r2,-320(fp)
 1003484:	2089c83a 	sub	r4,r4,r2
 1003488:	00a00034 	movhi	r2,32768
 100348c:	108007c4 	addi	r2,r2,31
 1003490:	2084703a 	and	r2,r4,r2
 1003494:	1000040e 	bge	r2,zero,10034a8 <sdhc_decode_cid+0x588>
 1003498:	10bfffc4 	addi	r2,r2,-1
 100349c:	013ff804 	movi	r4,-32
 10034a0:	1104b03a 	or	r2,r2,r4
 10034a4:	10800044 	addi	r2,r2,1
 10034a8:	1884983a 	sll	r2,r3,r2
 10034ac:	e0ff8517 	ldw	r3,-492(fp)
 10034b0:	1884b03a 	or	r2,r3,r2
 10034b4:	e0bf8515 	stw	r2,-492(fp)
 10034b8:	e0ff8517 	ldw	r3,-492(fp)
 10034bc:	e0bfae17 	ldw	r2,-328(fp)
 10034c0:	1884703a 	and	r2,r3,r2
 10034c4:	1007883a 	mov	r3,r2
 10034c8:	e0bffe17 	ldw	r2,-8(fp)
 10034cc:	10c001c5 	stb	r3,7(r2)
 10034d0:	00800204 	movi	r2,8
 10034d4:	e0bfb115 	stw	r2,-316(fp)
 10034d8:	e0bfb117 	ldw	r2,-316(fp)
 10034dc:	10800808 	cmpgei	r2,r2,32
 10034e0:	1000051e 	bne	r2,zero,10034f8 <sdhc_decode_cid+0x5d8>
 10034e4:	00c00044 	movi	r3,1
 10034e8:	e0bfb117 	ldw	r2,-316(fp)
 10034ec:	1884983a 	sll	r2,r3,r2
 10034f0:	10bfffc4 	addi	r2,r2,-1
 10034f4:	00000106 	br	10034fc <sdhc_decode_cid+0x5dc>
 10034f8:	00bfffc4 	movi	r2,-1
 10034fc:	e0bfb215 	stw	r2,-312(fp)
 1003500:	00800044 	movi	r2,1
 1003504:	e0bfb315 	stw	r2,-308(fp)
 1003508:	e03fb415 	stw	zero,-304(fp)
 100350c:	e0bfb317 	ldw	r2,-308(fp)
 1003510:	1085883a 	add	r2,r2,r2
 1003514:	1085883a 	add	r2,r2,r2
 1003518:	1007883a 	mov	r3,r2
 100351c:	e0bfff17 	ldw	r2,-4(fp)
 1003520:	10c5883a 	add	r2,r2,r3
 1003524:	10c00017 	ldw	r3,0(r2)
 1003528:	e0bfb417 	ldw	r2,-304(fp)
 100352c:	1884d83a 	srl	r2,r3,r2
 1003530:	e0bf8615 	stw	r2,-488(fp)
 1003534:	e0ffb117 	ldw	r3,-316(fp)
 1003538:	e0bfb417 	ldw	r2,-304(fp)
 100353c:	1885883a 	add	r2,r3,r2
 1003540:	10800850 	cmplti	r2,r2,33
 1003544:	1000161e 	bne	r2,zero,10035a0 <sdhc_decode_cid+0x680>
 1003548:	e0bfb317 	ldw	r2,-308(fp)
 100354c:	1085883a 	add	r2,r2,r2
 1003550:	1085883a 	add	r2,r2,r2
 1003554:	10bfff04 	addi	r2,r2,-4
 1003558:	e0ffff17 	ldw	r3,-4(fp)
 100355c:	1885883a 	add	r2,r3,r2
 1003560:	10c00017 	ldw	r3,0(r2)
 1003564:	01000804 	movi	r4,32
 1003568:	e0bfb417 	ldw	r2,-304(fp)
 100356c:	2089c83a 	sub	r4,r4,r2
 1003570:	00a00034 	movhi	r2,32768
 1003574:	108007c4 	addi	r2,r2,31
 1003578:	2084703a 	and	r2,r4,r2
 100357c:	1000040e 	bge	r2,zero,1003590 <sdhc_decode_cid+0x670>
 1003580:	10bfffc4 	addi	r2,r2,-1
 1003584:	013ff804 	movi	r4,-32
 1003588:	1104b03a 	or	r2,r2,r4
 100358c:	10800044 	addi	r2,r2,1
 1003590:	1884983a 	sll	r2,r3,r2
 1003594:	e0ff8617 	ldw	r3,-488(fp)
 1003598:	1884b03a 	or	r2,r3,r2
 100359c:	e0bf8615 	stw	r2,-488(fp)
 10035a0:	e0ff8617 	ldw	r3,-488(fp)
 10035a4:	e0bfb217 	ldw	r2,-312(fp)
 10035a8:	1884703a 	and	r2,r3,r2
 10035ac:	1007883a 	mov	r3,r2
 10035b0:	e0bffe17 	ldw	r2,-8(fp)
 10035b4:	10c00205 	stb	r3,8(r2)
 10035b8:	00800204 	movi	r2,8
 10035bc:	e0bfb515 	stw	r2,-300(fp)
 10035c0:	e0bfb517 	ldw	r2,-300(fp)
 10035c4:	10800808 	cmpgei	r2,r2,32
 10035c8:	1000051e 	bne	r2,zero,10035e0 <sdhc_decode_cid+0x6c0>
 10035cc:	00c00044 	movi	r3,1
 10035d0:	e0bfb517 	ldw	r2,-300(fp)
 10035d4:	1884983a 	sll	r2,r3,r2
 10035d8:	10bfffc4 	addi	r2,r2,-1
 10035dc:	00000106 	br	10035e4 <sdhc_decode_cid+0x6c4>
 10035e0:	00bfffc4 	movi	r2,-1
 10035e4:	e0bfb615 	stw	r2,-296(fp)
 10035e8:	00800084 	movi	r2,2
 10035ec:	e0bfb715 	stw	r2,-292(fp)
 10035f0:	00800604 	movi	r2,24
 10035f4:	e0bfb815 	stw	r2,-288(fp)
 10035f8:	e0bfb717 	ldw	r2,-292(fp)
 10035fc:	1085883a 	add	r2,r2,r2
 1003600:	1085883a 	add	r2,r2,r2
 1003604:	1007883a 	mov	r3,r2
 1003608:	e0bfff17 	ldw	r2,-4(fp)
 100360c:	10c5883a 	add	r2,r2,r3
 1003610:	10c00017 	ldw	r3,0(r2)
 1003614:	e0bfb817 	ldw	r2,-288(fp)
 1003618:	1884d83a 	srl	r2,r3,r2
 100361c:	e0bf8715 	stw	r2,-484(fp)
 1003620:	e0ffb517 	ldw	r3,-300(fp)
 1003624:	e0bfb817 	ldw	r2,-288(fp)
 1003628:	1885883a 	add	r2,r3,r2
 100362c:	10800850 	cmplti	r2,r2,33
 1003630:	1000161e 	bne	r2,zero,100368c <sdhc_decode_cid+0x76c>
 1003634:	e0bfb717 	ldw	r2,-292(fp)
 1003638:	1085883a 	add	r2,r2,r2
 100363c:	1085883a 	add	r2,r2,r2
 1003640:	10bfff04 	addi	r2,r2,-4
 1003644:	e0ffff17 	ldw	r3,-4(fp)
 1003648:	1885883a 	add	r2,r3,r2
 100364c:	10c00017 	ldw	r3,0(r2)
 1003650:	01000804 	movi	r4,32
 1003654:	e0bfb817 	ldw	r2,-288(fp)
 1003658:	2089c83a 	sub	r4,r4,r2
 100365c:	00a00034 	movhi	r2,32768
 1003660:	108007c4 	addi	r2,r2,31
 1003664:	2084703a 	and	r2,r4,r2
 1003668:	1000040e 	bge	r2,zero,100367c <sdhc_decode_cid+0x75c>
 100366c:	10bfffc4 	addi	r2,r2,-1
 1003670:	013ff804 	movi	r4,-32
 1003674:	1104b03a 	or	r2,r2,r4
 1003678:	10800044 	addi	r2,r2,1
 100367c:	1884983a 	sll	r2,r3,r2
 1003680:	e0ff8717 	ldw	r3,-484(fp)
 1003684:	1884b03a 	or	r2,r3,r2
 1003688:	e0bf8715 	stw	r2,-484(fp)
 100368c:	e0ff8717 	ldw	r3,-484(fp)
 1003690:	e0bfb617 	ldw	r2,-296(fp)
 1003694:	1884703a 	and	r2,r3,r2
 1003698:	1007883a 	mov	r3,r2
 100369c:	e0bffe17 	ldw	r2,-8(fp)
 10036a0:	10c00245 	stb	r3,9(r2)
 10036a4:	00800104 	movi	r2,4
 10036a8:	e0bfb915 	stw	r2,-284(fp)
 10036ac:	e0bfb917 	ldw	r2,-284(fp)
 10036b0:	10800808 	cmpgei	r2,r2,32
 10036b4:	1000051e 	bne	r2,zero,10036cc <sdhc_decode_cid+0x7ac>
 10036b8:	00c00044 	movi	r3,1
 10036bc:	e0bfb917 	ldw	r2,-284(fp)
 10036c0:	1884983a 	sll	r2,r3,r2
 10036c4:	10bfffc4 	addi	r2,r2,-1
 10036c8:	00000106 	br	10036d0 <sdhc_decode_cid+0x7b0>
 10036cc:	00bfffc4 	movi	r2,-1
 10036d0:	e0bfba15 	stw	r2,-280(fp)
 10036d4:	00800084 	movi	r2,2
 10036d8:	e0bfbb15 	stw	r2,-276(fp)
 10036dc:	00800504 	movi	r2,20
 10036e0:	e0bfbc15 	stw	r2,-272(fp)
 10036e4:	e0bfbb17 	ldw	r2,-276(fp)
 10036e8:	1085883a 	add	r2,r2,r2
 10036ec:	1085883a 	add	r2,r2,r2
 10036f0:	1007883a 	mov	r3,r2
 10036f4:	e0bfff17 	ldw	r2,-4(fp)
 10036f8:	10c5883a 	add	r2,r2,r3
 10036fc:	10c00017 	ldw	r3,0(r2)
 1003700:	e0bfbc17 	ldw	r2,-272(fp)
 1003704:	1884d83a 	srl	r2,r3,r2
 1003708:	e0bf8815 	stw	r2,-480(fp)
 100370c:	e0ffb917 	ldw	r3,-284(fp)
 1003710:	e0bfbc17 	ldw	r2,-272(fp)
 1003714:	1885883a 	add	r2,r3,r2
 1003718:	10800850 	cmplti	r2,r2,33
 100371c:	1000161e 	bne	r2,zero,1003778 <sdhc_decode_cid+0x858>
 1003720:	e0bfbb17 	ldw	r2,-276(fp)
 1003724:	1085883a 	add	r2,r2,r2
 1003728:	1085883a 	add	r2,r2,r2
 100372c:	10bfff04 	addi	r2,r2,-4
 1003730:	e0ffff17 	ldw	r3,-4(fp)
 1003734:	1885883a 	add	r2,r3,r2
 1003738:	10c00017 	ldw	r3,0(r2)
 100373c:	01000804 	movi	r4,32
 1003740:	e0bfbc17 	ldw	r2,-272(fp)
 1003744:	2089c83a 	sub	r4,r4,r2
 1003748:	00a00034 	movhi	r2,32768
 100374c:	108007c4 	addi	r2,r2,31
 1003750:	2084703a 	and	r2,r4,r2
 1003754:	1000040e 	bge	r2,zero,1003768 <sdhc_decode_cid+0x848>
 1003758:	10bfffc4 	addi	r2,r2,-1
 100375c:	013ff804 	movi	r4,-32
 1003760:	1104b03a 	or	r2,r2,r4
 1003764:	10800044 	addi	r2,r2,1
 1003768:	1884983a 	sll	r2,r3,r2
 100376c:	e0ff8817 	ldw	r3,-480(fp)
 1003770:	1884b03a 	or	r2,r3,r2
 1003774:	e0bf8815 	stw	r2,-480(fp)
 1003778:	e0ff8817 	ldw	r3,-480(fp)
 100377c:	e0bfba17 	ldw	r2,-280(fp)
 1003780:	1884703a 	and	r2,r3,r2
 1003784:	1007883a 	mov	r3,r2
 1003788:	e0bffe17 	ldw	r2,-8(fp)
 100378c:	10c00505 	stb	r3,20(r2)
 1003790:	00800104 	movi	r2,4
 1003794:	e0bfbd15 	stw	r2,-268(fp)
 1003798:	e0bfbd17 	ldw	r2,-268(fp)
 100379c:	10800808 	cmpgei	r2,r2,32
 10037a0:	1000051e 	bne	r2,zero,10037b8 <sdhc_decode_cid+0x898>
 10037a4:	00c00044 	movi	r3,1
 10037a8:	e0bfbd17 	ldw	r2,-268(fp)
 10037ac:	1884983a 	sll	r2,r3,r2
 10037b0:	10bfffc4 	addi	r2,r2,-1
 10037b4:	00000106 	br	10037bc <sdhc_decode_cid+0x89c>
 10037b8:	00bfffc4 	movi	r2,-1
 10037bc:	e0bfbe15 	stw	r2,-264(fp)
 10037c0:	00800084 	movi	r2,2
 10037c4:	e0bfbf15 	stw	r2,-260(fp)
 10037c8:	00800404 	movi	r2,16
 10037cc:	e0bfc015 	stw	r2,-256(fp)
 10037d0:	e0bfbf17 	ldw	r2,-260(fp)
 10037d4:	1085883a 	add	r2,r2,r2
 10037d8:	1085883a 	add	r2,r2,r2
 10037dc:	1007883a 	mov	r3,r2
 10037e0:	e0bfff17 	ldw	r2,-4(fp)
 10037e4:	10c5883a 	add	r2,r2,r3
 10037e8:	10c00017 	ldw	r3,0(r2)
 10037ec:	e0bfc017 	ldw	r2,-256(fp)
 10037f0:	1884d83a 	srl	r2,r3,r2
 10037f4:	e0bf8915 	stw	r2,-476(fp)
 10037f8:	e0ffbd17 	ldw	r3,-268(fp)
 10037fc:	e0bfc017 	ldw	r2,-256(fp)
 1003800:	1885883a 	add	r2,r3,r2
 1003804:	10800850 	cmplti	r2,r2,33
 1003808:	1000161e 	bne	r2,zero,1003864 <sdhc_decode_cid+0x944>
 100380c:	e0bfbf17 	ldw	r2,-260(fp)
 1003810:	1085883a 	add	r2,r2,r2
 1003814:	1085883a 	add	r2,r2,r2
 1003818:	10bfff04 	addi	r2,r2,-4
 100381c:	e0ffff17 	ldw	r3,-4(fp)
 1003820:	1885883a 	add	r2,r3,r2
 1003824:	10c00017 	ldw	r3,0(r2)
 1003828:	01000804 	movi	r4,32
 100382c:	e0bfc017 	ldw	r2,-256(fp)
 1003830:	2089c83a 	sub	r4,r4,r2
 1003834:	00a00034 	movhi	r2,32768
 1003838:	108007c4 	addi	r2,r2,31
 100383c:	2084703a 	and	r2,r4,r2
 1003840:	1000040e 	bge	r2,zero,1003854 <sdhc_decode_cid+0x934>
 1003844:	10bfffc4 	addi	r2,r2,-1
 1003848:	013ff804 	movi	r4,-32
 100384c:	1104b03a 	or	r2,r2,r4
 1003850:	10800044 	addi	r2,r2,1
 1003854:	1884983a 	sll	r2,r3,r2
 1003858:	e0ff8917 	ldw	r3,-476(fp)
 100385c:	1884b03a 	or	r2,r3,r2
 1003860:	e0bf8915 	stw	r2,-476(fp)
 1003864:	e0ff8917 	ldw	r3,-476(fp)
 1003868:	e0bfbe17 	ldw	r2,-264(fp)
 100386c:	1884703a 	and	r2,r3,r2
 1003870:	1007883a 	mov	r3,r2
 1003874:	e0bffe17 	ldw	r2,-8(fp)
 1003878:	10c00545 	stb	r3,21(r2)
 100387c:	00800804 	movi	r2,32
 1003880:	e0bfc115 	stw	r2,-252(fp)
 1003884:	e0bfc117 	ldw	r2,-252(fp)
 1003888:	10800808 	cmpgei	r2,r2,32
 100388c:	1000051e 	bne	r2,zero,10038a4 <sdhc_decode_cid+0x984>
 1003890:	00c00044 	movi	r3,1
 1003894:	e0bfc117 	ldw	r2,-252(fp)
 1003898:	1884983a 	sll	r2,r3,r2
 100389c:	10bfffc4 	addi	r2,r2,-1
 10038a0:	00000106 	br	10038a8 <sdhc_decode_cid+0x988>
 10038a4:	00bfffc4 	movi	r2,-1
 10038a8:	e0bfc215 	stw	r2,-248(fp)
 10038ac:	008000c4 	movi	r2,3
 10038b0:	e0bfc315 	stw	r2,-244(fp)
 10038b4:	00800404 	movi	r2,16
 10038b8:	e0bfc415 	stw	r2,-240(fp)
 10038bc:	e0bfc317 	ldw	r2,-244(fp)
 10038c0:	1085883a 	add	r2,r2,r2
 10038c4:	1085883a 	add	r2,r2,r2
 10038c8:	1007883a 	mov	r3,r2
 10038cc:	e0bfff17 	ldw	r2,-4(fp)
 10038d0:	10c5883a 	add	r2,r2,r3
 10038d4:	10c00017 	ldw	r3,0(r2)
 10038d8:	e0bfc417 	ldw	r2,-240(fp)
 10038dc:	1884d83a 	srl	r2,r3,r2
 10038e0:	e0bf8a15 	stw	r2,-472(fp)
 10038e4:	e0ffc117 	ldw	r3,-252(fp)
 10038e8:	e0bfc417 	ldw	r2,-240(fp)
 10038ec:	1885883a 	add	r2,r3,r2
 10038f0:	10800850 	cmplti	r2,r2,33
 10038f4:	1000161e 	bne	r2,zero,1003950 <sdhc_decode_cid+0xa30>
 10038f8:	e0bfc317 	ldw	r2,-244(fp)
 10038fc:	1085883a 	add	r2,r2,r2
 1003900:	1085883a 	add	r2,r2,r2
 1003904:	10bfff04 	addi	r2,r2,-4
 1003908:	e0ffff17 	ldw	r3,-4(fp)
 100390c:	1885883a 	add	r2,r3,r2
 1003910:	10c00017 	ldw	r3,0(r2)
 1003914:	01000804 	movi	r4,32
 1003918:	e0bfc417 	ldw	r2,-240(fp)
 100391c:	2089c83a 	sub	r4,r4,r2
 1003920:	00a00034 	movhi	r2,32768
 1003924:	108007c4 	addi	r2,r2,31
 1003928:	2084703a 	and	r2,r4,r2
 100392c:	1000040e 	bge	r2,zero,1003940 <sdhc_decode_cid+0xa20>
 1003930:	10bfffc4 	addi	r2,r2,-1
 1003934:	013ff804 	movi	r4,-32
 1003938:	1104b03a 	or	r2,r2,r4
 100393c:	10800044 	addi	r2,r2,1
 1003940:	1884983a 	sll	r2,r3,r2
 1003944:	e0ff8a17 	ldw	r3,-472(fp)
 1003948:	1884b03a 	or	r2,r3,r2
 100394c:	e0bf8a15 	stw	r2,-472(fp)
 1003950:	e0ff8a17 	ldw	r3,-472(fp)
 1003954:	e0bfc217 	ldw	r2,-248(fp)
 1003958:	1886703a 	and	r3,r3,r2
 100395c:	e0bffe17 	ldw	r2,-8(fp)
 1003960:	10c00315 	stw	r3,12(r2)
 1003964:	00800104 	movi	r2,4
 1003968:	e0bfc515 	stw	r2,-236(fp)
 100396c:	e0bfc517 	ldw	r2,-236(fp)
 1003970:	10800808 	cmpgei	r2,r2,32
 1003974:	1000051e 	bne	r2,zero,100398c <sdhc_decode_cid+0xa6c>
 1003978:	00c00044 	movi	r3,1
 100397c:	e0bfc517 	ldw	r2,-236(fp)
 1003980:	1884983a 	sll	r2,r3,r2
 1003984:	10bfffc4 	addi	r2,r2,-1
 1003988:	00000106 	br	1003990 <sdhc_decode_cid+0xa70>
 100398c:	00bfffc4 	movi	r2,-1
 1003990:	e0bfc615 	stw	r2,-232(fp)
 1003994:	008000c4 	movi	r2,3
 1003998:	e0bfc715 	stw	r2,-228(fp)
 100399c:	00800204 	movi	r2,8
 10039a0:	e0bfc815 	stw	r2,-224(fp)
 10039a4:	e0bfc717 	ldw	r2,-228(fp)
 10039a8:	1085883a 	add	r2,r2,r2
 10039ac:	1085883a 	add	r2,r2,r2
 10039b0:	1007883a 	mov	r3,r2
 10039b4:	e0bfff17 	ldw	r2,-4(fp)
 10039b8:	10c5883a 	add	r2,r2,r3
 10039bc:	10c00017 	ldw	r3,0(r2)
 10039c0:	e0bfc817 	ldw	r2,-224(fp)
 10039c4:	1884d83a 	srl	r2,r3,r2
 10039c8:	e0bf8b15 	stw	r2,-468(fp)
 10039cc:	e0ffc517 	ldw	r3,-236(fp)
 10039d0:	e0bfc817 	ldw	r2,-224(fp)
 10039d4:	1885883a 	add	r2,r3,r2
 10039d8:	10800850 	cmplti	r2,r2,33
 10039dc:	1000161e 	bne	r2,zero,1003a38 <sdhc_decode_cid+0xb18>
 10039e0:	e0bfc717 	ldw	r2,-228(fp)
 10039e4:	1085883a 	add	r2,r2,r2
 10039e8:	1085883a 	add	r2,r2,r2
 10039ec:	10bfff04 	addi	r2,r2,-4
 10039f0:	e0ffff17 	ldw	r3,-4(fp)
 10039f4:	1885883a 	add	r2,r3,r2
 10039f8:	10c00017 	ldw	r3,0(r2)
 10039fc:	01000804 	movi	r4,32
 1003a00:	e0bfc817 	ldw	r2,-224(fp)
 1003a04:	2089c83a 	sub	r4,r4,r2
 1003a08:	00a00034 	movhi	r2,32768
 1003a0c:	108007c4 	addi	r2,r2,31
 1003a10:	2084703a 	and	r2,r4,r2
 1003a14:	1000040e 	bge	r2,zero,1003a28 <sdhc_decode_cid+0xb08>
 1003a18:	10bfffc4 	addi	r2,r2,-1
 1003a1c:	013ff804 	movi	r4,-32
 1003a20:	1104b03a 	or	r2,r2,r4
 1003a24:	10800044 	addi	r2,r2,1
 1003a28:	1884983a 	sll	r2,r3,r2
 1003a2c:	e0ff8b17 	ldw	r3,-468(fp)
 1003a30:	1884b03a 	or	r2,r3,r2
 1003a34:	e0bf8b15 	stw	r2,-468(fp)
 1003a38:	e0ff8b17 	ldw	r3,-468(fp)
 1003a3c:	e0bfc617 	ldw	r2,-232(fp)
 1003a40:	1884703a 	and	r2,r3,r2
 1003a44:	1007883a 	mov	r3,r2
 1003a48:	e0bffe17 	ldw	r2,-8(fp)
 1003a4c:	10c0048d 	sth	r3,18(r2)
 1003a50:	00800104 	movi	r2,4
 1003a54:	e0bfc915 	stw	r2,-220(fp)
 1003a58:	e0bfc917 	ldw	r2,-220(fp)
 1003a5c:	10800808 	cmpgei	r2,r2,32
 1003a60:	1000051e 	bne	r2,zero,1003a78 <sdhc_decode_cid+0xb58>
 1003a64:	00c00044 	movi	r3,1
 1003a68:	e0bfc917 	ldw	r2,-220(fp)
 1003a6c:	1884983a 	sll	r2,r3,r2
 1003a70:	10bfffc4 	addi	r2,r2,-1
 1003a74:	00000106 	br	1003a7c <sdhc_decode_cid+0xb5c>
 1003a78:	00bfffc4 	movi	r2,-1
 1003a7c:	e0bfca15 	stw	r2,-216(fp)
 1003a80:	008000c4 	movi	r2,3
 1003a84:	e0bfcb15 	stw	r2,-212(fp)
 1003a88:	00800304 	movi	r2,12
 1003a8c:	e0bfcc15 	stw	r2,-208(fp)
 1003a90:	e0bfcb17 	ldw	r2,-212(fp)
 1003a94:	1085883a 	add	r2,r2,r2
 1003a98:	1085883a 	add	r2,r2,r2
 1003a9c:	1007883a 	mov	r3,r2
 1003aa0:	e0bfff17 	ldw	r2,-4(fp)
 1003aa4:	10c5883a 	add	r2,r2,r3
 1003aa8:	10c00017 	ldw	r3,0(r2)
 1003aac:	e0bfcc17 	ldw	r2,-208(fp)
 1003ab0:	1884d83a 	srl	r2,r3,r2
 1003ab4:	e0bf8c15 	stw	r2,-464(fp)
 1003ab8:	e0ffc917 	ldw	r3,-220(fp)
 1003abc:	e0bfcc17 	ldw	r2,-208(fp)
 1003ac0:	1885883a 	add	r2,r3,r2
 1003ac4:	10800850 	cmplti	r2,r2,33
 1003ac8:	1000161e 	bne	r2,zero,1003b24 <sdhc_decode_cid+0xc04>
 1003acc:	e0bfcb17 	ldw	r2,-212(fp)
 1003ad0:	1085883a 	add	r2,r2,r2
 1003ad4:	1085883a 	add	r2,r2,r2
 1003ad8:	10bfff04 	addi	r2,r2,-4
 1003adc:	e0ffff17 	ldw	r3,-4(fp)
 1003ae0:	1885883a 	add	r2,r3,r2
 1003ae4:	10c00017 	ldw	r3,0(r2)
 1003ae8:	01000804 	movi	r4,32
 1003aec:	e0bfcc17 	ldw	r2,-208(fp)
 1003af0:	2089c83a 	sub	r4,r4,r2
 1003af4:	00a00034 	movhi	r2,32768
 1003af8:	108007c4 	addi	r2,r2,31
 1003afc:	2084703a 	and	r2,r4,r2
 1003b00:	1000040e 	bge	r2,zero,1003b14 <sdhc_decode_cid+0xbf4>
 1003b04:	10bfffc4 	addi	r2,r2,-1
 1003b08:	013ff804 	movi	r4,-32
 1003b0c:	1104b03a 	or	r2,r2,r4
 1003b10:	10800044 	addi	r2,r2,1
 1003b14:	1884983a 	sll	r2,r3,r2
 1003b18:	e0ff8c17 	ldw	r3,-464(fp)
 1003b1c:	1884b03a 	or	r2,r3,r2
 1003b20:	e0bf8c15 	stw	r2,-464(fp)
 1003b24:	e0ff8c17 	ldw	r3,-464(fp)
 1003b28:	e0bfca17 	ldw	r2,-216(fp)
 1003b2c:	1884703a 	and	r2,r3,r2
 1003b30:	1007883a 	mov	r3,r2
 1003b34:	e0bffe17 	ldw	r2,-8(fp)
 1003b38:	10c00585 	stb	r3,22(r2)
 1003b3c:	e0bffe17 	ldw	r2,-8(fp)
 1003b40:	1080048b 	ldhu	r2,18(r2)
 1003b44:	10bfffcc 	andi	r2,r2,65535
 1003b48:	10800368 	cmpgeui	r2,r2,13
 1003b4c:	1000051e 	bne	r2,zero,1003b64 <sdhc_decode_cid+0xc44>
 1003b50:	e0bffd17 	ldw	r2,-12(fp)
 1003b54:	10802b43 	ldbu	r2,173(r2)
 1003b58:	10803fcc 	andi	r2,r2,255
 1003b5c:	10800168 	cmpgeui	r2,r2,5
 1003b60:	1000071e 	bne	r2,zero,1003b80 <sdhc_decode_cid+0xc60>
 1003b64:	e0bffe17 	ldw	r2,-8(fp)
 1003b68:	1080048b 	ldhu	r2,18(r2)
 1003b6c:	1081f344 	addi	r2,r2,1997
 1003b70:	1007883a 	mov	r3,r2
 1003b74:	e0bffe17 	ldw	r2,-8(fp)
 1003b78:	10c0048d 	sth	r3,18(r2)
 1003b7c:	00000606 	br	1003b98 <sdhc_decode_cid+0xc78>
 1003b80:	e0bffe17 	ldw	r2,-8(fp)
 1003b84:	1080048b 	ldhu	r2,18(r2)
 1003b88:	1081f744 	addi	r2,r2,2013
 1003b8c:	1007883a 	mov	r3,r2
 1003b90:	e0bffe17 	ldw	r2,-8(fp)
 1003b94:	10c0048d 	sth	r3,18(r2)
 1003b98:	e0bffe17 	ldw	r2,-8(fp)
 1003b9c:	1080048b 	ldhu	r2,18(r2)
 1003ba0:	10bfffcc 	andi	r2,r2,65535
 1003ba4:	10800358 	cmpnei	r2,r2,13
 1003ba8:	1000041e 	bne	r2,zero,1003bbc <sdhc_decode_cid+0xc9c>
 1003bac:	e0bffe17 	ldw	r2,-8(fp)
 1003bb0:	00c1f684 	movi	r3,2010
 1003bb4:	10c0048d 	sth	r3,18(r2)
 1003bb8:	00001106 	br	1003c00 <sdhc_decode_cid+0xce0>
 1003bbc:	e0bffe17 	ldw	r2,-8(fp)
 1003bc0:	1080048b 	ldhu	r2,18(r2)
 1003bc4:	10bfffcc 	andi	r2,r2,65535
 1003bc8:	10800398 	cmpnei	r2,r2,14
 1003bcc:	1000041e 	bne	r2,zero,1003be0 <sdhc_decode_cid+0xcc0>
 1003bd0:	e0bffe17 	ldw	r2,-8(fp)
 1003bd4:	00c1f6c4 	movi	r3,2011
 1003bd8:	10c0048d 	sth	r3,18(r2)
 1003bdc:	00000806 	br	1003c00 <sdhc_decode_cid+0xce0>
 1003be0:	e0bffe17 	ldw	r2,-8(fp)
 1003be4:	1080048b 	ldhu	r2,18(r2)
 1003be8:	10bfffcc 	andi	r2,r2,65535
 1003bec:	108003d8 	cmpnei	r2,r2,15
 1003bf0:	1000031e 	bne	r2,zero,1003c00 <sdhc_decode_cid+0xce0>
 1003bf4:	e0bffe17 	ldw	r2,-8(fp)
 1003bf8:	00c1f704 	movi	r3,2012
 1003bfc:	10c0048d 	sth	r3,18(r2)
 1003c00:	d0a00117 	ldw	r2,-32764(gp)
 1003c04:	1000061e 	bne	r2,zero,1003c20 <sdhc_decode_cid+0xd00>
 1003c08:	e0bffe17 	ldw	r2,-8(fp)
 1003c0c:	10800017 	ldw	r2,0(r2)
 1003c10:	01004074 	movhi	r4,257
 1003c14:	21091d04 	addi	r4,r4,9332
 1003c18:	100b883a 	mov	r5,r2
 1003c1c:	1010a380 	call	1010a38 <printf>
 1003c20:	d0a00117 	ldw	r2,-32764(gp)
 1003c24:	1000071e 	bne	r2,zero,1003c44 <sdhc_decode_cid+0xd24>
 1003c28:	e0bffe17 	ldw	r2,-8(fp)
 1003c2c:	1080040b 	ldhu	r2,16(r2)
 1003c30:	10bfffcc 	andi	r2,r2,65535
 1003c34:	01004074 	movhi	r4,257
 1003c38:	21092504 	addi	r4,r4,9364
 1003c3c:	100b883a 	mov	r5,r2
 1003c40:	1010a380 	call	1010a38 <printf>
 1003c44:	d0a00117 	ldw	r2,-32764(gp)
 1003c48:	1000241e 	bne	r2,zero,1003cdc <sdhc_decode_cid+0xdbc>
 1003c4c:	e0bffe17 	ldw	r2,-8(fp)
 1003c50:	10800103 	ldbu	r2,4(r2)
 1003c54:	11403fcc 	andi	r5,r2,255
 1003c58:	2940201c 	xori	r5,r5,128
 1003c5c:	297fe004 	addi	r5,r5,-128
 1003c60:	e0bffe17 	ldw	r2,-8(fp)
 1003c64:	10800143 	ldbu	r2,5(r2)
 1003c68:	11803fcc 	andi	r6,r2,255
 1003c6c:	3180201c 	xori	r6,r6,128
 1003c70:	31bfe004 	addi	r6,r6,-128
 1003c74:	e0bffe17 	ldw	r2,-8(fp)
 1003c78:	10800183 	ldbu	r2,6(r2)
 1003c7c:	11c03fcc 	andi	r7,r2,255
 1003c80:	39c0201c 	xori	r7,r7,128
 1003c84:	39ffe004 	addi	r7,r7,-128
 1003c88:	e0bffe17 	ldw	r2,-8(fp)
 1003c8c:	108001c3 	ldbu	r2,7(r2)
 1003c90:	11003fcc 	andi	r4,r2,255
 1003c94:	2100201c 	xori	r4,r4,128
 1003c98:	213fe004 	addi	r4,r4,-128
 1003c9c:	e0bffe17 	ldw	r2,-8(fp)
 1003ca0:	10800203 	ldbu	r2,8(r2)
 1003ca4:	10c03fcc 	andi	r3,r2,255
 1003ca8:	18c0201c 	xori	r3,r3,128
 1003cac:	18ffe004 	addi	r3,r3,-128
 1003cb0:	e0bffe17 	ldw	r2,-8(fp)
 1003cb4:	10800243 	ldbu	r2,9(r2)
 1003cb8:	10803fcc 	andi	r2,r2,255
 1003cbc:	1080201c 	xori	r2,r2,128
 1003cc0:	10bfe004 	addi	r2,r2,-128
 1003cc4:	d9000015 	stw	r4,0(sp)
 1003cc8:	d8c00115 	stw	r3,4(sp)
 1003ccc:	d8800215 	stw	r2,8(sp)
 1003cd0:	01004074 	movhi	r4,257
 1003cd4:	21092d04 	addi	r4,r4,9396
 1003cd8:	1010a380 	call	1010a38 <printf>
 1003cdc:	d0a00117 	ldw	r2,-32764(gp)
 1003ce0:	10000b1e 	bne	r2,zero,1003d10 <sdhc_decode_cid+0xdf0>
 1003ce4:	e0bffe17 	ldw	r2,-8(fp)
 1003ce8:	10800583 	ldbu	r2,22(r2)
 1003cec:	10c03fcc 	andi	r3,r2,255
 1003cf0:	e0bffe17 	ldw	r2,-8(fp)
 1003cf4:	1080048b 	ldhu	r2,18(r2)
 1003cf8:	10bfffcc 	andi	r2,r2,65535
 1003cfc:	01004074 	movhi	r4,257
 1003d00:	21093704 	addi	r4,r4,9436
 1003d04:	180b883a 	mov	r5,r3
 1003d08:	100d883a 	mov	r6,r2
 1003d0c:	1010a380 	call	1010a38 <printf>
 1003d10:	d0a00117 	ldw	r2,-32764(gp)
 1003d14:	10000b1e 	bne	r2,zero,1003d44 <sdhc_decode_cid+0xe24>
 1003d18:	e0bffe17 	ldw	r2,-8(fp)
 1003d1c:	10800503 	ldbu	r2,20(r2)
 1003d20:	10c03fcc 	andi	r3,r2,255
 1003d24:	e0bffe17 	ldw	r2,-8(fp)
 1003d28:	10800543 	ldbu	r2,21(r2)
 1003d2c:	10803fcc 	andi	r2,r2,255
 1003d30:	01004074 	movhi	r4,257
 1003d34:	21094004 	addi	r4,r4,9472
 1003d38:	180b883a 	mov	r5,r3
 1003d3c:	100d883a 	mov	r6,r2
 1003d40:	1010a380 	call	1010a38 <printf>
 1003d44:	d0a00117 	ldw	r2,-32764(gp)
 1003d48:	1003101e 	bne	r2,zero,100498c <sdhc_decode_cid+0x1a6c>
 1003d4c:	e0bffe17 	ldw	r2,-8(fp)
 1003d50:	10800317 	ldw	r2,12(r2)
 1003d54:	01004074 	movhi	r4,257
 1003d58:	21094804 	addi	r4,r4,9504
 1003d5c:	100b883a 	mov	r5,r2
 1003d60:	1010a380 	call	1010a38 <printf>
 1003d64:	00030906 	br	100498c <sdhc_decode_cid+0x1a6c>
 1003d68:	00800204 	movi	r2,8
 1003d6c:	e0bfcd15 	stw	r2,-204(fp)
 1003d70:	e0bfcd17 	ldw	r2,-204(fp)
 1003d74:	10800808 	cmpgei	r2,r2,32
 1003d78:	1000051e 	bne	r2,zero,1003d90 <sdhc_decode_cid+0xe70>
 1003d7c:	00c00044 	movi	r3,1
 1003d80:	e0bfcd17 	ldw	r2,-204(fp)
 1003d84:	1884983a 	sll	r2,r3,r2
 1003d88:	10bfffc4 	addi	r2,r2,-1
 1003d8c:	00000106 	br	1003d94 <sdhc_decode_cid+0xe74>
 1003d90:	00bfffc4 	movi	r2,-1
 1003d94:	e0bfce15 	stw	r2,-200(fp)
 1003d98:	e03fcf15 	stw	zero,-196(fp)
 1003d9c:	00800604 	movi	r2,24
 1003da0:	e0bfd015 	stw	r2,-192(fp)
 1003da4:	e0bfcf17 	ldw	r2,-196(fp)
 1003da8:	1085883a 	add	r2,r2,r2
 1003dac:	1085883a 	add	r2,r2,r2
 1003db0:	1007883a 	mov	r3,r2
 1003db4:	e0bfff17 	ldw	r2,-4(fp)
 1003db8:	10c5883a 	add	r2,r2,r3
 1003dbc:	10c00017 	ldw	r3,0(r2)
 1003dc0:	e0bfd017 	ldw	r2,-192(fp)
 1003dc4:	1884d83a 	srl	r2,r3,r2
 1003dc8:	e0bf8d15 	stw	r2,-460(fp)
 1003dcc:	e0ffcd17 	ldw	r3,-204(fp)
 1003dd0:	e0bfd017 	ldw	r2,-192(fp)
 1003dd4:	1885883a 	add	r2,r3,r2
 1003dd8:	10800850 	cmplti	r2,r2,33
 1003ddc:	1000161e 	bne	r2,zero,1003e38 <sdhc_decode_cid+0xf18>
 1003de0:	e0bfcf17 	ldw	r2,-196(fp)
 1003de4:	1085883a 	add	r2,r2,r2
 1003de8:	1085883a 	add	r2,r2,r2
 1003dec:	10bfff04 	addi	r2,r2,-4
 1003df0:	e0ffff17 	ldw	r3,-4(fp)
 1003df4:	1885883a 	add	r2,r3,r2
 1003df8:	10c00017 	ldw	r3,0(r2)
 1003dfc:	01000804 	movi	r4,32
 1003e00:	e0bfd017 	ldw	r2,-192(fp)
 1003e04:	2089c83a 	sub	r4,r4,r2
 1003e08:	00a00034 	movhi	r2,32768
 1003e0c:	108007c4 	addi	r2,r2,31
 1003e10:	2084703a 	and	r2,r4,r2
 1003e14:	1000040e 	bge	r2,zero,1003e28 <sdhc_decode_cid+0xf08>
 1003e18:	10bfffc4 	addi	r2,r2,-1
 1003e1c:	013ff804 	movi	r4,-32
 1003e20:	1104b03a 	or	r2,r2,r4
 1003e24:	10800044 	addi	r2,r2,1
 1003e28:	1884983a 	sll	r2,r3,r2
 1003e2c:	e0ff8d17 	ldw	r3,-460(fp)
 1003e30:	1884b03a 	or	r2,r3,r2
 1003e34:	e0bf8d15 	stw	r2,-460(fp)
 1003e38:	e0ff8d17 	ldw	r3,-460(fp)
 1003e3c:	e0bfce17 	ldw	r2,-200(fp)
 1003e40:	1886703a 	and	r3,r3,r2
 1003e44:	e0bffe17 	ldw	r2,-8(fp)
 1003e48:	10c00015 	stw	r3,0(r2)
 1003e4c:	00800404 	movi	r2,16
 1003e50:	e0bfd115 	stw	r2,-188(fp)
 1003e54:	e0bfd117 	ldw	r2,-188(fp)
 1003e58:	10800808 	cmpgei	r2,r2,32
 1003e5c:	1000051e 	bne	r2,zero,1003e74 <sdhc_decode_cid+0xf54>
 1003e60:	00c00044 	movi	r3,1
 1003e64:	e0bfd117 	ldw	r2,-188(fp)
 1003e68:	1884983a 	sll	r2,r3,r2
 1003e6c:	10bfffc4 	addi	r2,r2,-1
 1003e70:	00000106 	br	1003e78 <sdhc_decode_cid+0xf58>
 1003e74:	00bfffc4 	movi	r2,-1
 1003e78:	e0bfd215 	stw	r2,-184(fp)
 1003e7c:	e03fd315 	stw	zero,-180(fp)
 1003e80:	00800204 	movi	r2,8
 1003e84:	e0bfd415 	stw	r2,-176(fp)
 1003e88:	e0bfd317 	ldw	r2,-180(fp)
 1003e8c:	1085883a 	add	r2,r2,r2
 1003e90:	1085883a 	add	r2,r2,r2
 1003e94:	1007883a 	mov	r3,r2
 1003e98:	e0bfff17 	ldw	r2,-4(fp)
 1003e9c:	10c5883a 	add	r2,r2,r3
 1003ea0:	10c00017 	ldw	r3,0(r2)
 1003ea4:	e0bfd417 	ldw	r2,-176(fp)
 1003ea8:	1884d83a 	srl	r2,r3,r2
 1003eac:	e0bf8e15 	stw	r2,-456(fp)
 1003eb0:	e0ffd117 	ldw	r3,-188(fp)
 1003eb4:	e0bfd417 	ldw	r2,-176(fp)
 1003eb8:	1885883a 	add	r2,r3,r2
 1003ebc:	10800850 	cmplti	r2,r2,33
 1003ec0:	1000161e 	bne	r2,zero,1003f1c <sdhc_decode_cid+0xffc>
 1003ec4:	e0bfd317 	ldw	r2,-180(fp)
 1003ec8:	1085883a 	add	r2,r2,r2
 1003ecc:	1085883a 	add	r2,r2,r2
 1003ed0:	10bfff04 	addi	r2,r2,-4
 1003ed4:	e0ffff17 	ldw	r3,-4(fp)
 1003ed8:	1885883a 	add	r2,r3,r2
 1003edc:	10c00017 	ldw	r3,0(r2)
 1003ee0:	01000804 	movi	r4,32
 1003ee4:	e0bfd417 	ldw	r2,-176(fp)
 1003ee8:	2089c83a 	sub	r4,r4,r2
 1003eec:	00a00034 	movhi	r2,32768
 1003ef0:	108007c4 	addi	r2,r2,31
 1003ef4:	2084703a 	and	r2,r4,r2
 1003ef8:	1000040e 	bge	r2,zero,1003f0c <sdhc_decode_cid+0xfec>
 1003efc:	10bfffc4 	addi	r2,r2,-1
 1003f00:	013ff804 	movi	r4,-32
 1003f04:	1104b03a 	or	r2,r2,r4
 1003f08:	10800044 	addi	r2,r2,1
 1003f0c:	1884983a 	sll	r2,r3,r2
 1003f10:	e0ff8e17 	ldw	r3,-456(fp)
 1003f14:	1884b03a 	or	r2,r3,r2
 1003f18:	e0bf8e15 	stw	r2,-456(fp)
 1003f1c:	e0ff8e17 	ldw	r3,-456(fp)
 1003f20:	e0bfd217 	ldw	r2,-184(fp)
 1003f24:	1884703a 	and	r2,r3,r2
 1003f28:	1007883a 	mov	r3,r2
 1003f2c:	e0bffe17 	ldw	r2,-8(fp)
 1003f30:	10c0040d 	sth	r3,16(r2)
 1003f34:	00800204 	movi	r2,8
 1003f38:	e0bfd515 	stw	r2,-172(fp)
 1003f3c:	e0bfd517 	ldw	r2,-172(fp)
 1003f40:	10800808 	cmpgei	r2,r2,32
 1003f44:	1000051e 	bne	r2,zero,1003f5c <sdhc_decode_cid+0x103c>
 1003f48:	00c00044 	movi	r3,1
 1003f4c:	e0bfd517 	ldw	r2,-172(fp)
 1003f50:	1884983a 	sll	r2,r3,r2
 1003f54:	10bfffc4 	addi	r2,r2,-1
 1003f58:	00000106 	br	1003f60 <sdhc_decode_cid+0x1040>
 1003f5c:	00bfffc4 	movi	r2,-1
 1003f60:	e0bfd615 	stw	r2,-168(fp)
 1003f64:	e03fd715 	stw	zero,-164(fp)
 1003f68:	e03fd815 	stw	zero,-160(fp)
 1003f6c:	e0bfd717 	ldw	r2,-164(fp)
 1003f70:	1085883a 	add	r2,r2,r2
 1003f74:	1085883a 	add	r2,r2,r2
 1003f78:	1007883a 	mov	r3,r2
 1003f7c:	e0bfff17 	ldw	r2,-4(fp)
 1003f80:	10c5883a 	add	r2,r2,r3
 1003f84:	10c00017 	ldw	r3,0(r2)
 1003f88:	e0bfd817 	ldw	r2,-160(fp)
 1003f8c:	1884d83a 	srl	r2,r3,r2
 1003f90:	e0bf8f15 	stw	r2,-452(fp)
 1003f94:	e0ffd517 	ldw	r3,-172(fp)
 1003f98:	e0bfd817 	ldw	r2,-160(fp)
 1003f9c:	1885883a 	add	r2,r3,r2
 1003fa0:	10800850 	cmplti	r2,r2,33
 1003fa4:	1000161e 	bne	r2,zero,1004000 <sdhc_decode_cid+0x10e0>
 1003fa8:	e0bfd717 	ldw	r2,-164(fp)
 1003fac:	1085883a 	add	r2,r2,r2
 1003fb0:	1085883a 	add	r2,r2,r2
 1003fb4:	10bfff04 	addi	r2,r2,-4
 1003fb8:	e0ffff17 	ldw	r3,-4(fp)
 1003fbc:	1885883a 	add	r2,r3,r2
 1003fc0:	10c00017 	ldw	r3,0(r2)
 1003fc4:	01000804 	movi	r4,32
 1003fc8:	e0bfd817 	ldw	r2,-160(fp)
 1003fcc:	2089c83a 	sub	r4,r4,r2
 1003fd0:	00a00034 	movhi	r2,32768
 1003fd4:	108007c4 	addi	r2,r2,31
 1003fd8:	2084703a 	and	r2,r4,r2
 1003fdc:	1000040e 	bge	r2,zero,1003ff0 <sdhc_decode_cid+0x10d0>
 1003fe0:	10bfffc4 	addi	r2,r2,-1
 1003fe4:	013ff804 	movi	r4,-32
 1003fe8:	1104b03a 	or	r2,r2,r4
 1003fec:	10800044 	addi	r2,r2,1
 1003ff0:	1884983a 	sll	r2,r3,r2
 1003ff4:	e0ff8f17 	ldw	r3,-452(fp)
 1003ff8:	1884b03a 	or	r2,r3,r2
 1003ffc:	e0bf8f15 	stw	r2,-452(fp)
 1004000:	e0ff8f17 	ldw	r3,-452(fp)
 1004004:	e0bfd617 	ldw	r2,-168(fp)
 1004008:	1884703a 	and	r2,r3,r2
 100400c:	1007883a 	mov	r3,r2
 1004010:	e0bffe17 	ldw	r2,-8(fp)
 1004014:	10c00105 	stb	r3,4(r2)
 1004018:	00800204 	movi	r2,8
 100401c:	e0bfd915 	stw	r2,-156(fp)
 1004020:	e0bfd917 	ldw	r2,-156(fp)
 1004024:	10800808 	cmpgei	r2,r2,32
 1004028:	1000051e 	bne	r2,zero,1004040 <sdhc_decode_cid+0x1120>
 100402c:	00c00044 	movi	r3,1
 1004030:	e0bfd917 	ldw	r2,-156(fp)
 1004034:	1884983a 	sll	r2,r3,r2
 1004038:	10bfffc4 	addi	r2,r2,-1
 100403c:	00000106 	br	1004044 <sdhc_decode_cid+0x1124>
 1004040:	00bfffc4 	movi	r2,-1
 1004044:	e0bfda15 	stw	r2,-152(fp)
 1004048:	00800044 	movi	r2,1
 100404c:	e0bfdb15 	stw	r2,-148(fp)
 1004050:	00800604 	movi	r2,24
 1004054:	e0bfdc15 	stw	r2,-144(fp)
 1004058:	e0bfdb17 	ldw	r2,-148(fp)
 100405c:	1085883a 	add	r2,r2,r2
 1004060:	1085883a 	add	r2,r2,r2
 1004064:	1007883a 	mov	r3,r2
 1004068:	e0bfff17 	ldw	r2,-4(fp)
 100406c:	10c5883a 	add	r2,r2,r3
 1004070:	10c00017 	ldw	r3,0(r2)
 1004074:	e0bfdc17 	ldw	r2,-144(fp)
 1004078:	1884d83a 	srl	r2,r3,r2
 100407c:	e0bf9015 	stw	r2,-448(fp)
 1004080:	e0ffd917 	ldw	r3,-156(fp)
 1004084:	e0bfdc17 	ldw	r2,-144(fp)
 1004088:	1885883a 	add	r2,r3,r2
 100408c:	10800850 	cmplti	r2,r2,33
 1004090:	1000161e 	bne	r2,zero,10040ec <sdhc_decode_cid+0x11cc>
 1004094:	e0bfdb17 	ldw	r2,-148(fp)
 1004098:	1085883a 	add	r2,r2,r2
 100409c:	1085883a 	add	r2,r2,r2
 10040a0:	10bfff04 	addi	r2,r2,-4
 10040a4:	e0ffff17 	ldw	r3,-4(fp)
 10040a8:	1885883a 	add	r2,r3,r2
 10040ac:	10c00017 	ldw	r3,0(r2)
 10040b0:	01000804 	movi	r4,32
 10040b4:	e0bfdc17 	ldw	r2,-144(fp)
 10040b8:	2089c83a 	sub	r4,r4,r2
 10040bc:	00a00034 	movhi	r2,32768
 10040c0:	108007c4 	addi	r2,r2,31
 10040c4:	2084703a 	and	r2,r4,r2
 10040c8:	1000040e 	bge	r2,zero,10040dc <sdhc_decode_cid+0x11bc>
 10040cc:	10bfffc4 	addi	r2,r2,-1
 10040d0:	013ff804 	movi	r4,-32
 10040d4:	1104b03a 	or	r2,r2,r4
 10040d8:	10800044 	addi	r2,r2,1
 10040dc:	1884983a 	sll	r2,r3,r2
 10040e0:	e0ff9017 	ldw	r3,-448(fp)
 10040e4:	1884b03a 	or	r2,r3,r2
 10040e8:	e0bf9015 	stw	r2,-448(fp)
 10040ec:	e0ff9017 	ldw	r3,-448(fp)
 10040f0:	e0bfda17 	ldw	r2,-152(fp)
 10040f4:	1884703a 	and	r2,r3,r2
 10040f8:	1007883a 	mov	r3,r2
 10040fc:	e0bffe17 	ldw	r2,-8(fp)
 1004100:	10c00145 	stb	r3,5(r2)
 1004104:	00800204 	movi	r2,8
 1004108:	e0bfdd15 	stw	r2,-140(fp)
 100410c:	e0bfdd17 	ldw	r2,-140(fp)
 1004110:	10800808 	cmpgei	r2,r2,32
 1004114:	1000051e 	bne	r2,zero,100412c <sdhc_decode_cid+0x120c>
 1004118:	00c00044 	movi	r3,1
 100411c:	e0bfdd17 	ldw	r2,-140(fp)
 1004120:	1884983a 	sll	r2,r3,r2
 1004124:	10bfffc4 	addi	r2,r2,-1
 1004128:	00000106 	br	1004130 <sdhc_decode_cid+0x1210>
 100412c:	00bfffc4 	movi	r2,-1
 1004130:	e0bfde15 	stw	r2,-136(fp)
 1004134:	00800044 	movi	r2,1
 1004138:	e0bfdf15 	stw	r2,-132(fp)
 100413c:	00800404 	movi	r2,16
 1004140:	e0bfe015 	stw	r2,-128(fp)
 1004144:	e0bfdf17 	ldw	r2,-132(fp)
 1004148:	1085883a 	add	r2,r2,r2
 100414c:	1085883a 	add	r2,r2,r2
 1004150:	1007883a 	mov	r3,r2
 1004154:	e0bfff17 	ldw	r2,-4(fp)
 1004158:	10c5883a 	add	r2,r2,r3
 100415c:	10c00017 	ldw	r3,0(r2)
 1004160:	e0bfe017 	ldw	r2,-128(fp)
 1004164:	1884d83a 	srl	r2,r3,r2
 1004168:	e0bf9115 	stw	r2,-444(fp)
 100416c:	e0ffdd17 	ldw	r3,-140(fp)
 1004170:	e0bfe017 	ldw	r2,-128(fp)
 1004174:	1885883a 	add	r2,r3,r2
 1004178:	10800850 	cmplti	r2,r2,33
 100417c:	1000161e 	bne	r2,zero,10041d8 <sdhc_decode_cid+0x12b8>
 1004180:	e0bfdf17 	ldw	r2,-132(fp)
 1004184:	1085883a 	add	r2,r2,r2
 1004188:	1085883a 	add	r2,r2,r2
 100418c:	10bfff04 	addi	r2,r2,-4
 1004190:	e0ffff17 	ldw	r3,-4(fp)
 1004194:	1885883a 	add	r2,r3,r2
 1004198:	10c00017 	ldw	r3,0(r2)
 100419c:	01000804 	movi	r4,32
 10041a0:	e0bfe017 	ldw	r2,-128(fp)
 10041a4:	2089c83a 	sub	r4,r4,r2
 10041a8:	00a00034 	movhi	r2,32768
 10041ac:	108007c4 	addi	r2,r2,31
 10041b0:	2084703a 	and	r2,r4,r2
 10041b4:	1000040e 	bge	r2,zero,10041c8 <sdhc_decode_cid+0x12a8>
 10041b8:	10bfffc4 	addi	r2,r2,-1
 10041bc:	013ff804 	movi	r4,-32
 10041c0:	1104b03a 	or	r2,r2,r4
 10041c4:	10800044 	addi	r2,r2,1
 10041c8:	1884983a 	sll	r2,r3,r2
 10041cc:	e0ff9117 	ldw	r3,-444(fp)
 10041d0:	1884b03a 	or	r2,r3,r2
 10041d4:	e0bf9115 	stw	r2,-444(fp)
 10041d8:	e0ff9117 	ldw	r3,-444(fp)
 10041dc:	e0bfde17 	ldw	r2,-136(fp)
 10041e0:	1884703a 	and	r2,r3,r2
 10041e4:	1007883a 	mov	r3,r2
 10041e8:	e0bffe17 	ldw	r2,-8(fp)
 10041ec:	10c00185 	stb	r3,6(r2)
 10041f0:	00800204 	movi	r2,8
 10041f4:	e0bfe115 	stw	r2,-124(fp)
 10041f8:	e0bfe117 	ldw	r2,-124(fp)
 10041fc:	10800808 	cmpgei	r2,r2,32
 1004200:	1000051e 	bne	r2,zero,1004218 <sdhc_decode_cid+0x12f8>
 1004204:	00c00044 	movi	r3,1
 1004208:	e0bfe117 	ldw	r2,-124(fp)
 100420c:	1884983a 	sll	r2,r3,r2
 1004210:	10bfffc4 	addi	r2,r2,-1
 1004214:	00000106 	br	100421c <sdhc_decode_cid+0x12fc>
 1004218:	00bfffc4 	movi	r2,-1
 100421c:	e0bfe215 	stw	r2,-120(fp)
 1004220:	00800044 	movi	r2,1
 1004224:	e0bfe315 	stw	r2,-116(fp)
 1004228:	00800204 	movi	r2,8
 100422c:	e0bfe415 	stw	r2,-112(fp)
 1004230:	e0bfe317 	ldw	r2,-116(fp)
 1004234:	1085883a 	add	r2,r2,r2
 1004238:	1085883a 	add	r2,r2,r2
 100423c:	1007883a 	mov	r3,r2
 1004240:	e0bfff17 	ldw	r2,-4(fp)
 1004244:	10c5883a 	add	r2,r2,r3
 1004248:	10c00017 	ldw	r3,0(r2)
 100424c:	e0bfe417 	ldw	r2,-112(fp)
 1004250:	1884d83a 	srl	r2,r3,r2
 1004254:	e0bf9215 	stw	r2,-440(fp)
 1004258:	e0ffe117 	ldw	r3,-124(fp)
 100425c:	e0bfe417 	ldw	r2,-112(fp)
 1004260:	1885883a 	add	r2,r3,r2
 1004264:	10800850 	cmplti	r2,r2,33
 1004268:	1000161e 	bne	r2,zero,10042c4 <sdhc_decode_cid+0x13a4>
 100426c:	e0bfe317 	ldw	r2,-116(fp)
 1004270:	1085883a 	add	r2,r2,r2
 1004274:	1085883a 	add	r2,r2,r2
 1004278:	10bfff04 	addi	r2,r2,-4
 100427c:	e0ffff17 	ldw	r3,-4(fp)
 1004280:	1885883a 	add	r2,r3,r2
 1004284:	10c00017 	ldw	r3,0(r2)
 1004288:	01000804 	movi	r4,32
 100428c:	e0bfe417 	ldw	r2,-112(fp)
 1004290:	2089c83a 	sub	r4,r4,r2
 1004294:	00a00034 	movhi	r2,32768
 1004298:	108007c4 	addi	r2,r2,31
 100429c:	2084703a 	and	r2,r4,r2
 10042a0:	1000040e 	bge	r2,zero,10042b4 <sdhc_decode_cid+0x1394>
 10042a4:	10bfffc4 	addi	r2,r2,-1
 10042a8:	013ff804 	movi	r4,-32
 10042ac:	1104b03a 	or	r2,r2,r4
 10042b0:	10800044 	addi	r2,r2,1
 10042b4:	1884983a 	sll	r2,r3,r2
 10042b8:	e0ff9217 	ldw	r3,-440(fp)
 10042bc:	1884b03a 	or	r2,r3,r2
 10042c0:	e0bf9215 	stw	r2,-440(fp)
 10042c4:	e0ff9217 	ldw	r3,-440(fp)
 10042c8:	e0bfe217 	ldw	r2,-120(fp)
 10042cc:	1884703a 	and	r2,r3,r2
 10042d0:	1007883a 	mov	r3,r2
 10042d4:	e0bffe17 	ldw	r2,-8(fp)
 10042d8:	10c001c5 	stb	r3,7(r2)
 10042dc:	00800204 	movi	r2,8
 10042e0:	e0bfe515 	stw	r2,-108(fp)
 10042e4:	e0bfe517 	ldw	r2,-108(fp)
 10042e8:	10800808 	cmpgei	r2,r2,32
 10042ec:	1000051e 	bne	r2,zero,1004304 <sdhc_decode_cid+0x13e4>
 10042f0:	00c00044 	movi	r3,1
 10042f4:	e0bfe517 	ldw	r2,-108(fp)
 10042f8:	1884983a 	sll	r2,r3,r2
 10042fc:	10bfffc4 	addi	r2,r2,-1
 1004300:	00000106 	br	1004308 <sdhc_decode_cid+0x13e8>
 1004304:	00bfffc4 	movi	r2,-1
 1004308:	e0bfe615 	stw	r2,-104(fp)
 100430c:	00800044 	movi	r2,1
 1004310:	e0bfe715 	stw	r2,-100(fp)
 1004314:	e03fe815 	stw	zero,-96(fp)
 1004318:	e0bfe717 	ldw	r2,-100(fp)
 100431c:	1085883a 	add	r2,r2,r2
 1004320:	1085883a 	add	r2,r2,r2
 1004324:	1007883a 	mov	r3,r2
 1004328:	e0bfff17 	ldw	r2,-4(fp)
 100432c:	10c5883a 	add	r2,r2,r3
 1004330:	10c00017 	ldw	r3,0(r2)
 1004334:	e0bfe817 	ldw	r2,-96(fp)
 1004338:	1884d83a 	srl	r2,r3,r2
 100433c:	e0bf9315 	stw	r2,-436(fp)
 1004340:	e0ffe517 	ldw	r3,-108(fp)
 1004344:	e0bfe817 	ldw	r2,-96(fp)
 1004348:	1885883a 	add	r2,r3,r2
 100434c:	10800850 	cmplti	r2,r2,33
 1004350:	1000161e 	bne	r2,zero,10043ac <sdhc_decode_cid+0x148c>
 1004354:	e0bfe717 	ldw	r2,-100(fp)
 1004358:	1085883a 	add	r2,r2,r2
 100435c:	1085883a 	add	r2,r2,r2
 1004360:	10bfff04 	addi	r2,r2,-4
 1004364:	e0ffff17 	ldw	r3,-4(fp)
 1004368:	1885883a 	add	r2,r3,r2
 100436c:	10c00017 	ldw	r3,0(r2)
 1004370:	01000804 	movi	r4,32
 1004374:	e0bfe817 	ldw	r2,-96(fp)
 1004378:	2089c83a 	sub	r4,r4,r2
 100437c:	00a00034 	movhi	r2,32768
 1004380:	108007c4 	addi	r2,r2,31
 1004384:	2084703a 	and	r2,r4,r2
 1004388:	1000040e 	bge	r2,zero,100439c <sdhc_decode_cid+0x147c>
 100438c:	10bfffc4 	addi	r2,r2,-1
 1004390:	013ff804 	movi	r4,-32
 1004394:	1104b03a 	or	r2,r2,r4
 1004398:	10800044 	addi	r2,r2,1
 100439c:	1884983a 	sll	r2,r3,r2
 10043a0:	e0ff9317 	ldw	r3,-436(fp)
 10043a4:	1884b03a 	or	r2,r3,r2
 10043a8:	e0bf9315 	stw	r2,-436(fp)
 10043ac:	e0ff9317 	ldw	r3,-436(fp)
 10043b0:	e0bfe617 	ldw	r2,-104(fp)
 10043b4:	1884703a 	and	r2,r3,r2
 10043b8:	1007883a 	mov	r3,r2
 10043bc:	e0bffe17 	ldw	r2,-8(fp)
 10043c0:	10c00205 	stb	r3,8(r2)
 10043c4:	00800104 	movi	r2,4
 10043c8:	e0bfe915 	stw	r2,-92(fp)
 10043cc:	e0bfe917 	ldw	r2,-92(fp)
 10043d0:	10800808 	cmpgei	r2,r2,32
 10043d4:	1000051e 	bne	r2,zero,10043ec <sdhc_decode_cid+0x14cc>
 10043d8:	00c00044 	movi	r3,1
 10043dc:	e0bfe917 	ldw	r2,-92(fp)
 10043e0:	1884983a 	sll	r2,r3,r2
 10043e4:	10bfffc4 	addi	r2,r2,-1
 10043e8:	00000106 	br	10043f0 <sdhc_decode_cid+0x14d0>
 10043ec:	00bfffc4 	movi	r2,-1
 10043f0:	e0bfea15 	stw	r2,-88(fp)
 10043f4:	00800084 	movi	r2,2
 10043f8:	e0bfeb15 	stw	r2,-84(fp)
 10043fc:	00800704 	movi	r2,28
 1004400:	e0bfec15 	stw	r2,-80(fp)
 1004404:	e0bfeb17 	ldw	r2,-84(fp)
 1004408:	1085883a 	add	r2,r2,r2
 100440c:	1085883a 	add	r2,r2,r2
 1004410:	1007883a 	mov	r3,r2
 1004414:	e0bfff17 	ldw	r2,-4(fp)
 1004418:	10c5883a 	add	r2,r2,r3
 100441c:	10c00017 	ldw	r3,0(r2)
 1004420:	e0bfec17 	ldw	r2,-80(fp)
 1004424:	1884d83a 	srl	r2,r3,r2
 1004428:	e0bf9415 	stw	r2,-432(fp)
 100442c:	e0ffe917 	ldw	r3,-92(fp)
 1004430:	e0bfec17 	ldw	r2,-80(fp)
 1004434:	1885883a 	add	r2,r3,r2
 1004438:	10800850 	cmplti	r2,r2,33
 100443c:	1000161e 	bne	r2,zero,1004498 <sdhc_decode_cid+0x1578>
 1004440:	e0bfeb17 	ldw	r2,-84(fp)
 1004444:	1085883a 	add	r2,r2,r2
 1004448:	1085883a 	add	r2,r2,r2
 100444c:	10bfff04 	addi	r2,r2,-4
 1004450:	e0ffff17 	ldw	r3,-4(fp)
 1004454:	1885883a 	add	r2,r3,r2
 1004458:	10c00017 	ldw	r3,0(r2)
 100445c:	01000804 	movi	r4,32
 1004460:	e0bfec17 	ldw	r2,-80(fp)
 1004464:	2089c83a 	sub	r4,r4,r2
 1004468:	00a00034 	movhi	r2,32768
 100446c:	108007c4 	addi	r2,r2,31
 1004470:	2084703a 	and	r2,r4,r2
 1004474:	1000040e 	bge	r2,zero,1004488 <sdhc_decode_cid+0x1568>
 1004478:	10bfffc4 	addi	r2,r2,-1
 100447c:	013ff804 	movi	r4,-32
 1004480:	1104b03a 	or	r2,r2,r4
 1004484:	10800044 	addi	r2,r2,1
 1004488:	1884983a 	sll	r2,r3,r2
 100448c:	e0ff9417 	ldw	r3,-432(fp)
 1004490:	1884b03a 	or	r2,r3,r2
 1004494:	e0bf9415 	stw	r2,-432(fp)
 1004498:	e0ff9417 	ldw	r3,-432(fp)
 100449c:	e0bfea17 	ldw	r2,-88(fp)
 10044a0:	1884703a 	and	r2,r3,r2
 10044a4:	1007883a 	mov	r3,r2
 10044a8:	e0bffe17 	ldw	r2,-8(fp)
 10044ac:	10c00505 	stb	r3,20(r2)
 10044b0:	00800104 	movi	r2,4
 10044b4:	e0bfed15 	stw	r2,-76(fp)
 10044b8:	e0bfed17 	ldw	r2,-76(fp)
 10044bc:	10800808 	cmpgei	r2,r2,32
 10044c0:	1000051e 	bne	r2,zero,10044d8 <sdhc_decode_cid+0x15b8>
 10044c4:	00c00044 	movi	r3,1
 10044c8:	e0bfed17 	ldw	r2,-76(fp)
 10044cc:	1884983a 	sll	r2,r3,r2
 10044d0:	10bfffc4 	addi	r2,r2,-1
 10044d4:	00000106 	br	10044dc <sdhc_decode_cid+0x15bc>
 10044d8:	00bfffc4 	movi	r2,-1
 10044dc:	e0bfee15 	stw	r2,-72(fp)
 10044e0:	00800084 	movi	r2,2
 10044e4:	e0bfef15 	stw	r2,-68(fp)
 10044e8:	00800604 	movi	r2,24
 10044ec:	e0bff015 	stw	r2,-64(fp)
 10044f0:	e0bfef17 	ldw	r2,-68(fp)
 10044f4:	1085883a 	add	r2,r2,r2
 10044f8:	1085883a 	add	r2,r2,r2
 10044fc:	1007883a 	mov	r3,r2
 1004500:	e0bfff17 	ldw	r2,-4(fp)
 1004504:	10c5883a 	add	r2,r2,r3
 1004508:	10c00017 	ldw	r3,0(r2)
 100450c:	e0bff017 	ldw	r2,-64(fp)
 1004510:	1884d83a 	srl	r2,r3,r2
 1004514:	e0bf9515 	stw	r2,-428(fp)
 1004518:	e0ffed17 	ldw	r3,-76(fp)
 100451c:	e0bff017 	ldw	r2,-64(fp)
 1004520:	1885883a 	add	r2,r3,r2
 1004524:	10800850 	cmplti	r2,r2,33
 1004528:	1000161e 	bne	r2,zero,1004584 <sdhc_decode_cid+0x1664>
 100452c:	e0bfef17 	ldw	r2,-68(fp)
 1004530:	1085883a 	add	r2,r2,r2
 1004534:	1085883a 	add	r2,r2,r2
 1004538:	10bfff04 	addi	r2,r2,-4
 100453c:	e0ffff17 	ldw	r3,-4(fp)
 1004540:	1885883a 	add	r2,r3,r2
 1004544:	10c00017 	ldw	r3,0(r2)
 1004548:	01000804 	movi	r4,32
 100454c:	e0bff017 	ldw	r2,-64(fp)
 1004550:	2089c83a 	sub	r4,r4,r2
 1004554:	00a00034 	movhi	r2,32768
 1004558:	108007c4 	addi	r2,r2,31
 100455c:	2084703a 	and	r2,r4,r2
 1004560:	1000040e 	bge	r2,zero,1004574 <sdhc_decode_cid+0x1654>
 1004564:	10bfffc4 	addi	r2,r2,-1
 1004568:	013ff804 	movi	r4,-32
 100456c:	1104b03a 	or	r2,r2,r4
 1004570:	10800044 	addi	r2,r2,1
 1004574:	1884983a 	sll	r2,r3,r2
 1004578:	e0ff9517 	ldw	r3,-428(fp)
 100457c:	1884b03a 	or	r2,r3,r2
 1004580:	e0bf9515 	stw	r2,-428(fp)
 1004584:	e0ff9517 	ldw	r3,-428(fp)
 1004588:	e0bfee17 	ldw	r2,-72(fp)
 100458c:	1884703a 	and	r2,r3,r2
 1004590:	1007883a 	mov	r3,r2
 1004594:	e0bffe17 	ldw	r2,-8(fp)
 1004598:	10c00545 	stb	r3,21(r2)
 100459c:	00800804 	movi	r2,32
 10045a0:	e0bff115 	stw	r2,-60(fp)
 10045a4:	e0bff117 	ldw	r2,-60(fp)
 10045a8:	10800808 	cmpgei	r2,r2,32
 10045ac:	1000051e 	bne	r2,zero,10045c4 <sdhc_decode_cid+0x16a4>
 10045b0:	00c00044 	movi	r3,1
 10045b4:	e0bff117 	ldw	r2,-60(fp)
 10045b8:	1884983a 	sll	r2,r3,r2
 10045bc:	10bfffc4 	addi	r2,r2,-1
 10045c0:	00000106 	br	10045c8 <sdhc_decode_cid+0x16a8>
 10045c4:	00bfffc4 	movi	r2,-1
 10045c8:	e0bff215 	stw	r2,-56(fp)
 10045cc:	008000c4 	movi	r2,3
 10045d0:	e0bff315 	stw	r2,-52(fp)
 10045d4:	00800604 	movi	r2,24
 10045d8:	e0bff415 	stw	r2,-48(fp)
 10045dc:	e0bff317 	ldw	r2,-52(fp)
 10045e0:	1085883a 	add	r2,r2,r2
 10045e4:	1085883a 	add	r2,r2,r2
 10045e8:	1007883a 	mov	r3,r2
 10045ec:	e0bfff17 	ldw	r2,-4(fp)
 10045f0:	10c5883a 	add	r2,r2,r3
 10045f4:	10c00017 	ldw	r3,0(r2)
 10045f8:	e0bff417 	ldw	r2,-48(fp)
 10045fc:	1884d83a 	srl	r2,r3,r2
 1004600:	e0bf9615 	stw	r2,-424(fp)
 1004604:	e0fff117 	ldw	r3,-60(fp)
 1004608:	e0bff417 	ldw	r2,-48(fp)
 100460c:	1885883a 	add	r2,r3,r2
 1004610:	10800850 	cmplti	r2,r2,33
 1004614:	1000161e 	bne	r2,zero,1004670 <sdhc_decode_cid+0x1750>
 1004618:	e0bff317 	ldw	r2,-52(fp)
 100461c:	1085883a 	add	r2,r2,r2
 1004620:	1085883a 	add	r2,r2,r2
 1004624:	10bfff04 	addi	r2,r2,-4
 1004628:	e0ffff17 	ldw	r3,-4(fp)
 100462c:	1885883a 	add	r2,r3,r2
 1004630:	10c00017 	ldw	r3,0(r2)
 1004634:	01000804 	movi	r4,32
 1004638:	e0bff417 	ldw	r2,-48(fp)
 100463c:	2089c83a 	sub	r4,r4,r2
 1004640:	00a00034 	movhi	r2,32768
 1004644:	108007c4 	addi	r2,r2,31
 1004648:	2084703a 	and	r2,r4,r2
 100464c:	1000040e 	bge	r2,zero,1004660 <sdhc_decode_cid+0x1740>
 1004650:	10bfffc4 	addi	r2,r2,-1
 1004654:	013ff804 	movi	r4,-32
 1004658:	1104b03a 	or	r2,r2,r4
 100465c:	10800044 	addi	r2,r2,1
 1004660:	1884983a 	sll	r2,r3,r2
 1004664:	e0ff9617 	ldw	r3,-424(fp)
 1004668:	1884b03a 	or	r2,r3,r2
 100466c:	e0bf9615 	stw	r2,-424(fp)
 1004670:	e0ff9617 	ldw	r3,-424(fp)
 1004674:	e0bff217 	ldw	r2,-56(fp)
 1004678:	1886703a 	and	r3,r3,r2
 100467c:	e0bffe17 	ldw	r2,-8(fp)
 1004680:	10c00315 	stw	r3,12(r2)
 1004684:	00800204 	movi	r2,8
 1004688:	e0bff515 	stw	r2,-44(fp)
 100468c:	e0bff517 	ldw	r2,-44(fp)
 1004690:	10800808 	cmpgei	r2,r2,32
 1004694:	1000051e 	bne	r2,zero,10046ac <sdhc_decode_cid+0x178c>
 1004698:	00c00044 	movi	r3,1
 100469c:	e0bff517 	ldw	r2,-44(fp)
 10046a0:	1884983a 	sll	r2,r3,r2
 10046a4:	10bfffc4 	addi	r2,r2,-1
 10046a8:	00000106 	br	10046b0 <sdhc_decode_cid+0x1790>
 10046ac:	00bfffc4 	movi	r2,-1
 10046b0:	e0bff615 	stw	r2,-40(fp)
 10046b4:	008000c4 	movi	r2,3
 10046b8:	e0bff715 	stw	r2,-36(fp)
 10046bc:	00800304 	movi	r2,12
 10046c0:	e0bff815 	stw	r2,-32(fp)
 10046c4:	e0bff717 	ldw	r2,-36(fp)
 10046c8:	1085883a 	add	r2,r2,r2
 10046cc:	1085883a 	add	r2,r2,r2
 10046d0:	1007883a 	mov	r3,r2
 10046d4:	e0bfff17 	ldw	r2,-4(fp)
 10046d8:	10c5883a 	add	r2,r2,r3
 10046dc:	10c00017 	ldw	r3,0(r2)
 10046e0:	e0bff817 	ldw	r2,-32(fp)
 10046e4:	1884d83a 	srl	r2,r3,r2
 10046e8:	e0bf9715 	stw	r2,-420(fp)
 10046ec:	e0fff517 	ldw	r3,-44(fp)
 10046f0:	e0bff817 	ldw	r2,-32(fp)
 10046f4:	1885883a 	add	r2,r3,r2
 10046f8:	10800850 	cmplti	r2,r2,33
 10046fc:	1000161e 	bne	r2,zero,1004758 <sdhc_decode_cid+0x1838>
 1004700:	e0bff717 	ldw	r2,-36(fp)
 1004704:	1085883a 	add	r2,r2,r2
 1004708:	1085883a 	add	r2,r2,r2
 100470c:	10bfff04 	addi	r2,r2,-4
 1004710:	e0ffff17 	ldw	r3,-4(fp)
 1004714:	1885883a 	add	r2,r3,r2
 1004718:	10c00017 	ldw	r3,0(r2)
 100471c:	01000804 	movi	r4,32
 1004720:	e0bff817 	ldw	r2,-32(fp)
 1004724:	2089c83a 	sub	r4,r4,r2
 1004728:	00a00034 	movhi	r2,32768
 100472c:	108007c4 	addi	r2,r2,31
 1004730:	2084703a 	and	r2,r4,r2
 1004734:	1000040e 	bge	r2,zero,1004748 <sdhc_decode_cid+0x1828>
 1004738:	10bfffc4 	addi	r2,r2,-1
 100473c:	013ff804 	movi	r4,-32
 1004740:	1104b03a 	or	r2,r2,r4
 1004744:	10800044 	addi	r2,r2,1
 1004748:	1884983a 	sll	r2,r3,r2
 100474c:	e0ff9717 	ldw	r3,-420(fp)
 1004750:	1884b03a 	or	r2,r3,r2
 1004754:	e0bf9715 	stw	r2,-420(fp)
 1004758:	e0ff9717 	ldw	r3,-420(fp)
 100475c:	e0bff617 	ldw	r2,-40(fp)
 1004760:	1884703a 	and	r2,r3,r2
 1004764:	1007883a 	mov	r3,r2
 1004768:	e0bffe17 	ldw	r2,-8(fp)
 100476c:	10c0048d 	sth	r3,18(r2)
 1004770:	00800104 	movi	r2,4
 1004774:	e0bff915 	stw	r2,-28(fp)
 1004778:	e0bff917 	ldw	r2,-28(fp)
 100477c:	10800808 	cmpgei	r2,r2,32
 1004780:	1000051e 	bne	r2,zero,1004798 <sdhc_decode_cid+0x1878>
 1004784:	00c00044 	movi	r3,1
 1004788:	e0bff917 	ldw	r2,-28(fp)
 100478c:	1884983a 	sll	r2,r3,r2
 1004790:	10bfffc4 	addi	r2,r2,-1
 1004794:	00000106 	br	100479c <sdhc_decode_cid+0x187c>
 1004798:	00bfffc4 	movi	r2,-1
 100479c:	e0bffa15 	stw	r2,-24(fp)
 10047a0:	008000c4 	movi	r2,3
 10047a4:	e0bffb15 	stw	r2,-20(fp)
 10047a8:	00800204 	movi	r2,8
 10047ac:	e0bffc15 	stw	r2,-16(fp)
 10047b0:	e0bffb17 	ldw	r2,-20(fp)
 10047b4:	1085883a 	add	r2,r2,r2
 10047b8:	1085883a 	add	r2,r2,r2
 10047bc:	1007883a 	mov	r3,r2
 10047c0:	e0bfff17 	ldw	r2,-4(fp)
 10047c4:	10c5883a 	add	r2,r2,r3
 10047c8:	10c00017 	ldw	r3,0(r2)
 10047cc:	e0bffc17 	ldw	r2,-16(fp)
 10047d0:	1884d83a 	srl	r2,r3,r2
 10047d4:	e0bf9815 	stw	r2,-416(fp)
 10047d8:	e0fff917 	ldw	r3,-28(fp)
 10047dc:	e0bffc17 	ldw	r2,-16(fp)
 10047e0:	1885883a 	add	r2,r3,r2
 10047e4:	10800850 	cmplti	r2,r2,33
 10047e8:	1000161e 	bne	r2,zero,1004844 <sdhc_decode_cid+0x1924>
 10047ec:	e0bffb17 	ldw	r2,-20(fp)
 10047f0:	1085883a 	add	r2,r2,r2
 10047f4:	1085883a 	add	r2,r2,r2
 10047f8:	10bfff04 	addi	r2,r2,-4
 10047fc:	e0ffff17 	ldw	r3,-4(fp)
 1004800:	1885883a 	add	r2,r3,r2
 1004804:	10c00017 	ldw	r3,0(r2)
 1004808:	01000804 	movi	r4,32
 100480c:	e0bffc17 	ldw	r2,-16(fp)
 1004810:	2089c83a 	sub	r4,r4,r2
 1004814:	00a00034 	movhi	r2,32768
 1004818:	108007c4 	addi	r2,r2,31
 100481c:	2084703a 	and	r2,r4,r2
 1004820:	1000040e 	bge	r2,zero,1004834 <sdhc_decode_cid+0x1914>
 1004824:	10bfffc4 	addi	r2,r2,-1
 1004828:	013ff804 	movi	r4,-32
 100482c:	1104b03a 	or	r2,r2,r4
 1004830:	10800044 	addi	r2,r2,1
 1004834:	1884983a 	sll	r2,r3,r2
 1004838:	e0ff9817 	ldw	r3,-416(fp)
 100483c:	1884b03a 	or	r2,r3,r2
 1004840:	e0bf9815 	stw	r2,-416(fp)
 1004844:	e0ff9817 	ldw	r3,-416(fp)
 1004848:	e0bffa17 	ldw	r2,-24(fp)
 100484c:	1884703a 	and	r2,r3,r2
 1004850:	1007883a 	mov	r3,r2
 1004854:	e0bffe17 	ldw	r2,-8(fp)
 1004858:	10c00585 	stb	r3,22(r2)
 100485c:	e0bffe17 	ldw	r2,-8(fp)
 1004860:	1080048b 	ldhu	r2,18(r2)
 1004864:	1081f404 	addi	r2,r2,2000
 1004868:	1007883a 	mov	r3,r2
 100486c:	e0bffe17 	ldw	r2,-8(fp)
 1004870:	10c0048d 	sth	r3,18(r2)
 1004874:	d0a00117 	ldw	r2,-32764(gp)
 1004878:	1000061e 	bne	r2,zero,1004894 <sdhc_decode_cid+0x1974>
 100487c:	e0bffe17 	ldw	r2,-8(fp)
 1004880:	10800017 	ldw	r2,0(r2)
 1004884:	01004074 	movhi	r4,257
 1004888:	21091d04 	addi	r4,r4,9332
 100488c:	100b883a 	mov	r5,r2
 1004890:	1010a380 	call	1010a38 <printf>
 1004894:	d0a00117 	ldw	r2,-32764(gp)
 1004898:	1000071e 	bne	r2,zero,10048b8 <sdhc_decode_cid+0x1998>
 100489c:	e0bffe17 	ldw	r2,-8(fp)
 10048a0:	1080040b 	ldhu	r2,16(r2)
 10048a4:	10bfffcc 	andi	r2,r2,65535
 10048a8:	01004074 	movhi	r4,257
 10048ac:	21092504 	addi	r4,r4,9364
 10048b0:	100b883a 	mov	r5,r2
 10048b4:	1010a380 	call	1010a38 <printf>
 10048b8:	d0a00117 	ldw	r2,-32764(gp)
 10048bc:	10001e1e 	bne	r2,zero,1004938 <sdhc_decode_cid+0x1a18>
 10048c0:	e0bffe17 	ldw	r2,-8(fp)
 10048c4:	10800103 	ldbu	r2,4(r2)
 10048c8:	11403fcc 	andi	r5,r2,255
 10048cc:	2940201c 	xori	r5,r5,128
 10048d0:	297fe004 	addi	r5,r5,-128
 10048d4:	e0bffe17 	ldw	r2,-8(fp)
 10048d8:	10800143 	ldbu	r2,5(r2)
 10048dc:	11803fcc 	andi	r6,r2,255
 10048e0:	3180201c 	xori	r6,r6,128
 10048e4:	31bfe004 	addi	r6,r6,-128
 10048e8:	e0bffe17 	ldw	r2,-8(fp)
 10048ec:	10800183 	ldbu	r2,6(r2)
 10048f0:	11c03fcc 	andi	r7,r2,255
 10048f4:	39c0201c 	xori	r7,r7,128
 10048f8:	39ffe004 	addi	r7,r7,-128
 10048fc:	e0bffe17 	ldw	r2,-8(fp)
 1004900:	108001c3 	ldbu	r2,7(r2)
 1004904:	10c03fcc 	andi	r3,r2,255
 1004908:	18c0201c 	xori	r3,r3,128
 100490c:	18ffe004 	addi	r3,r3,-128
 1004910:	e0bffe17 	ldw	r2,-8(fp)
 1004914:	10800203 	ldbu	r2,8(r2)
 1004918:	10803fcc 	andi	r2,r2,255
 100491c:	1080201c 	xori	r2,r2,128
 1004920:	10bfe004 	addi	r2,r2,-128
 1004924:	d8c00015 	stw	r3,0(sp)
 1004928:	d8800115 	stw	r2,4(sp)
 100492c:	01004074 	movhi	r4,257
 1004930:	21095004 	addi	r4,r4,9536
 1004934:	1010a380 	call	1010a38 <printf>
 1004938:	d0a00117 	ldw	r2,-32764(gp)
 100493c:	10000b1e 	bne	r2,zero,100496c <sdhc_decode_cid+0x1a4c>
 1004940:	e0bffe17 	ldw	r2,-8(fp)
 1004944:	1080048b 	ldhu	r2,18(r2)
 1004948:	10ffffcc 	andi	r3,r2,65535
 100494c:	e0bffe17 	ldw	r2,-8(fp)
 1004950:	10800583 	ldbu	r2,22(r2)
 1004954:	10803fcc 	andi	r2,r2,255
 1004958:	01004074 	movhi	r4,257
 100495c:	21095904 	addi	r4,r4,9572
 1004960:	180b883a 	mov	r5,r3
 1004964:	100d883a 	mov	r6,r2
 1004968:	1010a380 	call	1010a38 <printf>
 100496c:	d0a00117 	ldw	r2,-32764(gp)
 1004970:	1000061e 	bne	r2,zero,100498c <sdhc_decode_cid+0x1a6c>
 1004974:	e0bffe17 	ldw	r2,-8(fp)
 1004978:	10800317 	ldw	r2,12(r2)
 100497c:	01004074 	movhi	r4,257
 1004980:	21094804 	addi	r4,r4,9504
 1004984:	100b883a 	mov	r5,r2
 1004988:	1010a380 	call	1010a38 <printf>
 100498c:	e037883a 	mov	sp,fp
 1004990:	dfc00117 	ldw	ra,4(sp)
 1004994:	df000017 	ldw	fp,0(sp)
 1004998:	dec00204 	addi	sp,sp,8
 100499c:	f800283a 	ret

010049a0 <sdhc_decode_csd>:
 10049a0:	deff3c04 	addi	sp,sp,-784
 10049a4:	dfc0c315 	stw	ra,780(sp)
 10049a8:	df00c215 	stw	fp,776(sp)
 10049ac:	df00c204 	addi	fp,sp,776
 10049b0:	e13ffd15 	stw	r4,-12(fp)
 10049b4:	e17ffe15 	stw	r5,-8(fp)
 10049b8:	e1bfff15 	stw	r6,-4(fp)
 10049bc:	00800084 	movi	r2,2
 10049c0:	e0bf6315 	stw	r2,-628(fp)
 10049c4:	e0bf6317 	ldw	r2,-628(fp)
 10049c8:	10800808 	cmpgei	r2,r2,32
 10049cc:	1000051e 	bne	r2,zero,10049e4 <sdhc_decode_csd+0x44>
 10049d0:	00c00044 	movi	r3,1
 10049d4:	e0bf6317 	ldw	r2,-628(fp)
 10049d8:	1884983a 	sll	r2,r3,r2
 10049dc:	10bfffc4 	addi	r2,r2,-1
 10049e0:	00000106 	br	10049e8 <sdhc_decode_csd+0x48>
 10049e4:	00bfffc4 	movi	r2,-1
 10049e8:	e0bf6415 	stw	r2,-624(fp)
 10049ec:	e03f6515 	stw	zero,-620(fp)
 10049f0:	00800784 	movi	r2,30
 10049f4:	e0bf6615 	stw	r2,-616(fp)
 10049f8:	e0bf6517 	ldw	r2,-620(fp)
 10049fc:	1085883a 	add	r2,r2,r2
 1004a00:	1085883a 	add	r2,r2,r2
 1004a04:	1007883a 	mov	r3,r2
 1004a08:	e0bfff17 	ldw	r2,-4(fp)
 1004a0c:	10c5883a 	add	r2,r2,r3
 1004a10:	10c00017 	ldw	r3,0(r2)
 1004a14:	e0bf6617 	ldw	r2,-616(fp)
 1004a18:	1884d83a 	srl	r2,r3,r2
 1004a1c:	e0bf3e15 	stw	r2,-776(fp)
 1004a20:	e0ff6317 	ldw	r3,-628(fp)
 1004a24:	e0bf6617 	ldw	r2,-616(fp)
 1004a28:	1885883a 	add	r2,r3,r2
 1004a2c:	10800850 	cmplti	r2,r2,33
 1004a30:	1000161e 	bne	r2,zero,1004a8c <sdhc_decode_csd+0xec>
 1004a34:	e0bf6517 	ldw	r2,-620(fp)
 1004a38:	1085883a 	add	r2,r2,r2
 1004a3c:	1085883a 	add	r2,r2,r2
 1004a40:	10bfff04 	addi	r2,r2,-4
 1004a44:	e0ffff17 	ldw	r3,-4(fp)
 1004a48:	1885883a 	add	r2,r3,r2
 1004a4c:	10c00017 	ldw	r3,0(r2)
 1004a50:	01000804 	movi	r4,32
 1004a54:	e0bf6617 	ldw	r2,-616(fp)
 1004a58:	2089c83a 	sub	r4,r4,r2
 1004a5c:	00a00034 	movhi	r2,32768
 1004a60:	108007c4 	addi	r2,r2,31
 1004a64:	2084703a 	and	r2,r4,r2
 1004a68:	1000040e 	bge	r2,zero,1004a7c <sdhc_decode_csd+0xdc>
 1004a6c:	10bfffc4 	addi	r2,r2,-1
 1004a70:	013ff804 	movi	r4,-32
 1004a74:	1104b03a 	or	r2,r2,r4
 1004a78:	10800044 	addi	r2,r2,1
 1004a7c:	1884983a 	sll	r2,r3,r2
 1004a80:	e0ff3e17 	ldw	r3,-776(fp)
 1004a84:	1884b03a 	or	r2,r3,r2
 1004a88:	e0bf3e15 	stw	r2,-776(fp)
 1004a8c:	e0ff3e17 	ldw	r3,-776(fp)
 1004a90:	e0bf6417 	ldw	r2,-624(fp)
 1004a94:	1884703a 	and	r2,r3,r2
 1004a98:	e0bf6715 	stw	r2,-612(fp)
 1004a9c:	e0bffd17 	ldw	r2,-12(fp)
 1004aa0:	10802617 	ldw	r2,152(r2)
 1004aa4:	108000d8 	cmpnei	r2,r2,3
 1004aa8:	10048e1e 	bne	r2,zero,1005ce4 <sdhc_decode_csd+0x1344>
 1004aac:	00800084 	movi	r2,2
 1004ab0:	e0bf6815 	stw	r2,-608(fp)
 1004ab4:	e0bf6817 	ldw	r2,-608(fp)
 1004ab8:	10800808 	cmpgei	r2,r2,32
 1004abc:	1000051e 	bne	r2,zero,1004ad4 <sdhc_decode_csd+0x134>
 1004ac0:	00c00044 	movi	r3,1
 1004ac4:	e0bf6817 	ldw	r2,-608(fp)
 1004ac8:	1884983a 	sll	r2,r3,r2
 1004acc:	10bfffc4 	addi	r2,r2,-1
 1004ad0:	00000106 	br	1004ad8 <sdhc_decode_csd+0x138>
 1004ad4:	00bfffc4 	movi	r2,-1
 1004ad8:	e0bf6915 	stw	r2,-604(fp)
 1004adc:	e03f6a15 	stw	zero,-600(fp)
 1004ae0:	00800784 	movi	r2,30
 1004ae4:	e0bf6b15 	stw	r2,-596(fp)
 1004ae8:	e0bf6a17 	ldw	r2,-600(fp)
 1004aec:	1085883a 	add	r2,r2,r2
 1004af0:	1085883a 	add	r2,r2,r2
 1004af4:	1007883a 	mov	r3,r2
 1004af8:	e0bfff17 	ldw	r2,-4(fp)
 1004afc:	10c5883a 	add	r2,r2,r3
 1004b00:	10c00017 	ldw	r3,0(r2)
 1004b04:	e0bf6b17 	ldw	r2,-596(fp)
 1004b08:	1884d83a 	srl	r2,r3,r2
 1004b0c:	e0bf3f15 	stw	r2,-772(fp)
 1004b10:	e0ff6817 	ldw	r3,-608(fp)
 1004b14:	e0bf6b17 	ldw	r2,-596(fp)
 1004b18:	1885883a 	add	r2,r3,r2
 1004b1c:	10800850 	cmplti	r2,r2,33
 1004b20:	1000161e 	bne	r2,zero,1004b7c <sdhc_decode_csd+0x1dc>
 1004b24:	e0bf6a17 	ldw	r2,-600(fp)
 1004b28:	1085883a 	add	r2,r2,r2
 1004b2c:	1085883a 	add	r2,r2,r2
 1004b30:	10bfff04 	addi	r2,r2,-4
 1004b34:	e0ffff17 	ldw	r3,-4(fp)
 1004b38:	1885883a 	add	r2,r3,r2
 1004b3c:	10c00017 	ldw	r3,0(r2)
 1004b40:	01000804 	movi	r4,32
 1004b44:	e0bf6b17 	ldw	r2,-596(fp)
 1004b48:	2089c83a 	sub	r4,r4,r2
 1004b4c:	00a00034 	movhi	r2,32768
 1004b50:	108007c4 	addi	r2,r2,31
 1004b54:	2084703a 	and	r2,r4,r2
 1004b58:	1000040e 	bge	r2,zero,1004b6c <sdhc_decode_csd+0x1cc>
 1004b5c:	10bfffc4 	addi	r2,r2,-1
 1004b60:	013ff804 	movi	r4,-32
 1004b64:	1104b03a 	or	r2,r2,r4
 1004b68:	10800044 	addi	r2,r2,1
 1004b6c:	1884983a 	sll	r2,r3,r2
 1004b70:	e0ff3f17 	ldw	r3,-772(fp)
 1004b74:	1884b03a 	or	r2,r3,r2
 1004b78:	e0bf3f15 	stw	r2,-772(fp)
 1004b7c:	e0ff3f17 	ldw	r3,-772(fp)
 1004b80:	e0bf6917 	ldw	r2,-604(fp)
 1004b84:	1884703a 	and	r2,r3,r2
 1004b88:	e0bf6715 	stw	r2,-612(fp)
 1004b8c:	00800104 	movi	r2,4
 1004b90:	e0bf6c15 	stw	r2,-592(fp)
 1004b94:	e0bf6c17 	ldw	r2,-592(fp)
 1004b98:	10800808 	cmpgei	r2,r2,32
 1004b9c:	1000051e 	bne	r2,zero,1004bb4 <sdhc_decode_csd+0x214>
 1004ba0:	00c00044 	movi	r3,1
 1004ba4:	e0bf6c17 	ldw	r2,-592(fp)
 1004ba8:	1884983a 	sll	r2,r3,r2
 1004bac:	10bfffc4 	addi	r2,r2,-1
 1004bb0:	00000106 	br	1004bb8 <sdhc_decode_csd+0x218>
 1004bb4:	00bfffc4 	movi	r2,-1
 1004bb8:	e0bf6d15 	stw	r2,-588(fp)
 1004bbc:	e03f6e15 	stw	zero,-584(fp)
 1004bc0:	00800684 	movi	r2,26
 1004bc4:	e0bf6f15 	stw	r2,-580(fp)
 1004bc8:	e0bf6e17 	ldw	r2,-584(fp)
 1004bcc:	1085883a 	add	r2,r2,r2
 1004bd0:	1085883a 	add	r2,r2,r2
 1004bd4:	1007883a 	mov	r3,r2
 1004bd8:	e0bfff17 	ldw	r2,-4(fp)
 1004bdc:	10c5883a 	add	r2,r2,r3
 1004be0:	10c00017 	ldw	r3,0(r2)
 1004be4:	e0bf6f17 	ldw	r2,-580(fp)
 1004be8:	1884d83a 	srl	r2,r3,r2
 1004bec:	e0bf4015 	stw	r2,-768(fp)
 1004bf0:	e0ff6c17 	ldw	r3,-592(fp)
 1004bf4:	e0bf6f17 	ldw	r2,-580(fp)
 1004bf8:	1885883a 	add	r2,r3,r2
 1004bfc:	10800850 	cmplti	r2,r2,33
 1004c00:	1000161e 	bne	r2,zero,1004c5c <sdhc_decode_csd+0x2bc>
 1004c04:	e0bf6e17 	ldw	r2,-584(fp)
 1004c08:	1085883a 	add	r2,r2,r2
 1004c0c:	1085883a 	add	r2,r2,r2
 1004c10:	10bfff04 	addi	r2,r2,-4
 1004c14:	e0ffff17 	ldw	r3,-4(fp)
 1004c18:	1885883a 	add	r2,r3,r2
 1004c1c:	10c00017 	ldw	r3,0(r2)
 1004c20:	01000804 	movi	r4,32
 1004c24:	e0bf6f17 	ldw	r2,-580(fp)
 1004c28:	2089c83a 	sub	r4,r4,r2
 1004c2c:	00a00034 	movhi	r2,32768
 1004c30:	108007c4 	addi	r2,r2,31
 1004c34:	2084703a 	and	r2,r4,r2
 1004c38:	1000040e 	bge	r2,zero,1004c4c <sdhc_decode_csd+0x2ac>
 1004c3c:	10bfffc4 	addi	r2,r2,-1
 1004c40:	013ff804 	movi	r4,-32
 1004c44:	1104b03a 	or	r2,r2,r4
 1004c48:	10800044 	addi	r2,r2,1
 1004c4c:	1884983a 	sll	r2,r3,r2
 1004c50:	e0ff4017 	ldw	r3,-768(fp)
 1004c54:	1884b03a 	or	r2,r3,r2
 1004c58:	e0bf4015 	stw	r2,-768(fp)
 1004c5c:	e0ff4017 	ldw	r3,-768(fp)
 1004c60:	e0bf6d17 	ldw	r2,-588(fp)
 1004c64:	1884703a 	and	r2,r3,r2
 1004c68:	1007883a 	mov	r3,r2
 1004c6c:	e0bffe17 	ldw	r2,-8(fp)
 1004c70:	10c00005 	stb	r3,0(r2)
 1004c74:	00800104 	movi	r2,4
 1004c78:	e0bf7015 	stw	r2,-576(fp)
 1004c7c:	e0bf7017 	ldw	r2,-576(fp)
 1004c80:	10800808 	cmpgei	r2,r2,32
 1004c84:	1000051e 	bne	r2,zero,1004c9c <sdhc_decode_csd+0x2fc>
 1004c88:	00c00044 	movi	r3,1
 1004c8c:	e0bf7017 	ldw	r2,-576(fp)
 1004c90:	1884983a 	sll	r2,r3,r2
 1004c94:	10bfffc4 	addi	r2,r2,-1
 1004c98:	00000106 	br	1004ca0 <sdhc_decode_csd+0x300>
 1004c9c:	00bfffc4 	movi	r2,-1
 1004ca0:	e0bf7115 	stw	r2,-572(fp)
 1004ca4:	e03f7215 	stw	zero,-568(fp)
 1004ca8:	008004c4 	movi	r2,19
 1004cac:	e0bf7315 	stw	r2,-564(fp)
 1004cb0:	e0bf7217 	ldw	r2,-568(fp)
 1004cb4:	1085883a 	add	r2,r2,r2
 1004cb8:	1085883a 	add	r2,r2,r2
 1004cbc:	1007883a 	mov	r3,r2
 1004cc0:	e0bfff17 	ldw	r2,-4(fp)
 1004cc4:	10c5883a 	add	r2,r2,r3
 1004cc8:	10c00017 	ldw	r3,0(r2)
 1004ccc:	e0bf7317 	ldw	r2,-564(fp)
 1004cd0:	1884d83a 	srl	r2,r3,r2
 1004cd4:	e0bf4115 	stw	r2,-764(fp)
 1004cd8:	e0ff7017 	ldw	r3,-576(fp)
 1004cdc:	e0bf7317 	ldw	r2,-564(fp)
 1004ce0:	1885883a 	add	r2,r3,r2
 1004ce4:	10800850 	cmplti	r2,r2,33
 1004ce8:	1000161e 	bne	r2,zero,1004d44 <sdhc_decode_csd+0x3a4>
 1004cec:	e0bf7217 	ldw	r2,-568(fp)
 1004cf0:	1085883a 	add	r2,r2,r2
 1004cf4:	1085883a 	add	r2,r2,r2
 1004cf8:	10bfff04 	addi	r2,r2,-4
 1004cfc:	e0ffff17 	ldw	r3,-4(fp)
 1004d00:	1885883a 	add	r2,r3,r2
 1004d04:	10c00017 	ldw	r3,0(r2)
 1004d08:	01000804 	movi	r4,32
 1004d0c:	e0bf7317 	ldw	r2,-564(fp)
 1004d10:	2089c83a 	sub	r4,r4,r2
 1004d14:	00a00034 	movhi	r2,32768
 1004d18:	108007c4 	addi	r2,r2,31
 1004d1c:	2084703a 	and	r2,r4,r2
 1004d20:	1000040e 	bge	r2,zero,1004d34 <sdhc_decode_csd+0x394>
 1004d24:	10bfffc4 	addi	r2,r2,-1
 1004d28:	013ff804 	movi	r4,-32
 1004d2c:	1104b03a 	or	r2,r2,r4
 1004d30:	10800044 	addi	r2,r2,1
 1004d34:	1884983a 	sll	r2,r3,r2
 1004d38:	e0ff4117 	ldw	r3,-764(fp)
 1004d3c:	1884b03a 	or	r2,r3,r2
 1004d40:	e0bf4115 	stw	r2,-764(fp)
 1004d44:	e0ff4117 	ldw	r3,-764(fp)
 1004d48:	e0bf7117 	ldw	r2,-572(fp)
 1004d4c:	1884703a 	and	r2,r3,r2
 1004d50:	e0bf7415 	stw	r2,-560(fp)
 1004d54:	008000c4 	movi	r2,3
 1004d58:	e0bf7515 	stw	r2,-556(fp)
 1004d5c:	e0bf7517 	ldw	r2,-556(fp)
 1004d60:	10800808 	cmpgei	r2,r2,32
 1004d64:	1000051e 	bne	r2,zero,1004d7c <sdhc_decode_csd+0x3dc>
 1004d68:	00c00044 	movi	r3,1
 1004d6c:	e0bf7517 	ldw	r2,-556(fp)
 1004d70:	1884983a 	sll	r2,r3,r2
 1004d74:	10bfffc4 	addi	r2,r2,-1
 1004d78:	00000106 	br	1004d80 <sdhc_decode_csd+0x3e0>
 1004d7c:	00bfffc4 	movi	r2,-1
 1004d80:	e0bf7615 	stw	r2,-552(fp)
 1004d84:	e03f7715 	stw	zero,-548(fp)
 1004d88:	00800404 	movi	r2,16
 1004d8c:	e0bf7815 	stw	r2,-544(fp)
 1004d90:	e0bf7717 	ldw	r2,-548(fp)
 1004d94:	1085883a 	add	r2,r2,r2
 1004d98:	1085883a 	add	r2,r2,r2
 1004d9c:	1007883a 	mov	r3,r2
 1004da0:	e0bfff17 	ldw	r2,-4(fp)
 1004da4:	10c5883a 	add	r2,r2,r3
 1004da8:	10c00017 	ldw	r3,0(r2)
 1004dac:	e0bf7817 	ldw	r2,-544(fp)
 1004db0:	1884d83a 	srl	r2,r3,r2
 1004db4:	e0bf4215 	stw	r2,-760(fp)
 1004db8:	e0ff7517 	ldw	r3,-556(fp)
 1004dbc:	e0bf7817 	ldw	r2,-544(fp)
 1004dc0:	1885883a 	add	r2,r3,r2
 1004dc4:	10800850 	cmplti	r2,r2,33
 1004dc8:	1000161e 	bne	r2,zero,1004e24 <sdhc_decode_csd+0x484>
 1004dcc:	e0bf7717 	ldw	r2,-548(fp)
 1004dd0:	1085883a 	add	r2,r2,r2
 1004dd4:	1085883a 	add	r2,r2,r2
 1004dd8:	10bfff04 	addi	r2,r2,-4
 1004ddc:	e0ffff17 	ldw	r3,-4(fp)
 1004de0:	1885883a 	add	r2,r3,r2
 1004de4:	10c00017 	ldw	r3,0(r2)
 1004de8:	01000804 	movi	r4,32
 1004dec:	e0bf7817 	ldw	r2,-544(fp)
 1004df0:	2089c83a 	sub	r4,r4,r2
 1004df4:	00a00034 	movhi	r2,32768
 1004df8:	108007c4 	addi	r2,r2,31
 1004dfc:	2084703a 	and	r2,r4,r2
 1004e00:	1000040e 	bge	r2,zero,1004e14 <sdhc_decode_csd+0x474>
 1004e04:	10bfffc4 	addi	r2,r2,-1
 1004e08:	013ff804 	movi	r4,-32
 1004e0c:	1104b03a 	or	r2,r2,r4
 1004e10:	10800044 	addi	r2,r2,1
 1004e14:	1884983a 	sll	r2,r3,r2
 1004e18:	e0ff4217 	ldw	r3,-760(fp)
 1004e1c:	1884b03a 	or	r2,r3,r2
 1004e20:	e0bf4215 	stw	r2,-760(fp)
 1004e24:	e0ff4217 	ldw	r3,-760(fp)
 1004e28:	e0bf7617 	ldw	r2,-552(fp)
 1004e2c:	1884703a 	and	r2,r3,r2
 1004e30:	e0bf7915 	stw	r2,-540(fp)
 1004e34:	00804074 	movhi	r2,257
 1004e38:	10890504 	addi	r2,r2,9236
 1004e3c:	e0ff7917 	ldw	r3,-540(fp)
 1004e40:	18c7883a 	add	r3,r3,r3
 1004e44:	18c7883a 	add	r3,r3,r3
 1004e48:	10c5883a 	add	r2,r2,r3
 1004e4c:	11000017 	ldw	r4,0(r2)
 1004e50:	00804074 	movhi	r2,257
 1004e54:	10890d04 	addi	r2,r2,9268
 1004e58:	e0ff7417 	ldw	r3,-560(fp)
 1004e5c:	18c7883a 	add	r3,r3,r3
 1004e60:	18c7883a 	add	r3,r3,r3
 1004e64:	10c5883a 	add	r2,r2,r3
 1004e68:	10800017 	ldw	r2,0(r2)
 1004e6c:	2085383a 	mul	r2,r4,r2
 1004e70:	10800244 	addi	r2,r2,9
 1004e74:	1009883a 	mov	r4,r2
 1004e78:	01400284 	movi	r5,10
 1004e7c:	100f7c40 	call	100f7c4 <__udivsi3>
 1004e80:	1007883a 	mov	r3,r2
 1004e84:	e0bffe17 	ldw	r2,-8(fp)
 1004e88:	10c00215 	stw	r3,8(r2)
 1004e8c:	00800204 	movi	r2,8
 1004e90:	e0bf7a15 	stw	r2,-536(fp)
 1004e94:	e0bf7a17 	ldw	r2,-536(fp)
 1004e98:	10800808 	cmpgei	r2,r2,32
 1004e9c:	1000051e 	bne	r2,zero,1004eb4 <sdhc_decode_csd+0x514>
 1004ea0:	00c00044 	movi	r3,1
 1004ea4:	e0bf7a17 	ldw	r2,-536(fp)
 1004ea8:	1884983a 	sll	r2,r3,r2
 1004eac:	10bfffc4 	addi	r2,r2,-1
 1004eb0:	00000106 	br	1004eb8 <sdhc_decode_csd+0x518>
 1004eb4:	00bfffc4 	movi	r2,-1
 1004eb8:	e0bf7b15 	stw	r2,-532(fp)
 1004ebc:	e03f7c15 	stw	zero,-528(fp)
 1004ec0:	00800204 	movi	r2,8
 1004ec4:	e0bf7d15 	stw	r2,-524(fp)
 1004ec8:	e0bf7c17 	ldw	r2,-528(fp)
 1004ecc:	1085883a 	add	r2,r2,r2
 1004ed0:	1085883a 	add	r2,r2,r2
 1004ed4:	1007883a 	mov	r3,r2
 1004ed8:	e0bfff17 	ldw	r2,-4(fp)
 1004edc:	10c5883a 	add	r2,r2,r3
 1004ee0:	10c00017 	ldw	r3,0(r2)
 1004ee4:	e0bf7d17 	ldw	r2,-524(fp)
 1004ee8:	1884d83a 	srl	r2,r3,r2
 1004eec:	e0bf4315 	stw	r2,-756(fp)
 1004ef0:	e0ff7a17 	ldw	r3,-536(fp)
 1004ef4:	e0bf7d17 	ldw	r2,-524(fp)
 1004ef8:	1885883a 	add	r2,r3,r2
 1004efc:	10800850 	cmplti	r2,r2,33
 1004f00:	1000161e 	bne	r2,zero,1004f5c <sdhc_decode_csd+0x5bc>
 1004f04:	e0bf7c17 	ldw	r2,-528(fp)
 1004f08:	1085883a 	add	r2,r2,r2
 1004f0c:	1085883a 	add	r2,r2,r2
 1004f10:	10bfff04 	addi	r2,r2,-4
 1004f14:	e0ffff17 	ldw	r3,-4(fp)
 1004f18:	1885883a 	add	r2,r3,r2
 1004f1c:	10c00017 	ldw	r3,0(r2)
 1004f20:	01000804 	movi	r4,32
 1004f24:	e0bf7d17 	ldw	r2,-524(fp)
 1004f28:	2089c83a 	sub	r4,r4,r2
 1004f2c:	00a00034 	movhi	r2,32768
 1004f30:	108007c4 	addi	r2,r2,31
 1004f34:	2084703a 	and	r2,r4,r2
 1004f38:	1000040e 	bge	r2,zero,1004f4c <sdhc_decode_csd+0x5ac>
 1004f3c:	10bfffc4 	addi	r2,r2,-1
 1004f40:	013ff804 	movi	r4,-32
 1004f44:	1104b03a 	or	r2,r2,r4
 1004f48:	10800044 	addi	r2,r2,1
 1004f4c:	1884983a 	sll	r2,r3,r2
 1004f50:	e0ff4317 	ldw	r3,-756(fp)
 1004f54:	1884b03a 	or	r2,r3,r2
 1004f58:	e0bf4315 	stw	r2,-756(fp)
 1004f5c:	e0ff4317 	ldw	r3,-756(fp)
 1004f60:	e0bf7b17 	ldw	r2,-532(fp)
 1004f64:	1884703a 	and	r2,r3,r2
 1004f68:	10801924 	muli	r2,r2,100
 1004f6c:	1007883a 	mov	r3,r2
 1004f70:	e0bffe17 	ldw	r2,-8(fp)
 1004f74:	10c0010d 	sth	r3,4(r2)
 1004f78:	00800104 	movi	r2,4
 1004f7c:	e0bf7e15 	stw	r2,-520(fp)
 1004f80:	e0bf7e17 	ldw	r2,-520(fp)
 1004f84:	10800808 	cmpgei	r2,r2,32
 1004f88:	1000051e 	bne	r2,zero,1004fa0 <sdhc_decode_csd+0x600>
 1004f8c:	00c00044 	movi	r3,1
 1004f90:	e0bf7e17 	ldw	r2,-520(fp)
 1004f94:	1884983a 	sll	r2,r3,r2
 1004f98:	10bfffc4 	addi	r2,r2,-1
 1004f9c:	00000106 	br	1004fa4 <sdhc_decode_csd+0x604>
 1004fa0:	00bfffc4 	movi	r2,-1
 1004fa4:	e0bf7f15 	stw	r2,-516(fp)
 1004fa8:	e03f8015 	stw	zero,-512(fp)
 1004fac:	008000c4 	movi	r2,3
 1004fb0:	e0bf8115 	stw	r2,-508(fp)
 1004fb4:	e0bf8017 	ldw	r2,-512(fp)
 1004fb8:	1085883a 	add	r2,r2,r2
 1004fbc:	1085883a 	add	r2,r2,r2
 1004fc0:	1007883a 	mov	r3,r2
 1004fc4:	e0bfff17 	ldw	r2,-4(fp)
 1004fc8:	10c5883a 	add	r2,r2,r3
 1004fcc:	10c00017 	ldw	r3,0(r2)
 1004fd0:	e0bf8117 	ldw	r2,-508(fp)
 1004fd4:	1884d83a 	srl	r2,r3,r2
 1004fd8:	e0bf4415 	stw	r2,-752(fp)
 1004fdc:	e0ff7e17 	ldw	r3,-520(fp)
 1004fe0:	e0bf8117 	ldw	r2,-508(fp)
 1004fe4:	1885883a 	add	r2,r3,r2
 1004fe8:	10800850 	cmplti	r2,r2,33
 1004fec:	1000161e 	bne	r2,zero,1005048 <sdhc_decode_csd+0x6a8>
 1004ff0:	e0bf8017 	ldw	r2,-512(fp)
 1004ff4:	1085883a 	add	r2,r2,r2
 1004ff8:	1085883a 	add	r2,r2,r2
 1004ffc:	10bfff04 	addi	r2,r2,-4
 1005000:	e0ffff17 	ldw	r3,-4(fp)
 1005004:	1885883a 	add	r2,r3,r2
 1005008:	10c00017 	ldw	r3,0(r2)
 100500c:	01000804 	movi	r4,32
 1005010:	e0bf8117 	ldw	r2,-508(fp)
 1005014:	2089c83a 	sub	r4,r4,r2
 1005018:	00a00034 	movhi	r2,32768
 100501c:	108007c4 	addi	r2,r2,31
 1005020:	2084703a 	and	r2,r4,r2
 1005024:	1000040e 	bge	r2,zero,1005038 <sdhc_decode_csd+0x698>
 1005028:	10bfffc4 	addi	r2,r2,-1
 100502c:	013ff804 	movi	r4,-32
 1005030:	1104b03a 	or	r2,r2,r4
 1005034:	10800044 	addi	r2,r2,1
 1005038:	1884983a 	sll	r2,r3,r2
 100503c:	e0ff4417 	ldw	r3,-752(fp)
 1005040:	1884b03a 	or	r2,r3,r2
 1005044:	e0bf4415 	stw	r2,-752(fp)
 1005048:	e0ff4417 	ldw	r3,-752(fp)
 100504c:	e0bf7f17 	ldw	r2,-516(fp)
 1005050:	1884703a 	and	r2,r3,r2
 1005054:	e0bf7415 	stw	r2,-560(fp)
 1005058:	008000c4 	movi	r2,3
 100505c:	e0bf8215 	stw	r2,-504(fp)
 1005060:	e0bf8217 	ldw	r2,-504(fp)
 1005064:	10800808 	cmpgei	r2,r2,32
 1005068:	1000051e 	bne	r2,zero,1005080 <sdhc_decode_csd+0x6e0>
 100506c:	00c00044 	movi	r3,1
 1005070:	e0bf8217 	ldw	r2,-504(fp)
 1005074:	1884983a 	sll	r2,r3,r2
 1005078:	10bfffc4 	addi	r2,r2,-1
 100507c:	00000106 	br	1005084 <sdhc_decode_csd+0x6e4>
 1005080:	00bfffc4 	movi	r2,-1
 1005084:	e0bf8315 	stw	r2,-500(fp)
 1005088:	e03f8415 	stw	zero,-496(fp)
 100508c:	e03f8515 	stw	zero,-492(fp)
 1005090:	e0bf8417 	ldw	r2,-496(fp)
 1005094:	1085883a 	add	r2,r2,r2
 1005098:	1085883a 	add	r2,r2,r2
 100509c:	1007883a 	mov	r3,r2
 10050a0:	e0bfff17 	ldw	r2,-4(fp)
 10050a4:	10c5883a 	add	r2,r2,r3
 10050a8:	10c00017 	ldw	r3,0(r2)
 10050ac:	e0bf8517 	ldw	r2,-492(fp)
 10050b0:	1884d83a 	srl	r2,r3,r2
 10050b4:	e0bf4515 	stw	r2,-748(fp)
 10050b8:	e0ff8217 	ldw	r3,-504(fp)
 10050bc:	e0bf8517 	ldw	r2,-492(fp)
 10050c0:	1885883a 	add	r2,r3,r2
 10050c4:	10800850 	cmplti	r2,r2,33
 10050c8:	1000161e 	bne	r2,zero,1005124 <sdhc_decode_csd+0x784>
 10050cc:	e0bf8417 	ldw	r2,-496(fp)
 10050d0:	1085883a 	add	r2,r2,r2
 10050d4:	1085883a 	add	r2,r2,r2
 10050d8:	10bfff04 	addi	r2,r2,-4
 10050dc:	e0ffff17 	ldw	r3,-4(fp)
 10050e0:	1885883a 	add	r2,r3,r2
 10050e4:	10c00017 	ldw	r3,0(r2)
 10050e8:	01000804 	movi	r4,32
 10050ec:	e0bf8517 	ldw	r2,-492(fp)
 10050f0:	2089c83a 	sub	r4,r4,r2
 10050f4:	00a00034 	movhi	r2,32768
 10050f8:	108007c4 	addi	r2,r2,31
 10050fc:	2084703a 	and	r2,r4,r2
 1005100:	1000040e 	bge	r2,zero,1005114 <sdhc_decode_csd+0x774>
 1005104:	10bfffc4 	addi	r2,r2,-1
 1005108:	013ff804 	movi	r4,-32
 100510c:	1104b03a 	or	r2,r2,r4
 1005110:	10800044 	addi	r2,r2,1
 1005114:	1884983a 	sll	r2,r3,r2
 1005118:	e0ff4517 	ldw	r3,-748(fp)
 100511c:	1884b03a 	or	r2,r3,r2
 1005120:	e0bf4515 	stw	r2,-748(fp)
 1005124:	e0ff4517 	ldw	r3,-748(fp)
 1005128:	e0bf8317 	ldw	r2,-500(fp)
 100512c:	1884703a 	and	r2,r3,r2
 1005130:	e0bf7915 	stw	r2,-540(fp)
 1005134:	00804074 	movhi	r2,257
 1005138:	1088f504 	addi	r2,r2,9172
 100513c:	e0ff7917 	ldw	r3,-540(fp)
 1005140:	18c7883a 	add	r3,r3,r3
 1005144:	18c7883a 	add	r3,r3,r3
 1005148:	10c5883a 	add	r2,r2,r3
 100514c:	10c00017 	ldw	r3,0(r2)
 1005150:	00804074 	movhi	r2,257
 1005154:	10890104 	addi	r2,r2,9220
 1005158:	e13f7417 	ldw	r4,-560(fp)
 100515c:	1105883a 	add	r2,r2,r4
 1005160:	10800003 	ldbu	r2,0(r2)
 1005164:	10803fcc 	andi	r2,r2,255
 1005168:	1887383a 	mul	r3,r3,r2
 100516c:	e0bffe17 	ldw	r2,-8(fp)
 1005170:	10c00415 	stw	r3,16(r2)
 1005174:	00800304 	movi	r2,12
 1005178:	e0bf8615 	stw	r2,-488(fp)
 100517c:	e0bf8617 	ldw	r2,-488(fp)
 1005180:	10800808 	cmpgei	r2,r2,32
 1005184:	1000051e 	bne	r2,zero,100519c <sdhc_decode_csd+0x7fc>
 1005188:	00c00044 	movi	r3,1
 100518c:	e0bf8617 	ldw	r2,-488(fp)
 1005190:	1884983a 	sll	r2,r3,r2
 1005194:	10bfffc4 	addi	r2,r2,-1
 1005198:	00000106 	br	10051a0 <sdhc_decode_csd+0x800>
 100519c:	00bfffc4 	movi	r2,-1
 10051a0:	e0bf8715 	stw	r2,-484(fp)
 10051a4:	00800044 	movi	r2,1
 10051a8:	e0bf8815 	stw	r2,-480(fp)
 10051ac:	00800504 	movi	r2,20
 10051b0:	e0bf8915 	stw	r2,-476(fp)
 10051b4:	e0bf8817 	ldw	r2,-480(fp)
 10051b8:	1085883a 	add	r2,r2,r2
 10051bc:	1085883a 	add	r2,r2,r2
 10051c0:	1007883a 	mov	r3,r2
 10051c4:	e0bfff17 	ldw	r2,-4(fp)
 10051c8:	10c5883a 	add	r2,r2,r3
 10051cc:	10c00017 	ldw	r3,0(r2)
 10051d0:	e0bf8917 	ldw	r2,-476(fp)
 10051d4:	1884d83a 	srl	r2,r3,r2
 10051d8:	e0bf4615 	stw	r2,-744(fp)
 10051dc:	e0ff8617 	ldw	r3,-488(fp)
 10051e0:	e0bf8917 	ldw	r2,-476(fp)
 10051e4:	1885883a 	add	r2,r3,r2
 10051e8:	10800850 	cmplti	r2,r2,33
 10051ec:	1000161e 	bne	r2,zero,1005248 <sdhc_decode_csd+0x8a8>
 10051f0:	e0bf8817 	ldw	r2,-480(fp)
 10051f4:	1085883a 	add	r2,r2,r2
 10051f8:	1085883a 	add	r2,r2,r2
 10051fc:	10bfff04 	addi	r2,r2,-4
 1005200:	e0ffff17 	ldw	r3,-4(fp)
 1005204:	1885883a 	add	r2,r3,r2
 1005208:	10c00017 	ldw	r3,0(r2)
 100520c:	01000804 	movi	r4,32
 1005210:	e0bf8917 	ldw	r2,-476(fp)
 1005214:	2089c83a 	sub	r4,r4,r2
 1005218:	00a00034 	movhi	r2,32768
 100521c:	108007c4 	addi	r2,r2,31
 1005220:	2084703a 	and	r2,r4,r2
 1005224:	1000040e 	bge	r2,zero,1005238 <sdhc_decode_csd+0x898>
 1005228:	10bfffc4 	addi	r2,r2,-1
 100522c:	013ff804 	movi	r4,-32
 1005230:	1104b03a 	or	r2,r2,r4
 1005234:	10800044 	addi	r2,r2,1
 1005238:	1884983a 	sll	r2,r3,r2
 100523c:	e0ff4617 	ldw	r3,-744(fp)
 1005240:	1884b03a 	or	r2,r3,r2
 1005244:	e0bf4615 	stw	r2,-744(fp)
 1005248:	e0ff4617 	ldw	r3,-744(fp)
 100524c:	e0bf8717 	ldw	r2,-484(fp)
 1005250:	1884703a 	and	r2,r3,r2
 1005254:	1007883a 	mov	r3,r2
 1005258:	e0bffe17 	ldw	r2,-8(fp)
 100525c:	10c0008d 	sth	r3,2(r2)
 1005260:	008000c4 	movi	r2,3
 1005264:	e0bf8a15 	stw	r2,-472(fp)
 1005268:	e0bf8a17 	ldw	r2,-472(fp)
 100526c:	10800808 	cmpgei	r2,r2,32
 1005270:	1000051e 	bne	r2,zero,1005288 <sdhc_decode_csd+0x8e8>
 1005274:	00c00044 	movi	r3,1
 1005278:	e0bf8a17 	ldw	r2,-472(fp)
 100527c:	1884983a 	sll	r2,r3,r2
 1005280:	10bfffc4 	addi	r2,r2,-1
 1005284:	00000106 	br	100528c <sdhc_decode_csd+0x8ec>
 1005288:	00bfffc4 	movi	r2,-1
 100528c:	e0bf8b15 	stw	r2,-468(fp)
 1005290:	00800084 	movi	r2,2
 1005294:	e0bf8c15 	stw	r2,-464(fp)
 1005298:	008003c4 	movi	r2,15
 100529c:	e0bf8d15 	stw	r2,-460(fp)
 10052a0:	e0bf8c17 	ldw	r2,-464(fp)
 10052a4:	1085883a 	add	r2,r2,r2
 10052a8:	1085883a 	add	r2,r2,r2
 10052ac:	1007883a 	mov	r3,r2
 10052b0:	e0bfff17 	ldw	r2,-4(fp)
 10052b4:	10c5883a 	add	r2,r2,r3
 10052b8:	10c00017 	ldw	r3,0(r2)
 10052bc:	e0bf8d17 	ldw	r2,-460(fp)
 10052c0:	1884d83a 	srl	r2,r3,r2
 10052c4:	e0bf4715 	stw	r2,-740(fp)
 10052c8:	e0ff8a17 	ldw	r3,-472(fp)
 10052cc:	e0bf8d17 	ldw	r2,-460(fp)
 10052d0:	1885883a 	add	r2,r3,r2
 10052d4:	10800850 	cmplti	r2,r2,33
 10052d8:	1000161e 	bne	r2,zero,1005334 <sdhc_decode_csd+0x994>
 10052dc:	e0bf8c17 	ldw	r2,-464(fp)
 10052e0:	1085883a 	add	r2,r2,r2
 10052e4:	1085883a 	add	r2,r2,r2
 10052e8:	10bfff04 	addi	r2,r2,-4
 10052ec:	e0ffff17 	ldw	r3,-4(fp)
 10052f0:	1885883a 	add	r2,r3,r2
 10052f4:	10c00017 	ldw	r3,0(r2)
 10052f8:	01000804 	movi	r4,32
 10052fc:	e0bf8d17 	ldw	r2,-460(fp)
 1005300:	2089c83a 	sub	r4,r4,r2
 1005304:	00a00034 	movhi	r2,32768
 1005308:	108007c4 	addi	r2,r2,31
 100530c:	2084703a 	and	r2,r4,r2
 1005310:	1000040e 	bge	r2,zero,1005324 <sdhc_decode_csd+0x984>
 1005314:	10bfffc4 	addi	r2,r2,-1
 1005318:	013ff804 	movi	r4,-32
 100531c:	1104b03a 	or	r2,r2,r4
 1005320:	10800044 	addi	r2,r2,1
 1005324:	1884983a 	sll	r2,r3,r2
 1005328:	e0ff4717 	ldw	r3,-740(fp)
 100532c:	1884b03a 	or	r2,r3,r2
 1005330:	e0bf4715 	stw	r2,-740(fp)
 1005334:	e0ff4717 	ldw	r3,-740(fp)
 1005338:	e0bf8b17 	ldw	r2,-468(fp)
 100533c:	1884703a 	and	r2,r3,r2
 1005340:	e0bf7915 	stw	r2,-540(fp)
 1005344:	00800304 	movi	r2,12
 1005348:	e0bf8e15 	stw	r2,-456(fp)
 100534c:	e0bf8e17 	ldw	r2,-456(fp)
 1005350:	10800808 	cmpgei	r2,r2,32
 1005354:	1000051e 	bne	r2,zero,100536c <sdhc_decode_csd+0x9cc>
 1005358:	00c00044 	movi	r3,1
 100535c:	e0bf8e17 	ldw	r2,-456(fp)
 1005360:	1884983a 	sll	r2,r3,r2
 1005364:	10bfffc4 	addi	r2,r2,-1
 1005368:	00000106 	br	1005370 <sdhc_decode_csd+0x9d0>
 100536c:	00bfffc4 	movi	r2,-1
 1005370:	e0bf8f15 	stw	r2,-452(fp)
 1005374:	00800084 	movi	r2,2
 1005378:	e0bf9015 	stw	r2,-448(fp)
 100537c:	00800784 	movi	r2,30
 1005380:	e0bf9115 	stw	r2,-444(fp)
 1005384:	e0bf9017 	ldw	r2,-448(fp)
 1005388:	1085883a 	add	r2,r2,r2
 100538c:	1085883a 	add	r2,r2,r2
 1005390:	1007883a 	mov	r3,r2
 1005394:	e0bfff17 	ldw	r2,-4(fp)
 1005398:	10c5883a 	add	r2,r2,r3
 100539c:	10c00017 	ldw	r3,0(r2)
 10053a0:	e0bf9117 	ldw	r2,-444(fp)
 10053a4:	1884d83a 	srl	r2,r3,r2
 10053a8:	e0bf4815 	stw	r2,-736(fp)
 10053ac:	e0ff8e17 	ldw	r3,-456(fp)
 10053b0:	e0bf9117 	ldw	r2,-444(fp)
 10053b4:	1885883a 	add	r2,r3,r2
 10053b8:	10800850 	cmplti	r2,r2,33
 10053bc:	1000161e 	bne	r2,zero,1005418 <sdhc_decode_csd+0xa78>
 10053c0:	e0bf9017 	ldw	r2,-448(fp)
 10053c4:	1085883a 	add	r2,r2,r2
 10053c8:	1085883a 	add	r2,r2,r2
 10053cc:	10bfff04 	addi	r2,r2,-4
 10053d0:	e0ffff17 	ldw	r3,-4(fp)
 10053d4:	1885883a 	add	r2,r3,r2
 10053d8:	10c00017 	ldw	r3,0(r2)
 10053dc:	01000804 	movi	r4,32
 10053e0:	e0bf9117 	ldw	r2,-444(fp)
 10053e4:	2089c83a 	sub	r4,r4,r2
 10053e8:	00a00034 	movhi	r2,32768
 10053ec:	108007c4 	addi	r2,r2,31
 10053f0:	2084703a 	and	r2,r4,r2
 10053f4:	1000040e 	bge	r2,zero,1005408 <sdhc_decode_csd+0xa68>
 10053f8:	10bfffc4 	addi	r2,r2,-1
 10053fc:	013ff804 	movi	r4,-32
 1005400:	1104b03a 	or	r2,r2,r4
 1005404:	10800044 	addi	r2,r2,1
 1005408:	1884983a 	sll	r2,r3,r2
 100540c:	e0ff4817 	ldw	r3,-736(fp)
 1005410:	1884b03a 	or	r2,r3,r2
 1005414:	e0bf4815 	stw	r2,-736(fp)
 1005418:	e0ff4817 	ldw	r3,-736(fp)
 100541c:	e0bf8f17 	ldw	r2,-452(fp)
 1005420:	1884703a 	and	r2,r3,r2
 1005424:	e0bf7415 	stw	r2,-560(fp)
 1005428:	e0bf7417 	ldw	r2,-560(fp)
 100542c:	e0bf9215 	stw	r2,-440(fp)
 1005430:	e0bf7417 	ldw	r2,-560(fp)
 1005434:	10800044 	addi	r2,r2,1
 1005438:	e0ff7917 	ldw	r3,-540(fp)
 100543c:	18c00084 	addi	r3,r3,2
 1005440:	10c4983a 	sll	r2,r2,r3
 1005444:	e0bf9315 	stw	r2,-436(fp)
 1005448:	e0bf9217 	ldw	r2,-440(fp)
 100544c:	1083ffd8 	cmpnei	r2,r2,4095
 1005450:	1000041e 	bne	r2,zero,1005464 <sdhc_decode_csd+0xac4>
 1005454:	e0bffe17 	ldw	r2,-8(fp)
 1005458:	00c3ffc4 	movi	r3,4095
 100545c:	10c00715 	stw	r3,28(r2)
 1005460:	00000706 	br	1005480 <sdhc_decode_csd+0xae0>
 1005464:	e0bf7417 	ldw	r2,-560(fp)
 1005468:	10800044 	addi	r2,r2,1
 100546c:	e0ff7917 	ldw	r3,-540(fp)
 1005470:	18c00084 	addi	r3,r3,2
 1005474:	10c6983a 	sll	r3,r2,r3
 1005478:	e0bffe17 	ldw	r2,-8(fp)
 100547c:	10c00715 	stw	r3,28(r2)
 1005480:	00800104 	movi	r2,4
 1005484:	e0bf9415 	stw	r2,-432(fp)
 1005488:	e0bf9417 	ldw	r2,-432(fp)
 100548c:	10800808 	cmpgei	r2,r2,32
 1005490:	1000051e 	bne	r2,zero,10054a8 <sdhc_decode_csd+0xb08>
 1005494:	00c00044 	movi	r3,1
 1005498:	e0bf9417 	ldw	r2,-432(fp)
 100549c:	1884983a 	sll	r2,r3,r2
 10054a0:	10bfffc4 	addi	r2,r2,-1
 10054a4:	00000106 	br	10054ac <sdhc_decode_csd+0xb0c>
 10054a8:	00bfffc4 	movi	r2,-1
 10054ac:	e0bf9515 	stw	r2,-428(fp)
 10054b0:	00800044 	movi	r2,1
 10054b4:	e0bf9615 	stw	r2,-424(fp)
 10054b8:	00800404 	movi	r2,16
 10054bc:	e0bf9715 	stw	r2,-420(fp)
 10054c0:	e0bf9617 	ldw	r2,-424(fp)
 10054c4:	1085883a 	add	r2,r2,r2
 10054c8:	1085883a 	add	r2,r2,r2
 10054cc:	1007883a 	mov	r3,r2
 10054d0:	e0bfff17 	ldw	r2,-4(fp)
 10054d4:	10c5883a 	add	r2,r2,r3
 10054d8:	10c00017 	ldw	r3,0(r2)
 10054dc:	e0bf9717 	ldw	r2,-420(fp)
 10054e0:	1884d83a 	srl	r2,r3,r2
 10054e4:	e0bf4915 	stw	r2,-732(fp)
 10054e8:	e0ff9417 	ldw	r3,-432(fp)
 10054ec:	e0bf9717 	ldw	r2,-420(fp)
 10054f0:	1885883a 	add	r2,r3,r2
 10054f4:	10800850 	cmplti	r2,r2,33
 10054f8:	1000161e 	bne	r2,zero,1005554 <sdhc_decode_csd+0xbb4>
 10054fc:	e0bf9617 	ldw	r2,-424(fp)
 1005500:	1085883a 	add	r2,r2,r2
 1005504:	1085883a 	add	r2,r2,r2
 1005508:	10bfff04 	addi	r2,r2,-4
 100550c:	e0ffff17 	ldw	r3,-4(fp)
 1005510:	1885883a 	add	r2,r3,r2
 1005514:	10c00017 	ldw	r3,0(r2)
 1005518:	01000804 	movi	r4,32
 100551c:	e0bf9717 	ldw	r2,-420(fp)
 1005520:	2089c83a 	sub	r4,r4,r2
 1005524:	00a00034 	movhi	r2,32768
 1005528:	108007c4 	addi	r2,r2,31
 100552c:	2084703a 	and	r2,r4,r2
 1005530:	1000040e 	bge	r2,zero,1005544 <sdhc_decode_csd+0xba4>
 1005534:	10bfffc4 	addi	r2,r2,-1
 1005538:	013ff804 	movi	r4,-32
 100553c:	1104b03a 	or	r2,r2,r4
 1005540:	10800044 	addi	r2,r2,1
 1005544:	1884983a 	sll	r2,r3,r2
 1005548:	e0ff4917 	ldw	r3,-732(fp)
 100554c:	1884b03a 	or	r2,r3,r2
 1005550:	e0bf4915 	stw	r2,-732(fp)
 1005554:	e0ff4917 	ldw	r3,-732(fp)
 1005558:	e0bf9517 	ldw	r2,-428(fp)
 100555c:	1886703a 	and	r3,r3,r2
 1005560:	e0bffe17 	ldw	r2,-8(fp)
 1005564:	10c00515 	stw	r3,20(r2)
 1005568:	00800044 	movi	r2,1
 100556c:	e0bf9815 	stw	r2,-416(fp)
 1005570:	e0bf9817 	ldw	r2,-416(fp)
 1005574:	10800808 	cmpgei	r2,r2,32
 1005578:	1000051e 	bne	r2,zero,1005590 <sdhc_decode_csd+0xbf0>
 100557c:	00c00044 	movi	r3,1
 1005580:	e0bf9817 	ldw	r2,-416(fp)
 1005584:	1884983a 	sll	r2,r3,r2
 1005588:	10bfffc4 	addi	r2,r2,-1
 100558c:	00000106 	br	1005594 <sdhc_decode_csd+0xbf4>
 1005590:	00bfffc4 	movi	r2,-1
 1005594:	e0bf9915 	stw	r2,-412(fp)
 1005598:	00800044 	movi	r2,1
 100559c:	e0bf9a15 	stw	r2,-408(fp)
 10055a0:	008003c4 	movi	r2,15
 10055a4:	e0bf9b15 	stw	r2,-404(fp)
 10055a8:	e0bf9a17 	ldw	r2,-408(fp)
 10055ac:	1085883a 	add	r2,r2,r2
 10055b0:	1085883a 	add	r2,r2,r2
 10055b4:	1007883a 	mov	r3,r2
 10055b8:	e0bfff17 	ldw	r2,-4(fp)
 10055bc:	10c5883a 	add	r2,r2,r3
 10055c0:	10c00017 	ldw	r3,0(r2)
 10055c4:	e0bf9b17 	ldw	r2,-404(fp)
 10055c8:	1884d83a 	srl	r2,r3,r2
 10055cc:	e0bf4a15 	stw	r2,-728(fp)
 10055d0:	e0ff9817 	ldw	r3,-416(fp)
 10055d4:	e0bf9b17 	ldw	r2,-404(fp)
 10055d8:	1885883a 	add	r2,r3,r2
 10055dc:	10800850 	cmplti	r2,r2,33
 10055e0:	1000161e 	bne	r2,zero,100563c <sdhc_decode_csd+0xc9c>
 10055e4:	e0bf9a17 	ldw	r2,-408(fp)
 10055e8:	1085883a 	add	r2,r2,r2
 10055ec:	1085883a 	add	r2,r2,r2
 10055f0:	10bfff04 	addi	r2,r2,-4
 10055f4:	e0ffff17 	ldw	r3,-4(fp)
 10055f8:	1885883a 	add	r2,r3,r2
 10055fc:	10c00017 	ldw	r3,0(r2)
 1005600:	01000804 	movi	r4,32
 1005604:	e0bf9b17 	ldw	r2,-404(fp)
 1005608:	2089c83a 	sub	r4,r4,r2
 100560c:	00a00034 	movhi	r2,32768
 1005610:	108007c4 	addi	r2,r2,31
 1005614:	2084703a 	and	r2,r4,r2
 1005618:	1000040e 	bge	r2,zero,100562c <sdhc_decode_csd+0xc8c>
 100561c:	10bfffc4 	addi	r2,r2,-1
 1005620:	013ff804 	movi	r4,-32
 1005624:	1104b03a 	or	r2,r2,r4
 1005628:	10800044 	addi	r2,r2,1
 100562c:	1884983a 	sll	r2,r3,r2
 1005630:	e0ff4a17 	ldw	r3,-728(fp)
 1005634:	1884b03a 	or	r2,r3,r2
 1005638:	e0bf4a15 	stw	r2,-728(fp)
 100563c:	e0ff4a17 	ldw	r3,-728(fp)
 1005640:	e0bf9917 	ldw	r2,-412(fp)
 1005644:	1884703a 	and	r2,r3,r2
 1005648:	1080004c 	andi	r2,r2,1
 100564c:	1007883a 	mov	r3,r2
 1005650:	e0bffe17 	ldw	r2,-8(fp)
 1005654:	1940004c 	andi	r5,r3,1
 1005658:	11000803 	ldbu	r4,32(r2)
 100565c:	00ffff84 	movi	r3,-2
 1005660:	20c6703a 	and	r3,r4,r3
 1005664:	1809883a 	mov	r4,r3
 1005668:	2807883a 	mov	r3,r5
 100566c:	20c6b03a 	or	r3,r4,r3
 1005670:	10c00805 	stb	r3,32(r2)
 1005674:	00800044 	movi	r2,1
 1005678:	e0bf9c15 	stw	r2,-400(fp)
 100567c:	e0bf9c17 	ldw	r2,-400(fp)
 1005680:	10800808 	cmpgei	r2,r2,32
 1005684:	1000051e 	bne	r2,zero,100569c <sdhc_decode_csd+0xcfc>
